

Microchip MPLAB XC8 Assembler V2.46 build 20240104201356 
                                                                                               Thu Oct 24 23:53:13 2024

Microchip MPLAB XC8 C Compiler v2.46 (Free license) build 20240104201356 Og1 
     1                           	processor	16F877A
     2                           	pagewidth 120
     3                           	opt	flic
     4                           	psect	idataCOMMON,global,class=CODE,delta=2,noexec
     5                           	psect	idataBANK0,global,class=CODE,delta=2,noexec
     6                           	psect	idataBANK1,global,class=CODE,delta=2,noexec
     7                           	psect	strings,global,class=STRING,delta=2,noexec
     8                           	psect	stringtext,global,reloc=256,class=STRCODE,delta=2,noexec
     9                           	psect	cinit,global,class=CODE,merge=1,delta=2
    10                           	psect	dataCOMMON,global,class=COMMON,space=1,delta=1,noexec
    11                           	psect	bssBANK0,global,class=BANK0,space=1,delta=1,noexec
    12                           	psect	dataBANK0,global,class=BANK0,space=1,delta=1,noexec
    13                           	psect	bssBANK1,global,class=BANK1,space=1,delta=1,noexec
    14                           	psect	dataBANK1,global,class=BANK1,space=1,delta=1,noexec
    15                           	psect	inittext,global,class=CODE,delta=2
    16                           	psect	clrtext,global,class=CODE,delta=2
    17                           	psect	cstackBANK1,global,class=BANK1,space=1,delta=1,noexec
    18                           	psect	cstackCOMMON,global,class=COMMON,space=1,delta=1,noexec
    19                           	psect	cstackBANK0,global,class=BANK0,space=1,delta=1,noexec
    20                           	psect	maintext,global,class=CODE,split=1,delta=2
    21                           	psect	text1,local,class=CODE,merge=1,delta=2
    22                           	psect	text2,local,class=CODE,merge=1,delta=2
    23                           	psect	text3,local,class=CODE,merge=1,delta=2
    24                           	psect	text4,local,class=CODE,merge=1,delta=2,group=1
    25                           	psect	text5,local,class=CODE,merge=1,delta=2,group=1
    26                           	psect	text6,local,class=CODE,merge=1,delta=2,group=1
    27                           	psect	text7,local,class=CODE,merge=1,delta=2
    28                           	psect	text8,local,class=CODE,merge=1,delta=2
    29                           	psect	text9,local,class=CODE,merge=1,delta=2
    30                           	psect	text10,local,class=CODE,merge=1,delta=2
    31                           	psect	text11,local,class=CODE,merge=1,delta=2,group=1
    32                           	psect	text12,local,class=CODE,merge=1,delta=2
    33                           	psect	text13,local,class=CODE,merge=1,delta=2
    34                           	psect	text14,local,class=CODE,merge=1,delta=2
    35                           	psect	text15,local,class=CODE,merge=1,delta=2
    36                           	psect	text16,local,class=CODE,merge=1,delta=2
    37                           	psect	text17,local,class=CODE,merge=1,delta=2
    38                           	psect	text18,local,class=CODE,merge=1,delta=2
    39                           	psect	text19,local,class=CODE,merge=1,delta=2
    40                           	psect	text20,local,class=CODE,merge=1,delta=2,group=2
    41                           	psect	text21,local,class=CODE,merge=1,delta=2
    42                           	psect	text22,local,class=CODE,merge=1,delta=2
    43                           	psect	text23,local,class=CODE,merge=1,delta=2
    44                           	psect	text24,local,class=CODE,merge=1,delta=2
    45                           	psect	text25,local,class=CODE,merge=1,delta=2
    46                           	psect	text26,local,class=CODE,merge=1,delta=2
    47                           	psect	text27,local,class=CODE,merge=1,delta=2
    48                           	psect	text28,local,class=CODE,merge=1,delta=2
    49                           	psect	text29,local,class=CODE,merge=1,delta=2
    50                           	psect	text30,local,class=CODE,merge=1,delta=2
    51                           	psect	text31,local,class=CODE,merge=1,delta=2
    52                           	psect	text32,local,class=CODE,merge=1,delta=2,group=1
    53                           	psect	text33,local,class=CODE,merge=1,delta=2,group=1
    54                           	psect	text34,local,class=CODE,merge=1,delta=2,group=1
    55                           	psect	text35,local,class=CODE,merge=1,delta=2
    56                           	psect	text36,local,class=CODE,merge=1,delta=2
    57                           	psect	text37,local,class=CODE,merge=1,delta=2
    58                           	psect	text38,local,class=CODE,merge=1,delta=2
    59                           	psect	text39,local,class=CODE,merge=1,delta=2
    60                           	psect	text40,local,class=CODE,merge=1,delta=2
    61                           	psect	text41,local,class=CODE,merge=1,delta=2,group=2
    62                           	psect	text42,local,class=CODE,merge=1,delta=2
    63                           	psect	text43,local,class=CODE,merge=1,delta=2,group=1
    64                           	psect	text44,local,class=CODE,merge=1,delta=2,group=1
    65                           	psect	text45,local,class=CODE,merge=1,delta=2
    66                           	psect	text46,local,class=CODE,merge=1,delta=2,group=2
    67                           	psect	text47,local,class=CODE,merge=1,delta=2
    68                           	psect	text48,local,class=CODE,merge=1,delta=2
    69                           	psect	text49,local,class=CODE,merge=1,delta=2
    70                           	psect	text50,local,class=CODE,merge=1,delta=2
    71                           	psect	text51,local,class=CODE,merge=1,delta=2
    72                           	psect	text52,local,class=CODE,merge=1,delta=2
    73                           	psect	intentry,global,class=CODE,delta=2
    74                           	psect	config,global,abs,ovrld,class=CONFIG,space=4,delta=2,noexec
    75                           	dabs	1,0x7E,2
    76     0000                     
    77                           ; Generated 22/03/2023 GMT
    78                           ; 
    79                           ; Copyright © 2023, Microchip Technology Inc. and its subsidiaries ("Microchip")
    80                           ; All rights reserved.
    81                           ; 
    82                           ; This software is developed by Microchip Technology Inc. and its subsidiaries ("Microch
      +                          ip").
    83                           ; 
    84                           ; Redistribution and use in source and binary forms, with or without modification, are
    85                           ; permitted provided that the following conditions are met:
    86                           ; 
    87                           ;     1. Redistributions of source code must retain the above copyright notice, this lis
      +                          t of
    88                           ;        conditions and the following disclaimer.
    89                           ; 
    90                           ;     2. Redistributions in binary form must reproduce the above copyright notice, this 
      +                          list
    91                           ;        of conditions and the following disclaimer in the documentation and/or other
    92                           ;        materials provided with the distribution. Publication is not required when
    93                           ;        this file is used in an embedded application.
    94                           ; 
    95                           ;     3. Microchip's name may not be used to endorse or promote products derived from th
      +                          is
    96                           ;        software without specific prior written permission.
    97                           ; 
    98                           ; THIS SOFTWARE IS PROVIDED BY MICROCHIP "AS IS" AND ANY EXPRESS OR IMPLIED WARRANTIES,
    99                           ; INCLUDING, BUT NOT LIMITED TO, THE IMPLIED WARRANTIES OF MERCHANTABILITY AND FITNESS F
      +                          OR
   100                           ; PURPOSE ARE DISCLAIMED.  IN NO EVENT SHALL MICROCHIP BE LIABLE FOR ANY DIRECT, INDIREC
      +                          T,
   101                           ; INCIDENTAL, SPECIAL, EXEMPLARY, OR CONSEQUENTIAL DAMAGES (INCLUDING BUT NOT LIMITED TO
   102                           ; PROCUREMENT OF SUBSTITUTE GOODS OR SERVICES; LOSS OF USE, DATA OR PROFITS; OR BUSINESS
   103                           ; INTERRUPTION) HOWSOEVER CAUSED AND ON ANY THEORY OF LIABILITY, WHETHER IN CONTRACT, ST
      +                          RICT
   104                           ; LIABILITY, OR TORT (INCLUDING NEGLIGENCE OR OTHERWISE) ARISING IN ANY WAY OUT OF THE U
      +                          SE OF
   105                           ; THIS SOFTWARE, EVEN IF ADVISED OF THE POSSIBILITY OF SUCH DAMAGE.
   106                           ; 
   107                           ; 
   108                           ; Code-generator required, PIC16F877A Definitions
   109                           ; 
   110                           ; SFR Addresses
   111     0000                     	;# 
   112     0001                     	;# 
   113     0002                     	;# 
   114     0003                     	;# 
   115     0004                     	;# 
   116     0005                     	;# 
   117     0006                     	;# 
   118     0007                     	;# 
   119     0008                     	;# 
   120     0009                     	;# 
   121     000A                     	;# 
   122     000B                     	;# 
   123     000C                     	;# 
   124     000D                     	;# 
   125     000E                     	;# 
   126     000E                     	;# 
   127     000F                     	;# 
   128     0010                     	;# 
   129     0011                     	;# 
   130     0012                     	;# 
   131     0013                     	;# 
   132     0014                     	;# 
   133     0015                     	;# 
   134     0015                     	;# 
   135     0016                     	;# 
   136     0017                     	;# 
   137     0018                     	;# 
   138     0019                     	;# 
   139     001A                     	;# 
   140     001B                     	;# 
   141     001B                     	;# 
   142     001C                     	;# 
   143     001D                     	;# 
   144     001E                     	;# 
   145     001F                     	;# 
   146     0081                     	;# 
   147     0085                     	;# 
   148     0086                     	;# 
   149     0087                     	;# 
   150     0088                     	;# 
   151     0089                     	;# 
   152     008C                     	;# 
   153     008D                     	;# 
   154     008E                     	;# 
   155     0091                     	;# 
   156     0092                     	;# 
   157     0093                     	;# 
   158     0094                     	;# 
   159     0098                     	;# 
   160     0099                     	;# 
   161     009C                     	;# 
   162     009D                     	;# 
   163     009E                     	;# 
   164     009F                     	;# 
   165     010C                     	;# 
   166     010D                     	;# 
   167     010E                     	;# 
   168     010F                     	;# 
   169     018C                     	;# 
   170     018D                     	;# 
   171     0000                     	;# 
   172     0001                     	;# 
   173     0002                     	;# 
   174     0003                     	;# 
   175     0004                     	;# 
   176     0005                     	;# 
   177     0006                     	;# 
   178     0007                     	;# 
   179     0008                     	;# 
   180     0009                     	;# 
   181     000A                     	;# 
   182     000B                     	;# 
   183     000C                     	;# 
   184     000D                     	;# 
   185     000E                     	;# 
   186     000E                     	;# 
   187     000F                     	;# 
   188     0010                     	;# 
   189     0011                     	;# 
   190     0012                     	;# 
   191     0013                     	;# 
   192     0014                     	;# 
   193     0015                     	;# 
   194     0015                     	;# 
   195     0016                     	;# 
   196     0017                     	;# 
   197     0018                     	;# 
   198     0019                     	;# 
   199     001A                     	;# 
   200     001B                     	;# 
   201     001B                     	;# 
   202     001C                     	;# 
   203     001D                     	;# 
   204     001E                     	;# 
   205     001F                     	;# 
   206     0081                     	;# 
   207     0085                     	;# 
   208     0086                     	;# 
   209     0087                     	;# 
   210     0088                     	;# 
   211     0089                     	;# 
   212     008C                     	;# 
   213     008D                     	;# 
   214     008E                     	;# 
   215     0091                     	;# 
   216     0092                     	;# 
   217     0093                     	;# 
   218     0094                     	;# 
   219     0098                     	;# 
   220     0099                     	;# 
   221     009C                     	;# 
   222     009D                     	;# 
   223     009E                     	;# 
   224     009F                     	;# 
   225     010C                     	;# 
   226     010D                     	;# 
   227     010E                     	;# 
   228     010F                     	;# 
   229     018C                     	;# 
   230     018D                     	;# 
   231     0000                     	;# 
   232     0001                     	;# 
   233     0002                     	;# 
   234     0003                     	;# 
   235     0004                     	;# 
   236     0005                     	;# 
   237     0006                     	;# 
   238     0007                     	;# 
   239     0008                     	;# 
   240     0009                     	;# 
   241     000A                     	;# 
   242     000B                     	;# 
   243     000C                     	;# 
   244     000D                     	;# 
   245     000E                     	;# 
   246     000E                     	;# 
   247     000F                     	;# 
   248     0010                     	;# 
   249     0011                     	;# 
   250     0012                     	;# 
   251     0013                     	;# 
   252     0014                     	;# 
   253     0015                     	;# 
   254     0015                     	;# 
   255     0016                     	;# 
   256     0017                     	;# 
   257     0018                     	;# 
   258     0019                     	;# 
   259     001A                     	;# 
   260     001B                     	;# 
   261     001B                     	;# 
   262     001C                     	;# 
   263     001D                     	;# 
   264     001E                     	;# 
   265     001F                     	;# 
   266     0081                     	;# 
   267     0085                     	;# 
   268     0086                     	;# 
   269     0087                     	;# 
   270     0088                     	;# 
   271     0089                     	;# 
   272     008C                     	;# 
   273     008D                     	;# 
   274     008E                     	;# 
   275     0091                     	;# 
   276     0092                     	;# 
   277     0093                     	;# 
   278     0094                     	;# 
   279     0098                     	;# 
   280     0099                     	;# 
   281     009C                     	;# 
   282     009D                     	;# 
   283     009E                     	;# 
   284     009F                     	;# 
   285     010C                     	;# 
   286     010D                     	;# 
   287     010E                     	;# 
   288     010F                     	;# 
   289     018C                     	;# 
   290     018D                     	;# 
   291     0000                     	;# 
   292     0001                     	;# 
   293     0002                     	;# 
   294     0003                     	;# 
   295     0004                     	;# 
   296     0005                     	;# 
   297     0006                     	;# 
   298     0007                     	;# 
   299     0008                     	;# 
   300     0009                     	;# 
   301     000A                     	;# 
   302     000B                     	;# 
   303     000C                     	;# 
   304     000D                     	;# 
   305     000E                     	;# 
   306     000E                     	;# 
   307     000F                     	;# 
   308     0010                     	;# 
   309     0011                     	;# 
   310     0012                     	;# 
   311     0013                     	;# 
   312     0014                     	;# 
   313     0015                     	;# 
   314     0015                     	;# 
   315     0016                     	;# 
   316     0017                     	;# 
   317     0018                     	;# 
   318     0019                     	;# 
   319     001A                     	;# 
   320     001B                     	;# 
   321     001B                     	;# 
   322     001C                     	;# 
   323     001D                     	;# 
   324     001E                     	;# 
   325     001F                     	;# 
   326     0081                     	;# 
   327     0085                     	;# 
   328     0086                     	;# 
   329     0087                     	;# 
   330     0088                     	;# 
   331     0089                     	;# 
   332     008C                     	;# 
   333     008D                     	;# 
   334     008E                     	;# 
   335     0091                     	;# 
   336     0092                     	;# 
   337     0093                     	;# 
   338     0094                     	;# 
   339     0098                     	;# 
   340     0099                     	;# 
   341     009C                     	;# 
   342     009D                     	;# 
   343     009E                     	;# 
   344     009F                     	;# 
   345     010C                     	;# 
   346     010D                     	;# 
   347     010E                     	;# 
   348     010F                     	;# 
   349     018C                     	;# 
   350     018D                     	;# 
   351     0000                     	;# 
   352     0001                     	;# 
   353     0002                     	;# 
   354     0003                     	;# 
   355     0004                     	;# 
   356     0005                     	;# 
   357     0006                     	;# 
   358     0007                     	;# 
   359     0008                     	;# 
   360     0009                     	;# 
   361     000A                     	;# 
   362     000B                     	;# 
   363     000C                     	;# 
   364     000D                     	;# 
   365     000E                     	;# 
   366     000E                     	;# 
   367     000F                     	;# 
   368     0010                     	;# 
   369     0011                     	;# 
   370     0012                     	;# 
   371     0013                     	;# 
   372     0014                     	;# 
   373     0015                     	;# 
   374     0015                     	;# 
   375     0016                     	;# 
   376     0017                     	;# 
   377     0018                     	;# 
   378     0019                     	;# 
   379     001A                     	;# 
   380     001B                     	;# 
   381     001B                     	;# 
   382     001C                     	;# 
   383     001D                     	;# 
   384     001E                     	;# 
   385     001F                     	;# 
   386     0081                     	;# 
   387     0085                     	;# 
   388     0086                     	;# 
   389     0087                     	;# 
   390     0088                     	;# 
   391     0089                     	;# 
   392     008C                     	;# 
   393     008D                     	;# 
   394     008E                     	;# 
   395     0091                     	;# 
   396     0092                     	;# 
   397     0093                     	;# 
   398     0094                     	;# 
   399     0098                     	;# 
   400     0099                     	;# 
   401     009C                     	;# 
   402     009D                     	;# 
   403     009E                     	;# 
   404     009F                     	;# 
   405     010C                     	;# 
   406     010D                     	;# 
   407     010E                     	;# 
   408     010F                     	;# 
   409     018C                     	;# 
   410     018D                     	;# 
   411     0000                     	;# 
   412     0001                     	;# 
   413     0002                     	;# 
   414     0003                     	;# 
   415     0004                     	;# 
   416     0005                     	;# 
   417     0006                     	;# 
   418     0007                     	;# 
   419     0008                     	;# 
   420     0009                     	;# 
   421     000A                     	;# 
   422     000B                     	;# 
   423     000C                     	;# 
   424     000D                     	;# 
   425     000E                     	;# 
   426     000E                     	;# 
   427     000F                     	;# 
   428     0010                     	;# 
   429     0011                     	;# 
   430     0012                     	;# 
   431     0013                     	;# 
   432     0014                     	;# 
   433     0015                     	;# 
   434     0015                     	;# 
   435     0016                     	;# 
   436     0017                     	;# 
   437     0018                     	;# 
   438     0019                     	;# 
   439     001A                     	;# 
   440     001B                     	;# 
   441     001B                     	;# 
   442     001C                     	;# 
   443     001D                     	;# 
   444     001E                     	;# 
   445     001F                     	;# 
   446     0081                     	;# 
   447     0085                     	;# 
   448     0086                     	;# 
   449     0087                     	;# 
   450     0088                     	;# 
   451     0089                     	;# 
   452     008C                     	;# 
   453     008D                     	;# 
   454     008E                     	;# 
   455     0091                     	;# 
   456     0092                     	;# 
   457     0093                     	;# 
   458     0094                     	;# 
   459     0098                     	;# 
   460     0099                     	;# 
   461     009C                     	;# 
   462     009D                     	;# 
   463     009E                     	;# 
   464     009F                     	;# 
   465     010C                     	;# 
   466     010D                     	;# 
   467     010E                     	;# 
   468     010F                     	;# 
   469     018C                     	;# 
   470     018D                     	;# 
   471     0000                     	;# 
   472     0001                     	;# 
   473     0002                     	;# 
   474     0003                     	;# 
   475     0004                     	;# 
   476     0005                     	;# 
   477     0006                     	;# 
   478     0007                     	;# 
   479     0008                     	;# 
   480     0009                     	;# 
   481     000A                     	;# 
   482     000B                     	;# 
   483     000C                     	;# 
   484     000D                     	;# 
   485     000E                     	;# 
   486     000E                     	;# 
   487     000F                     	;# 
   488     0010                     	;# 
   489     0011                     	;# 
   490     0012                     	;# 
   491     0013                     	;# 
   492     0014                     	;# 
   493     0015                     	;# 
   494     0015                     	;# 
   495     0016                     	;# 
   496     0017                     	;# 
   497     0018                     	;# 
   498     0019                     	;# 
   499     001A                     	;# 
   500     001B                     	;# 
   501     001B                     	;# 
   502     001C                     	;# 
   503     001D                     	;# 
   504     001E                     	;# 
   505     001F                     	;# 
   506     0081                     	;# 
   507     0085                     	;# 
   508     0086                     	;# 
   509     0087                     	;# 
   510     0088                     	;# 
   511     0089                     	;# 
   512     008C                     	;# 
   513     008D                     	;# 
   514     008E                     	;# 
   515     0091                     	;# 
   516     0092                     	;# 
   517     0093                     	;# 
   518     0094                     	;# 
   519     0098                     	;# 
   520     0099                     	;# 
   521     009C                     	;# 
   522     009D                     	;# 
   523     009E                     	;# 
   524     009F                     	;# 
   525     010C                     	;# 
   526     010D                     	;# 
   527     010E                     	;# 
   528     010F                     	;# 
   529     018C                     	;# 
   530     018D                     	;# 
   531     0000                     	;# 
   532     0001                     	;# 
   533     0002                     	;# 
   534     0003                     	;# 
   535     0004                     	;# 
   536     0005                     	;# 
   537     0006                     	;# 
   538     0007                     	;# 
   539     0008                     	;# 
   540     0009                     	;# 
   541     000A                     	;# 
   542     000B                     	;# 
   543     000C                     	;# 
   544     000D                     	;# 
   545     000E                     	;# 
   546     000E                     	;# 
   547     000F                     	;# 
   548     0010                     	;# 
   549     0011                     	;# 
   550     0012                     	;# 
   551     0013                     	;# 
   552     0014                     	;# 
   553     0015                     	;# 
   554     0015                     	;# 
   555     0016                     	;# 
   556     0017                     	;# 
   557     0018                     	;# 
   558     0019                     	;# 
   559     001A                     	;# 
   560     001B                     	;# 
   561     001B                     	;# 
   562     001C                     	;# 
   563     001D                     	;# 
   564     001E                     	;# 
   565     001F                     	;# 
   566     0081                     	;# 
   567     0085                     	;# 
   568     0086                     	;# 
   569     0087                     	;# 
   570     0088                     	;# 
   571     0089                     	;# 
   572     008C                     	;# 
   573     008D                     	;# 
   574     008E                     	;# 
   575     0091                     	;# 
   576     0092                     	;# 
   577     0093                     	;# 
   578     0094                     	;# 
   579     0098                     	;# 
   580     0099                     	;# 
   581     009C                     	;# 
   582     009D                     	;# 
   583     009E                     	;# 
   584     009F                     	;# 
   585     010C                     	;# 
   586     010D                     	;# 
   587     010E                     	;# 
   588     010F                     	;# 
   589     018C                     	;# 
   590     018D                     	;# 
   591     0000                     	;# 
   592     0001                     	;# 
   593     0002                     	;# 
   594     0003                     	;# 
   595     0004                     	;# 
   596     0005                     	;# 
   597     0006                     	;# 
   598     0007                     	;# 
   599     0008                     	;# 
   600     0009                     	;# 
   601     000A                     	;# 
   602     000B                     	;# 
   603     000C                     	;# 
   604     000D                     	;# 
   605     000E                     	;# 
   606     000E                     	;# 
   607     000F                     	;# 
   608     0010                     	;# 
   609     0011                     	;# 
   610     0012                     	;# 
   611     0013                     	;# 
   612     0014                     	;# 
   613     0015                     	;# 
   614     0015                     	;# 
   615     0016                     	;# 
   616     0017                     	;# 
   617     0018                     	;# 
   618     0019                     	;# 
   619     001A                     	;# 
   620     001B                     	;# 
   621     001B                     	;# 
   622     001C                     	;# 
   623     001D                     	;# 
   624     001E                     	;# 
   625     001F                     	;# 
   626     0081                     	;# 
   627     0085                     	;# 
   628     0086                     	;# 
   629     0087                     	;# 
   630     0088                     	;# 
   631     0089                     	;# 
   632     008C                     	;# 
   633     008D                     	;# 
   634     008E                     	;# 
   635     0091                     	;# 
   636     0092                     	;# 
   637     0093                     	;# 
   638     0094                     	;# 
   639     0098                     	;# 
   640     0099                     	;# 
   641     009C                     	;# 
   642     009D                     	;# 
   643     009E                     	;# 
   644     009F                     	;# 
   645     010C                     	;# 
   646     010D                     	;# 
   647     010E                     	;# 
   648     010F                     	;# 
   649     018C                     	;# 
   650     018D                     	;# 
   651     0000                     	;# 
   652     0001                     	;# 
   653     0002                     	;# 
   654     0003                     	;# 
   655     0004                     	;# 
   656     0005                     	;# 
   657     0006                     	;# 
   658     0007                     	;# 
   659     0008                     	;# 
   660     0009                     	;# 
   661     000A                     	;# 
   662     000B                     	;# 
   663     000C                     	;# 
   664     000D                     	;# 
   665     000E                     	;# 
   666     000E                     	;# 
   667     000F                     	;# 
   668     0010                     	;# 
   669     0011                     	;# 
   670     0012                     	;# 
   671     0013                     	;# 
   672     0014                     	;# 
   673     0015                     	;# 
   674     0015                     	;# 
   675     0016                     	;# 
   676     0017                     	;# 
   677     0018                     	;# 
   678     0019                     	;# 
   679     001A                     	;# 
   680     001B                     	;# 
   681     001B                     	;# 
   682     001C                     	;# 
   683     001D                     	;# 
   684     001E                     	;# 
   685     001F                     	;# 
   686     0081                     	;# 
   687     0085                     	;# 
   688     0086                     	;# 
   689     0087                     	;# 
   690     0088                     	;# 
   691     0089                     	;# 
   692     008C                     	;# 
   693     008D                     	;# 
   694     008E                     	;# 
   695     0091                     	;# 
   696     0092                     	;# 
   697     0093                     	;# 
   698     0094                     	;# 
   699     0098                     	;# 
   700     0099                     	;# 
   701     009C                     	;# 
   702     009D                     	;# 
   703     009E                     	;# 
   704     009F                     	;# 
   705     010C                     	;# 
   706     010D                     	;# 
   707     010E                     	;# 
   708     010F                     	;# 
   709     018C                     	;# 
   710     018D                     	;# 
   711     0000                     	;# 
   712     0001                     	;# 
   713     0002                     	;# 
   714     0003                     	;# 
   715     0004                     	;# 
   716     0005                     	;# 
   717     0006                     	;# 
   718     0007                     	;# 
   719     0008                     	;# 
   720     0009                     	;# 
   721     000A                     	;# 
   722     000B                     	;# 
   723     000C                     	;# 
   724     000D                     	;# 
   725     000E                     	;# 
   726     000E                     	;# 
   727     000F                     	;# 
   728     0010                     	;# 
   729     0011                     	;# 
   730     0012                     	;# 
   731     0013                     	;# 
   732     0014                     	;# 
   733     0015                     	;# 
   734     0015                     	;# 
   735     0016                     	;# 
   736     0017                     	;# 
   737     0018                     	;# 
   738     0019                     	;# 
   739     001A                     	;# 
   740     001B                     	;# 
   741     001B                     	;# 
   742     001C                     	;# 
   743     001D                     	;# 
   744     001E                     	;# 
   745     001F                     	;# 
   746     0081                     	;# 
   747     0085                     	;# 
   748     0086                     	;# 
   749     0087                     	;# 
   750     0088                     	;# 
   751     0089                     	;# 
   752     008C                     	;# 
   753     008D                     	;# 
   754     008E                     	;# 
   755     0091                     	;# 
   756     0092                     	;# 
   757     0093                     	;# 
   758     0094                     	;# 
   759     0098                     	;# 
   760     0099                     	;# 
   761     009C                     	;# 
   762     009D                     	;# 
   763     009E                     	;# 
   764     009F                     	;# 
   765     010C                     	;# 
   766     010D                     	;# 
   767     010E                     	;# 
   768     010F                     	;# 
   769     018C                     	;# 
   770     018D                     	;# 
   771     0000                     	;# 
   772     0001                     	;# 
   773     0002                     	;# 
   774     0003                     	;# 
   775     0004                     	;# 
   776     0005                     	;# 
   777     0006                     	;# 
   778     0007                     	;# 
   779     0008                     	;# 
   780     0009                     	;# 
   781     000A                     	;# 
   782     000B                     	;# 
   783     000C                     	;# 
   784     000D                     	;# 
   785     000E                     	;# 
   786     000E                     	;# 
   787     000F                     	;# 
   788     0010                     	;# 
   789     0011                     	;# 
   790     0012                     	;# 
   791     0013                     	;# 
   792     0014                     	;# 
   793     0015                     	;# 
   794     0015                     	;# 
   795     0016                     	;# 
   796     0017                     	;# 
   797     0018                     	;# 
   798     0019                     	;# 
   799     001A                     	;# 
   800     001B                     	;# 
   801     001B                     	;# 
   802     001C                     	;# 
   803     001D                     	;# 
   804     001E                     	;# 
   805     001F                     	;# 
   806     0081                     	;# 
   807     0085                     	;# 
   808     0086                     	;# 
   809     0087                     	;# 
   810     0088                     	;# 
   811     0089                     	;# 
   812     008C                     	;# 
   813     008D                     	;# 
   814     008E                     	;# 
   815     0091                     	;# 
   816     0092                     	;# 
   817     0093                     	;# 
   818     0094                     	;# 
   819     0098                     	;# 
   820     0099                     	;# 
   821     009C                     	;# 
   822     009D                     	;# 
   823     009E                     	;# 
   824     009F                     	;# 
   825     010C                     	;# 
   826     010D                     	;# 
   827     010E                     	;# 
   828     010F                     	;# 
   829     018C                     	;# 
   830     018D                     	;# 
   831                           
   832                           	psect	idataCOMMON
   833     1ECD                     __pidataCOMMON:
   834                           
   835                           ;initializer for detect_single_press@prev_key
   836     1ECD  343F               	retlw	63
   837                           
   838                           ;initializer for read_digital_keypad@once
   839     1ECE  3401               	retlw	1
   840                           
   841                           	psect	idataBANK0
   842     0003                     __pidataBANK0:
   843                           
   844                           ;initializer for _dash_mode
   845     0003  3401               	retlw	1
   846                           
   847                           	psect	idataBANK1
   848     1F2D                     __pidataBANK1:
   849                           
   850                           ;initializer for _event
   851     1F2D  34C6               	retlw	low (STR_1| (0+32768))
   852     1F2E  3487               	retlw	high (STR_1| (0+32768))
   853     1F2F  34C3               	retlw	low (STR_2| (0+32768))
   854     1F30  3487               	retlw	high (STR_2| (0+32768))
   855     1F31  34B7               	retlw	low (STR_3| (0+32768))
   856     1F32  3487               	retlw	high (STR_3| (0+32768))
   857     1F33  34BA               	retlw	low (STR_4| (0+32768))
   858     1F34  3487               	retlw	high (STR_4| (0+32768))
   859     1F35  34BD               	retlw	low (STR_5| (0+32768))
   860     1F36  3487               	retlw	high (STR_5| (0+32768))
   861     1F37  34C0               	retlw	low (STR_6| (0+32768))
   862     1F38  3487               	retlw	high (STR_6| (0+32768))
   863     1F39  34C9               	retlw	low (STR_7| (0+32768))
   864     1F3A  3487               	retlw	high (STR_7| (0+32768))
   865     1F3B  34B4               	retlw	low (STR_8| (0+32768))
   866     1F3C  3487               	retlw	high (STR_8| (0+32768))
   867     0019                     _TXREG	set	25
   868     001A                     _RCREG	set	26
   869     0001                     _TMR0	set	1
   870     0006                     _PORTB	set	6
   871     001E                     _ADRESH	set	30
   872     001F                     _ADCON0	set	31
   873     0013                     _SSPBUF	set	19
   874     0008                     _PORTD	set	8
   875     0064                     _TXIF	set	100
   876     0065                     _RCIF	set	101
   877     00C4                     _CREN	set	196
   878     00C7                     _SPEN	set	199
   879     005A                     _TMR0IF	set	90
   880     00FA                     _nDONE	set	250
   881     00FA                     _GO	set	250
   882     00F8                     _ADON	set	248
   883     005D                     _TMR0IE	set	93
   884     005E                     _PEIE	set	94
   885     005F                     _GIE	set	95
   886     00A5                     _SSPEN	set	165
   887     00A3                     _SSPM3	set	163
   888     0049                     _RE1	set	73
   889     004A                     _RE2	set	74
   890     0099                     _SPBRG	set	153
   891     0086                     _TRISB	set	134
   892     009E                     _ADRESL	set	158
   893     0091                     _SSPCON2	set	145
   894     0093                     _SSPADD	set	147
   895     0088                     _TRISD	set	136
   896     040B                     _PSA	set	1035
   897     040D                     _T0CS	set	1037
   898     04FF                     _ADFM	set	1279
   899     048E                     _ACKSTAT	set	1166
   900     048C                     _ACKEN	set	1164
   901     048D                     _ACKDT	set	1165
   902     048B                     _RCEN	set	1163
   903     048A                     _PEN	set	1162
   904     0488                     _SEN	set	1160
   905     04A2                     _R_nW	set	1186
   906     0449                     _TRISE1	set	1097
   907     044A                     _TRISE2	set	1098
   908                           
   909                           	psect	strings
   910     05EE                     __pstrings:
   911     05EE                     stringtab:
   912     05EE                     __stringtab:
   913                           
   914                           ;	String table - string pointers are 2 bytes each
   915     05EE  1BFF               	btfsc	btemp+1,7
   916     05EF  2DF8               	ljmp	stringcode
   917     05F0  1383               	bcf	3,7
   918     05F1  187F               	btfsc	btemp+1,0
   919     05F2  1783               	bsf	3,7
   920     05F3  0800               	movf	0,w
   921     05F4  0A84               	incf	4,f
   922     05F5  1903               	skipnz
   923     05F6  0AFF               	incf	btemp+1,f
   924     05F7  0008               	return
   925     05F8                     stringcode:
   926     05F8  087F               	movf	btemp+1,w
   927     05F9  397F               	andlw	127
   928     05FA  008A               	movwf	10
   929     05FB  0804               	movf	4,w
   930     05FC  0A84               	incf	4,f
   931     05FD  1903               	skipnz
   932     05FE  0AFF               	incf	btemp+1,f
   933     05FF  0082               	movwf	2
   934     0600                     __stringbase:
   935     0600                     __end_of__stringtab:
   936                           
   937                           	psect	stringtext
   938     0600                     __pstringtext:
   939     0600                     STR_38:
   940     0600  3453               	retlw	83	;'S'
   941     0601  3452               	retlw	82	;'R'
   942     0602  342E               	retlw	46	;'.'
   943     0603  346E               	retlw	110	;'n'
   944     0604  346F               	retlw	111	;'o'
   945     0605  342E               	retlw	46	;'.'
   946     0606  3420               	retlw	32	;' '
   947     0607  3420               	retlw	32	;' '
   948     0608  3454               	retlw	84	;'T'
   949     0609  3469               	retlw	105	;'i'
   950     060A  346D               	retlw	109	;'m'
   951     060B  3465               	retlw	101	;'e'
   952     060C  3420               	retlw	32	;' '
   953     060D  3420               	retlw	32	;' '
   954     060E  3420               	retlw	32	;' '
   955     060F  3420               	retlw	32	;' '
   956     0610  3420               	retlw	32	;' '
   957     0611  3420               	retlw	32	;' '
   958     0612  3447               	retlw	71	;'G'
   959     0613  3465               	retlw	101	;'e'
   960     0614  3461               	retlw	97	;'a'
   961     0615  3472               	retlw	114	;'r'
   962     0616  3420               	retlw	32	;' '
   963     0617  3420               	retlw	32	;' '
   964     0618  3453               	retlw	83	;'S'
   965     0619  3470               	retlw	112	;'p'
   966     061A  3465               	retlw	101	;'e'
   967     061B  3465               	retlw	101	;'e'
   968     061C  3464               	retlw	100	;'d'
   969     061D  340A               	retlw	10
   970     061E  340D               	retlw	13
   971     061F  3400               	retlw	0
   972     0620                     STR_42:
   973     0620  344C               	retlw	76	;'L'
   974     0621  346F               	retlw	111	;'o'
   975     0622  3467               	retlw	103	;'g'
   976     0623  3420               	retlw	32	;' '
   977     0624  3464               	retlw	100	;'d'
   978     0625  346F               	retlw	111	;'o'
   979     0626  3477               	retlw	119	;'w'
   980     0627  346E               	retlw	110	;'n'
   981     0628  346C               	retlw	108	;'l'
   982     0629  346F               	retlw	111	;'o'
   983     062A  3461               	retlw	97	;'a'
   984     062B  3464               	retlw	100	;'d'
   985     062C  3420               	retlw	32	;' '
   986     062D  3463               	retlw	99	;'c'
   987     062E  346F               	retlw	111	;'o'
   988     062F  346D               	retlw	109	;'m'
   989     0630  3470               	retlw	112	;'p'
   990     0631  346C               	retlw	108	;'l'
   991     0632  3465               	retlw	101	;'e'
   992     0633  3474               	retlw	116	;'t'
   993     0634  3465               	retlw	101	;'e'
   994     0635  342E               	retlw	46	;'.'
   995     0636  340D               	retlw	13
   996     0637  340A               	retlw	10
   997     0638  3400               	retlw	0
   998     0639                     STR_31:
   999     0639  3420               	retlw	32	;' '
  1000     063A  3420               	retlw	32	;' '
  1001     063B  3420               	retlw	32	;' '
  1002     063C  3420               	retlw	32	;' '
  1003     063D  3420               	retlw	32	;' '
  1004     063E  3420               	retlw	32	;' '
  1005     063F  3420               	retlw	32	;' '
  1006     0640  3420               	retlw	32	;' '
  1007     0641  3420               	retlw	32	;' '
  1008     0642  3420               	retlw	32	;' '
  1009     0643  3420               	retlw	32	;' '
  1010     0644  3420               	retlw	32	;' '
  1011     0645  3420               	retlw	32	;' '
  1012     0646  3420               	retlw	32	;' '
  1013     0647  3420               	retlw	32	;' '
  1014     0648  3420               	retlw	32	;' '
  1015     0649  3400               	retlw	0
  1016     064A                     STR_30:
  1017     064A  3420               	retlw	32	;' '
  1018     064B  3445               	retlw	69	;'E'
  1019     064C  346E               	retlw	110	;'n'
  1020     064D  3474               	retlw	116	;'t'
  1021     064E  3465               	retlw	101	;'e'
  1022     064F  3472               	retlw	114	;'r'
  1023     0650  3420               	retlw	32	;' '
  1024     0651  3450               	retlw	80	;'P'
  1025     0652  3461               	retlw	97	;'a'
  1026     0653  3473               	retlw	115	;'s'
  1027     0654  3473               	retlw	115	;'s'
  1028     0655  3477               	retlw	119	;'w'
  1029     0656  346F               	retlw	111	;'o'
  1030     0657  3472               	retlw	114	;'r'
  1031     0658  3464               	retlw	100	;'d'
  1032     0659  3420               	retlw	32	;' '
  1033     065A  3400               	retlw	0
  1034     065B                     STR_14:
  1035     065B  3420               	retlw	32	;' '
  1036     065C  3420               	retlw	32	;' '
  1037     065D  3454               	retlw	84	;'T'
  1038     065E  3449               	retlw	73	;'I'
  1039     065F  344D               	retlw	77	;'M'
  1040     0660  3445               	retlw	69	;'E'
  1041     0661  3420               	retlw	32	;' '
  1042     0662  3420               	retlw	32	;' '
  1043     0663  3420               	retlw	32	;' '
  1044     0664  3420               	retlw	32	;' '
  1045     0665  3445               	retlw	69	;'E'
  1046     0666  3456               	retlw	86	;'V'
  1047     0667  3420               	retlw	32	;' '
  1048     0668  3420               	retlw	32	;' '
  1049     0669  3453               	retlw	83	;'S'
  1050     066A  3450               	retlw	80	;'P'
  1051     066B  3400               	retlw	0
  1052     066C                     STR_27:
  1053     066C  3423               	retlw	35	;'#'
  1054     066D  3420               	retlw	32	;' '
  1055     066E  3454               	retlw	84	;'T'
  1056     066F  3449               	retlw	73	;'I'
  1057     0670  344D               	retlw	77	;'M'
  1058     0671  3445               	retlw	69	;'E'
  1059     0672  3420               	retlw	32	;' '
  1060     0673  3420               	retlw	32	;' '
  1061     0674  3420               	retlw	32	;' '
  1062     0675  3420               	retlw	32	;' '
  1063     0676  3420               	retlw	32	;' '
  1064     0677  3445               	retlw	69	;'E'
  1065     0678  3456               	retlw	86	;'V'
  1066     0679  3420               	retlw	32	;' '
  1067     067A  3453               	retlw	83	;'S'
  1068     067B  3450               	retlw	80	;'P'
  1069     067C  3400               	retlw	0
  1070     067D                     STR_32:
  1071     067D  3452               	retlw	82	;'R'
  1072     067E  3465               	retlw	101	;'e'
  1073     067F  3445               	retlw	69	;'E'
  1074     0680  346E               	retlw	110	;'n'
  1075     0681  3474               	retlw	116	;'t'
  1076     0682  3465               	retlw	101	;'e'
  1077     0683  3472               	retlw	114	;'r'
  1078     0684  3420               	retlw	32	;' '
  1079     0685  3450               	retlw	80	;'P'
  1080     0686  3461               	retlw	97	;'a'
  1081     0687  3473               	retlw	115	;'s'
  1082     0688  3473               	retlw	115	;'s'
  1083     0689  3477               	retlw	119	;'w'
  1084     068A  346F               	retlw	111	;'o'
  1085     068B  3472               	retlw	114	;'r'
  1086     068C  3464               	retlw	100	;'d'
  1087     068D  3400               	retlw	0
  1088     068E                     STR_54:
  1089     068E  3443               	retlw	67	;'C'
  1090     068F  346F               	retlw	111	;'o'
  1091     0690  3472               	retlw	114	;'r'
  1092     0691  3472               	retlw	114	;'r'
  1093     0692  3465               	retlw	101	;'e'
  1094     0693  3463               	retlw	99	;'c'
  1095     0694  3474               	retlw	116	;'t'
  1096     0695  3420               	retlw	32	;' '
  1097     0696  3470               	retlw	112	;'p'
  1098     0697  3461               	retlw	97	;'a'
  1099     0698  3473               	retlw	115	;'s'
  1100     0699  3473               	retlw	115	;'s'
  1101     069A  3477               	retlw	119	;'w'
  1102     069B  346F               	retlw	111	;'o'
  1103     069C  3472               	retlw	114	;'r'
  1104     069D  3464               	retlw	100	;'d'
  1105     069E  3400               	retlw	0
  1106     069F                     STR_9:
  1107     069F  3455               	retlw	85	;'U'
  1108     06A0  3441               	retlw	65	;'A'
  1109     06A1  3452               	retlw	82	;'R'
  1110     06A2  3454               	retlw	84	;'T'
  1111     06A3  3420               	retlw	32	;' '
  1112     06A4  3454               	retlw	84	;'T'
  1113     06A5  3465               	retlw	101	;'e'
  1114     06A6  3473               	retlw	115	;'s'
  1115     06A7  3474               	retlw	116	;'t'
  1116     06A8  3420               	retlw	32	;' '
  1117     06A9  3443               	retlw	67	;'C'
  1118     06AA  346F               	retlw	111	;'o'
  1119     06AB  3464               	retlw	100	;'d'
  1120     06AC  3465               	retlw	101	;'e'
  1121     06AD  340A               	retlw	10
  1122     06AE  340D               	retlw	13
  1123     06AF  3400               	retlw	0
  1124     06B0                     STR_55:
  1125     06B0  3457               	retlw	87	;'W'
  1126     06B1  3472               	retlw	114	;'r'
  1127     06B2  346F               	retlw	111	;'o'
  1128     06B3  346E               	retlw	110	;'n'
  1129     06B4  3467               	retlw	103	;'g'
  1130     06B5  3420               	retlw	32	;' '
  1131     06B6  3470               	retlw	112	;'p'
  1132     06B7  3461               	retlw	97	;'a'
  1133     06B8  3473               	retlw	115	;'s'
  1134     06B9  3473               	retlw	115	;'s'
  1135     06BA  3477               	retlw	119	;'w'
  1136     06BB  346F               	retlw	111	;'o'
  1137     06BC  3472               	retlw	114	;'r'
  1138     06BD  3464               	retlw	100	;'d'
  1139     06BE  3420               	retlw	32	;' '
  1140     06BF  3400               	retlw	0
  1141     06C0                     STR_43:
  1142     06C0  3454               	retlw	84	;'T'
  1143     06C1  3469               	retlw	105	;'i'
  1144     06C2  346D               	retlw	109	;'m'
  1145     06C3  3465               	retlw	101	;'e'
  1146     06C4  3420               	retlw	32	;' '
  1147     06C5  3428               	retlw	40	;'('
  1148     06C6  3448               	retlw	72	;'H'
  1149     06C7  3448               	retlw	72	;'H'
  1150     06C8  343A               	retlw	58	;':'
  1151     06C9  344D               	retlw	77	;'M'
  1152     06CA  344D               	retlw	77	;'M'
  1153     06CB  343A               	retlw	58	;':'
  1154     06CC  3453               	retlw	83	;'S'
  1155     06CD  3453               	retlw	83	;'S'
  1156     06CE  3429               	retlw	41	;')'
  1157     06CF  3400               	retlw	0
  1158     06D0                     STR_50:
  1159     06D0  346C               	retlw	108	;'l'
  1160     06D1  346F               	retlw	111	;'o'
  1161     06D2  3467               	retlw	103	;'g'
  1162     06D3  3473               	retlw	115	;'s'
  1163     06D4  3420               	retlw	32	;' '
  1164     06D5  3464               	retlw	100	;'d'
  1165     06D6  346F               	retlw	111	;'o'
  1166     06D7  3477               	retlw	119	;'w'
  1167     06D8  346E               	retlw	110	;'n'
  1168     06D9  346C               	retlw	108	;'l'
  1169     06DA  346F               	retlw	111	;'o'
  1170     06DB  3461               	retlw	97	;'a'
  1171     06DC  3464               	retlw	100	;'d'
  1172     06DD  3465               	retlw	101	;'e'
  1173     06DE  3464               	retlw	100	;'d'
  1174     06DF  3400               	retlw	0
  1175     06E0                     STR_57:
  1176     06E0  3420               	retlw	32	;' '
  1177     06E1  3461               	retlw	97	;'a'
  1178     06E2  3474               	retlw	116	;'t'
  1179     06E3  3474               	retlw	116	;'t'
  1180     06E4  3465               	retlw	101	;'e'
  1181     06E5  346D               	retlw	109	;'m'
  1182     06E6  3470               	retlw	112	;'p'
  1183     06E7  3474               	retlw	116	;'t'
  1184     06E8  3473               	retlw	115	;'s'
  1185     06E9  3420               	retlw	32	;' '
  1186     06EA  346C               	retlw	108	;'l'
  1187     06EB  3465               	retlw	101	;'e'
  1188     06EC  3466               	retlw	102	;'f'
  1189     06ED  3474               	retlw	116	;'t'
  1190     06EE  3400               	retlw	0
  1191     06EF                     STR_22:
  1192     06EF  3452               	retlw	82	;'R'
  1193     06F0  3465               	retlw	101	;'e'
  1194     06F1  3473               	retlw	115	;'s'
  1195     06F2  3465               	retlw	101	;'e'
  1196     06F3  3474               	retlw	116	;'t'
  1197     06F4  3420               	retlw	32	;' '
  1198     06F5  3454               	retlw	84	;'T'
  1199     06F6  3469               	retlw	105	;'i'
  1200     06F7  346D               	retlw	109	;'m'
  1201     06F8  3465               	retlw	101	;'e'
  1202     06F9  3420               	retlw	32	;' '
  1203     06FA  3420               	retlw	32	;' '
  1204     06FB  3420               	retlw	32	;' '
  1205     06FC  3400               	retlw	0
  1206     06FD                     STR_49:
  1207     06FD  346C               	retlw	108	;'l'
  1208     06FE  346F               	retlw	111	;'o'
  1209     06FF  3467               	retlw	103	;'g'
  1210     0700  3473               	retlw	115	;'s'
  1211     0701  3420               	retlw	32	;' '
  1212     0702  3463               	retlw	99	;'c'
  1213     0703  346C               	retlw	108	;'l'
  1214     0704  3465               	retlw	101	;'e'
  1215     0705  3461               	retlw	97	;'a'
  1216     0706  3472               	retlw	114	;'r'
  1217     0707  3465               	retlw	101	;'e'
  1218     0708  3464               	retlw	100	;'d'
  1219     0709  3420               	retlw	32	;' '
  1220     070A  3400               	retlw	0
  1221     070B                     STR_18:
  1222     070B  3444               	retlw	68	;'D'
  1223     070C  346F               	retlw	111	;'o'
  1224     070D  3477               	retlw	119	;'w'
  1225     070E  346E               	retlw	110	;'n'
  1226     070F  346C               	retlw	108	;'l'
  1227     0710  346F               	retlw	111	;'o'
  1228     0711  3461               	retlw	97	;'a'
  1229     0712  3464               	retlw	100	;'d'
  1230     0713  3420               	retlw	32	;' '
  1231     0714  346C               	retlw	108	;'l'
  1232     0715  346F               	retlw	111	;'o'
  1233     0716  3467               	retlw	103	;'g'
  1234     0717  3420               	retlw	32	;' '
  1235     0718  3400               	retlw	0
  1236     0719                     STR_20:
  1237     0719  3452               	retlw	82	;'R'
  1238     071A  3465               	retlw	101	;'e'
  1239     071B  3473               	retlw	115	;'s'
  1240     071C  3474               	retlw	116	;'t'
  1241     071D  3420               	retlw	32	;' '
  1242     071E  3450               	retlw	80	;'P'
  1243     071F  3461               	retlw	97	;'a'
  1244     0720  3473               	retlw	115	;'s'
  1245     0721  3473               	retlw	115	;'s'
  1246     0722  3477               	retlw	119	;'w'
  1247     0723  346F               	retlw	111	;'o'
  1248     0724  3472               	retlw	114	;'r'
  1249     0725  3464               	retlw	100	;'d'
  1250     0726  3400               	retlw	0
  1251     0727                     STR_12:
  1252     0727  3456               	retlw	86	;'V'
  1253     0728  3469               	retlw	105	;'i'
  1254     0729  3465               	retlw	101	;'e'
  1255     072A  3477               	retlw	119	;'w'
  1256     072B  3420               	retlw	32	;' '
  1257     072C  344C               	retlw	76	;'L'
  1258     072D  346F               	retlw	111	;'o'
  1259     072E  3467               	retlw	103	;'g'
  1260     072F  3473               	retlw	115	;'s'
  1261     0730  3420               	retlw	32	;' '
  1262     0731  3420               	retlw	32	;' '
  1263     0732  3420               	retlw	32	;' '
  1264     0733  3420               	retlw	32	;' '
  1265     0734  3400               	retlw	0
  1266     0735                     STR_13:
  1267     0735  3443               	retlw	67	;'C'
  1268     0736  346C               	retlw	108	;'l'
  1269     0737  3465               	retlw	101	;'e'
  1270     0738  3461               	retlw	97	;'a'
  1271     0739  3472               	retlw	114	;'r'
  1272     073A  3420               	retlw	32	;' '
  1273     073B  344C               	retlw	76	;'L'
  1274     073C  346F               	retlw	111	;'o'
  1275     073D  3467               	retlw	103	;'g'
  1276     073E  3473               	retlw	115	;'s'
  1277     073F  3420               	retlw	32	;' '
  1278     0740  3420               	retlw	32	;' '
  1279     0741  3420               	retlw	32	;' '
  1280     0742  3400               	retlw	0
  1281     0743                     STR_44:
  1282     0743  3454               	retlw	84	;'T'
  1283     0744  3469               	retlw	105	;'i'
  1284     0745  346D               	retlw	109	;'m'
  1285     0746  3465               	retlw	101	;'e'
  1286     0747  3420               	retlw	32	;' '
  1287     0748  3463               	retlw	99	;'c'
  1288     0749  3468               	retlw	104	;'h'
  1289     074A  3461               	retlw	97	;'a'
  1290     074B  346E               	retlw	110	;'n'
  1291     074C  3467               	retlw	103	;'g'
  1292     074D  3465               	retlw	101	;'e'
  1293     074E  3464               	retlw	100	;'d'
  1294     074F  3400               	retlw	0
  1295     0750                     STR_45:
  1296     0750  3453               	retlw	83	;'S'
  1297     0751  3475               	retlw	117	;'u'
  1298     0752  3463               	retlw	99	;'c'
  1299     0753  3463               	retlw	99	;'c'
  1300     0754  3465               	retlw	101	;'e'
  1301     0755  3473               	retlw	115	;'s'
  1302     0756  3473               	retlw	115	;'s'
  1303     0757  3466               	retlw	102	;'f'
  1304     0758  3475               	retlw	117	;'u'
  1305     0759  346C               	retlw	108	;'l'
  1306     075A  346C               	retlw	108	;'l'
  1307     075B  3479               	retlw	121	;'y'
  1308     075C  3400               	retlw	0
  1309     075D                     STR_51:
  1310     075D  3473               	retlw	115	;'s'
  1311     075E  3475               	retlw	117	;'u'
  1312     075F  3463               	retlw	99	;'c'
  1313     0760  3463               	retlw	99	;'c'
  1314     0761  3465               	retlw	101	;'e'
  1315     0762  3473               	retlw	115	;'s'
  1316     0763  3473               	retlw	115	;'s'
  1317     0764  3466               	retlw	102	;'f'
  1318     0765  3475               	retlw	117	;'u'
  1319     0766  346C               	retlw	108	;'l'
  1320     0767  346C               	retlw	108	;'l'
  1321     0768  3479               	retlw	121	;'y'
  1322     0769  3400               	retlw	0
  1323     076A                     STR_34:
  1324     076A  3450               	retlw	80	;'P'
  1325     076B  3461               	retlw	97	;'a'
  1326     076C  3473               	retlw	115	;'s'
  1327     076D  3473               	retlw	115	;'s'
  1328     076E  3477               	retlw	119	;'w'
  1329     076F  346F               	retlw	111	;'o'
  1330     0770  3472               	retlw	114	;'r'
  1331     0771  3464               	retlw	100	;'d'
  1332     0772  3420               	retlw	32	;' '
  1333     0773  3469               	retlw	105	;'i'
  1334     0774  3473               	retlw	115	;'s'
  1335     0775  3400               	retlw	0
  1336     0776                     STR_29:
  1337     0776  3461               	retlw	97	;'a'
  1338     0777  3472               	retlw	114	;'r'
  1339     0778  3465               	retlw	101	;'e'
  1340     0779  3420               	retlw	32	;' '
  1341     077A  3466               	retlw	102	;'f'
  1342     077B  346F               	retlw	111	;'o'
  1343     077C  3475               	retlw	117	;'u'
  1344     077D  346E               	retlw	110	;'n'
  1345     077E  3464               	retlw	100	;'d'
  1346     077F  3421               	retlw	33	;'!'
  1347     0780  3400               	retlw	0
  1348     0781                     STR_28:
  1349     0781  3420               	retlw	32	;' '
  1350     0782  344E               	retlw	78	;'N'
  1351     0783  346F               	retlw	111	;'o'
  1352     0784  3420               	retlw	32	;' '
  1353     0785  346C               	retlw	108	;'l'
  1354     0786  346F               	retlw	111	;'o'
  1355     0787  3467               	retlw	103	;'g'
  1356     0788  3473               	retlw	115	;'s'
  1357     0789  3420               	retlw	32	;' '
  1358     078A  3400               	retlw	0
  1359     078B                     STR_37:
  1360     078B  344D               	retlw	77	;'M'
  1361     078C  3469               	retlw	105	;'i'
  1362     078D  3473               	retlw	115	;'s'
  1363     078E  346D               	retlw	109	;'m'
  1364     078F  3461               	retlw	97	;'a'
  1365     0790  3474               	retlw	116	;'t'
  1366     0791  3463               	retlw	99	;'c'
  1367     0792  3468               	retlw	104	;'h'
  1368     0793  3400               	retlw	0
  1369     0794                     STR_10:
  1370     0794  3457               	retlw	87	;'W'
  1371     0795  3461               	retlw	97	;'a'
  1372     0796  3469               	retlw	105	;'i'
  1373     0797  3474               	retlw	116	;'t'
  1374     0798  3420               	retlw	32	;' '
  1375     0799  3446               	retlw	70	;'F'
  1376     079A  346F               	retlw	111	;'o'
  1377     079B  3472               	retlw	114	;'r'
  1378     079C  3400               	retlw	0
  1379     079D                     STR_39:
  1380     079D  342E               	retlw	46	;'.'
  1381     079E  3420               	retlw	32	;' '
  1382     079F  3420               	retlw	32	;' '
  1383     07A0  3420               	retlw	32	;' '
  1384     07A1  3420               	retlw	32	;' '
  1385     07A2  3420               	retlw	32	;' '
  1386     07A3  3420               	retlw	32	;' '
  1387     07A4  3400               	retlw	0
  1388     07A5                     STR_35:
  1389     07A5  3443               	retlw	67	;'C'
  1390     07A6  3468               	retlw	104	;'h'
  1391     07A7  3461               	retlw	97	;'a'
  1392     07A8  346E               	retlw	110	;'n'
  1393     07A9  3467               	retlw	103	;'g'
  1394     07AA  3465               	retlw	101	;'e'
  1395     07AB  3464               	retlw	100	;'d'
  1396     07AC  3400               	retlw	0
  1397     07AD                     STR_11:
  1398     07AD  3473               	retlw	115	;'s'
  1399     07AE  3465               	retlw	101	;'e'
  1400     07AF  3463               	retlw	99	;'c'
  1401     07B0  342E               	retlw	46	;'.'
  1402     07B1  342E               	retlw	46	;'.'
  1403     07B2  342E               	retlw	46	;'.'
  1404     07B3  3400               	retlw	0
  1405     07B4                     STR_8:
  1406     07B4  3443               	retlw	67	;'C'
  1407     07B5  3420               	retlw	32	;' '
  1408     07B6  3400               	retlw	0
  1409     07B7                     STR_3:
  1410     07B7  3447               	retlw	71	;'G'
  1411     07B8  3431               	retlw	49	;'1'
  1412     07B9  3400               	retlw	0
  1413     07BA                     STR_4:
  1414     07BA  3447               	retlw	71	;'G'
  1415     07BB  3432               	retlw	50	;'2'
  1416     07BC  3400               	retlw	0
  1417     07BD                     STR_5:
  1418     07BD  3447               	retlw	71	;'G'
  1419     07BE  3433               	retlw	51	;'3'
  1420     07BF  3400               	retlw	0
  1421     07C0                     STR_6:
  1422     07C0  3447               	retlw	71	;'G'
  1423     07C1  3434               	retlw	52	;'4'
  1424     07C2  3400               	retlw	0
  1425     07C3                     STR_2:
  1426     07C3  3447               	retlw	71	;'G'
  1427     07C4  344E               	retlw	78	;'N'
  1428     07C5  3400               	retlw	0
  1429     07C6                     STR_1:
  1430     07C6  344F               	retlw	79	;'O'
  1431     07C7  344E               	retlw	78	;'N'
  1432     07C8  3400               	retlw	0
  1433     07C9                     STR_7:
  1434     07C9  3447               	retlw	71	;'G'
  1435     07CA  3452               	retlw	82	;'R'
  1436     07CB  3400               	retlw	0
  1437     07CC                     STR_23:
  1438     07CC  342A               	retlw	42	;'*'
  1439     07CD  3400               	retlw	0
  1440     0648                     
  1441                           	psect	cinit
  1442     000F                     start_initialization:	
  1443                           ; #config settings
  1444                           
  1445     000F                     __initialization:
  1446                           
  1447                           ; Initialize objects allocated to BANK1
  1448     000F  1383               	bcf	3,7	;select IRP bank0
  1449     0010  30D2               	movlw	low (__pdataBANK1+16)
  1450     0011  00FD               	movwf	btemp+-1
  1451     0012  301F               	movlw	high __pidataBANK1
  1452     0013  00FE               	movwf	btemp
  1453     0014  302D               	movlw	low __pidataBANK1
  1454     0015  00FF               	movwf	btemp+1
  1455     0016  30C2               	movlw	low __pdataBANK1
  1456     0017  0084               	movwf	4
  1457     0018  160A  158A  2754  120A  118A  	fcall	init_ram0
  1458                           
  1459                           ; Initialize objects allocated to BANK0
  1460     001D  120A  118A  2003  120A  118A  	fcall	__pidataBANK0	;fetch initializer
  1461     0022  00EC               	movwf	__pdataBANK0& (0+127)
  1462                           
  1463                           ; Initialize objects allocated to COMMON
  1464     0023  160A  158A  26CD  120A  118A  	fcall	__pidataCOMMON	;fetch initializer
  1465     0028  00FA               	movwf	__pdataCOMMON& (0+127)
  1466     0029  160A  158A  26CE  120A  118A  	fcall	__pidataCOMMON+1	;fetch initializer
  1467     002E  00FB               	movwf	(__pdataCOMMON+1)& (0+127)
  1468                           
  1469                           ; Clear objects allocated to BANK1
  1470     002F  30A0               	movlw	low __pbssBANK1
  1471     0030  0084               	movwf	4
  1472     0031  30C2               	movlw	low (__pbssBANK1+34)
  1473     0032  160A  158A  26DC  120A  118A  	fcall	clear_ram0
  1474                           
  1475                           ; Clear objects allocated to BANK0
  1476     0037  3063               	movlw	low __pbssBANK0
  1477     0038  0084               	movwf	4
  1478     0039  306C               	movlw	low (__pbssBANK0+9)
  1479     003A  160A  158A  26DC  120A  118A  	fcall	clear_ram0
  1480     003F                     end_of_initialization:	
  1481                           ;End of C runtime variable initialization code
  1482                           
  1483     003F                     __end_of__initialization:
  1484     003F  0183               	clrf	3
  1485     0040  120A  158A  280C   	ljmp	_main	;jump to C main() function
  1486                           
  1487                           	psect	dataCOMMON
  1488     007A                     __pdataCOMMON:
  1489     007A                     detect_single_press@prev_key:
  1490     007A                     	ds	1
  1491     007B                     read_digital_keypad@once:
  1492     007B                     	ds	1
  1493                           
  1494                           	psect	bssBANK0
  1495     0063                     __pbssBANK0:
  1496     0063                     _log_counter:
  1497     0063                     	ds	2
  1498     0065                     _block:
  1499     0065                     	ds	2
  1500     0067                     _i:
  1501     0067                     	ds	2
  1502     0069                     handle_menu_navigation@sw6_pressed:
  1503     0069                     	ds	1
  1504     006A                     handle_menu_navigation@sw5_pressed:
  1505     006A                     	ds	1
  1506     006B                     _prekey:
  1507     006B                     	ds	1
  1508                           
  1509                           	psect	dataBANK0
  1510     006C                     __pdataBANK0:
  1511     006C                     _dash_mode:
  1512     006C                     	ds	1
  1513                           
  1514                           	psect	bssBANK1
  1515     00A0                     __pbssBANK1:
  1516     00A0                     enter_password@F1301:
  1517     00A0                     	ds	5
  1518     00A5                     handle_menu_navigation@sw6_timer:
  1519     00A5                     	ds	2
  1520     00A7                     handle_menu_navigation@sw5_timer:
  1521     00A7                     	ds	2
  1522     00A9                     isr@count:
  1523     00A9                     	ds	2
  1524     00AB                     _clear_flag:
  1525     00AB                     	ds	2
  1526     00AD                     _testing_flag:
  1527     00AD                     	ds	1
  1528     00AE                     _time:
  1529     00AE                     	ds	9
  1530     00B7                     _pass:
  1531     00B7                     	ds	5
  1532     00BC                     _speed:
  1533     00BC                     	ds	3
  1534     00BF                     _clock_reg:
  1535     00BF                     	ds	3
  1536                           
  1537                           	psect	dataBANK1
  1538     00C2                     __pdataBANK1:
  1539     00C2                     _event:
  1540     00C2                     	ds	16
  1541                           
  1542                           	psect	inittext
  1543     1F50                     init_fetch0:	
  1544                           ;	Called with low address in FSR and high address in W
  1545                           
  1546     1F50  087E               	movf	btemp,w
  1547     1F51  008A               	movwf	10
  1548     1F52  087F               	movf	btemp+1,w
  1549     1F53  0082               	movwf	2
  1550     1F54                     init_ram0:	
  1551                           ;Called with:
  1552                           ;	high address of idata address in btemp 
  1553                           ;	low address of idata address in btemp+1 
  1554                           ;	low address of data in FSR
  1555                           ;	high address + 1 of data in btemp-1
  1556                           
  1557     1F54  160A  158A  2750  160A  158A  	fcall	init_fetch0
  1558     1F59  0080               	movwf	0
  1559     1F5A  0A84               	incf	4,f
  1560     1F5B  0804               	movf	4,w
  1561     1F5C  067D               	xorwf	btemp+-1,w
  1562     1F5D  1903               	btfsc	3,2
  1563     1F5E  3400               	retlw	0
  1564     1F5F  0AFF               	incf	btemp+1,f
  1565     1F60  1903               	btfsc	3,2
  1566     1F61  0AFE               	incf	btemp,f
  1567     1F62  2F54               	goto	init_ram0
  1568                           
  1569                           	psect	clrtext
  1570     1EDC                     clear_ram0:	
  1571                           ;	Called with FSR containing the base address, and
  1572                           ;	W with the last address+1
  1573                           
  1574     1EDC  0064               	clrwdt	;clear the watchdog before getting into this loop
  1575     1EDD                     clrloop0:
  1576     1EDD  0180               	clrf	0	;clear RAM location pointed to by FSR
  1577     1EDE  0A84               	incf	4,f	;increment pointer
  1578     1EDF  0604               	xorwf	4,w	;XOR with final address
  1579     1EE0  1903               	btfsc	3,2	;have we reached the end yet?
  1580     1EE1  3400               	retlw	0	;all done for this memory range, return
  1581     1EE2  0604               	xorwf	4,w	;XOR again to restore value
  1582     1EE3  2EDD               	goto	clrloop0	;do the next byte
  1583                           
  1584                           	psect	cstackBANK1
  1585     00D2                     __pcstackBANK1:
  1586     00D2                     main@long_press_counter:
  1587                           
  1588                           ; 2 bytes @ 0x0
  1589     00D2                     	ds	2
  1590     00D4                     main@key:
  1591                           
  1592                           ; 1 bytes @ 0x2
  1593     00D4                     	ds	1
  1594     00D5                     main@i:
  1595                           
  1596                           ; 2 bytes @ 0x3
  1597     00D5                     	ds	2
  1598     00D7                     main@attempt:
  1599                           
  1600                           ; 2 bytes @ 0x5
  1601     00D7                     	ds	2
  1602     00D9                     main@down_press:
  1603                           
  1604                           ; 1 bytes @ 0x7
  1605     00D9                     	ds	1
  1606                           
  1607                           	psect	cstackCOMMON
  1608     0070                     __pcstackCOMMON:
  1609     0070                     ?_read_ds1307:
  1610     0070                     ?_i2c_start:	
  1611                           ; 1 bytes @ 0x0
  1612                           
  1613     0070                     ?_i2c_rep_start:	
  1614                           ; 1 bytes @ 0x0
  1615                           
  1616     0070                     ?_i2c_read:	
  1617                           ; 1 bytes @ 0x0
  1618                           
  1619     0070                     ?_i2c_stop:	
  1620                           ; 1 bytes @ 0x0
  1621                           
  1622     0070                     ?_init_adc:	
  1623                           ; 1 bytes @ 0x0
  1624                           
  1625     0070                     ?_init_digital_keypad:	
  1626                           ; 1 bytes @ 0x0
  1627                           
  1628     0070                     ?_init_timer0:	
  1629                           ; 1 bytes @ 0x0
  1630                           
  1631     0070                     ?_read_ext_eeprom:	
  1632                           ; 1 bytes @ 0x0
  1633                           
  1634     0070                     ?_update_dashboard_display:	
  1635                           ; 1 bytes @ 0x0
  1636                           
  1637     0070                     ?_detect_single_press:	
  1638                           ; 1 bytes @ 0x0
  1639                           
  1640     0070                     ?_store_eeprom:	
  1641                           ; 1 bytes @ 0x0
  1642                           
  1643     0070                     ?_enter_menu_option:	
  1644                           ; 1 bytes @ 0x0
  1645                           
  1646     0070                     ?_init_display_controller:	
  1647                           ; 1 bytes @ 0x0
  1648                           
  1649     0070                     ?_init_clcd:	
  1650                           ; 1 bytes @ 0x0
  1651                           
  1652     0070                     ?_init_ds1307:	
  1653                           ; 1 bytes @ 0x0
  1654                           
  1655     0070                     ?_display_time:	
  1656                           ; 1 bytes @ 0x0
  1657                           
  1658     0070                     ?_get_time:	
  1659                           ; 1 bytes @ 0x0
  1660                           
  1661     0070                     ?_i2c_wait_for_idle:	
  1662                           ; 1 bytes @ 0x0
  1663                           
  1664     0070                     ?_init_config:	
  1665                           ; 1 bytes @ 0x0
  1666                           
  1667     0070                     ?_handle_lockout:	
  1668                           ; 1 bytes @ 0x0
  1669                           
  1670     0070                     ?_main:	
  1671                           ; 1 bytes @ 0x0
  1672                           
  1673     0070                     ?_read_digital_keypad:	
  1674                           ; 1 bytes @ 0x0
  1675                           
  1676     0070                     ??_isr:	
  1677                           ; 1 bytes @ 0x0
  1678                           
  1679     0070                     ?_putchar:	
  1680                           ; 1 bytes @ 0x0
  1681                           
  1682     0070                     ?_display_logs:	
  1683                           ; 1 bytes @ 0x0
  1684                           
  1685     0070                     ?_change_pass:	
  1686                           ; 1 bytes @ 0x0
  1687                           
  1688     0070                     ?_download_log:	
  1689                           ; 1 bytes @ 0x0
  1690                           
  1691     0070                     ?_change_time:	
  1692                           ; 1 bytes @ 0x0
  1693                           
  1694     0070                     ?_i2c_write:	
  1695                           ; 1 bytes @ 0x0
  1696                           
  1697     0070                     ?_isr:	
  1698                           ; 2 bytes @ 0x0
  1699                           
  1700                           
  1701                           ; 2 bytes @ 0x0
  1702     0070                     	ds	2
  1703     0072                     ??_i2c_start:
  1704     0072                     ??_i2c_write:	
  1705                           ; 1 bytes @ 0x2
  1706                           
  1707     0072                     ??_i2c_rep_start:	
  1708                           ; 1 bytes @ 0x2
  1709                           
  1710     0072                     ??_i2c_read:	
  1711                           ; 1 bytes @ 0x2
  1712                           
  1713     0072                     ??_i2c_stop:	
  1714                           ; 1 bytes @ 0x2
  1715                           
  1716     0072                     ??_init_adc:	
  1717                           ; 1 bytes @ 0x2
  1718                           
  1719     0072                     ??_init_digital_keypad:	
  1720                           ; 1 bytes @ 0x2
  1721                           
  1722     0072                     ??_init_timer0:	
  1723                           ; 1 bytes @ 0x2
  1724                           
  1725     0072                     ?_strcpy:	
  1726                           ; 1 bytes @ 0x2
  1727                           
  1728     0072                     ?_strncpy:	
  1729                           ; 1 bytes @ 0x2
  1730                           
  1731     0072                     ?_clcd_write:	
  1732                           ; 1 bytes @ 0x2
  1733                           
  1734     0072                     ??_i2c_wait_for_idle:	
  1735                           ; 1 bytes @ 0x2
  1736                           
  1737     0072                     ??_read_digital_keypad:	
  1738                           ; 1 bytes @ 0x2
  1739                           
  1740     0072                     ??_putchar:	
  1741                           ; 1 bytes @ 0x2
  1742                           
  1743     0072                     ?___bmul:	
  1744                           ; 1 bytes @ 0x2
  1745                           
  1746     0072                     ?_strcmp:	
  1747                           ; 1 bytes @ 0x2
  1748                           
  1749     0072                     ?_read_adc:	
  1750                           ; 2 bytes @ 0x2
  1751                           
  1752     0072                     ?___awdiv:	
  1753                           ; 2 bytes @ 0x2
  1754                           
  1755     0072                     ?___awmod:	
  1756                           ; 2 bytes @ 0x2
  1757                           
  1758     0072                     ?___lwdiv:	
  1759                           ; 2 bytes @ 0x2
  1760                           
  1761     0072                     ?___lldiv:	
  1762                           ; 2 bytes @ 0x2
  1763                           
  1764     0072                     clcd_write@mode:	
  1765                           ; 4 bytes @ 0x2
  1766                           
  1767     0072                     i2c_read@ack:	
  1768                           ; 1 bytes @ 0x2
  1769                           
  1770     0072                     i2c_write@data:	
  1771                           ; 1 bytes @ 0x2
  1772                           
  1773     0072                     putchar@data:	
  1774                           ; 1 bytes @ 0x2
  1775                           
  1776     0072                     ___bmul@multiplicand:	
  1777                           ; 1 bytes @ 0x2
  1778                           
  1779     0072                     strcmp@r:	
  1780                           ; 1 bytes @ 0x2
  1781                           
  1782     0072                     strcpy@src:	
  1783                           ; 1 bytes @ 0x2
  1784                           
  1785     0072                     strncpy@s:	
  1786                           ; 1 bytes @ 0x2
  1787                           
  1788     0072                     ___awdiv@divisor:	
  1789                           ; 1 bytes @ 0x2
  1790                           
  1791     0072                     ___awmod@divisor:	
  1792                           ; 2 bytes @ 0x2
  1793                           
  1794     0072                     ___lwdiv@divisor:	
  1795                           ; 2 bytes @ 0x2
  1796                           
  1797     0072                     ___lldiv@divisor:	
  1798                           ; 2 bytes @ 0x2
  1799                           
  1800                           
  1801                           ; 4 bytes @ 0x2
  1802     0072                     	ds	1
  1803     0073                     ?_write_ds1307:
  1804     0073                     ?_puts:	
  1805                           ; 1 bytes @ 0x3
  1806                           
  1807     0073                     ??_strcpy:	
  1808                           ; 1 bytes @ 0x3
  1809                           
  1810     0073                     ??_clcd_write:	
  1811                           ; 1 bytes @ 0x3
  1812                           
  1813     0073                     ??___bmul:	
  1814                           ; 1 bytes @ 0x3
  1815                           
  1816     0073                     write_ds1307@data:	
  1817                           ; 1 bytes @ 0x3
  1818                           
  1819     0073                     i2c_read@data:	
  1820                           ; 1 bytes @ 0x3
  1821                           
  1822     0073                     read_digital_keypad@mode:	
  1823                           ; 1 bytes @ 0x3
  1824                           
  1825     0073                     ___bmul@product:	
  1826                           ; 1 bytes @ 0x3
  1827                           
  1828     0073                     strcpy@d:	
  1829                           ; 1 bytes @ 0x3
  1830                           
  1831     0073                     puts@s:	
  1832                           ; 1 bytes @ 0x3
  1833                           
  1834     0073                     strncpy@n:	
  1835                           ; 2 bytes @ 0x3
  1836                           
  1837                           
  1838                           ; 2 bytes @ 0x3
  1839     0073                     	ds	1
  1840     0074                     ??_read_ds1307:
  1841     0074                     ??_write_ds1307:	
  1842                           ; 1 bytes @ 0x4
  1843                           
  1844     0074                     ??_read_ext_eeprom:	
  1845                           ; 1 bytes @ 0x4
  1846                           
  1847     0074                     ??_detect_single_press:	
  1848                           ; 1 bytes @ 0x4
  1849                           
  1850     0074                     ??_strcmp:	
  1851                           ; 1 bytes @ 0x4
  1852                           
  1853     0074                     ??_read_adc:	
  1854                           ; 1 bytes @ 0x4
  1855                           
  1856     0074                     read_ds1307@addr:	
  1857                           ; 1 bytes @ 0x4
  1858                           
  1859     0074                     write_ds1307@addr:	
  1860                           ; 1 bytes @ 0x4
  1861                           
  1862     0074                     read_ext_eeprom@addr:	
  1863                           ; 1 bytes @ 0x4
  1864                           
  1865     0074                     ___bmul@multiplier:	
  1866                           ; 1 bytes @ 0x4
  1867                           
  1868     0074                     strcpy@dest:	
  1869                           ; 1 bytes @ 0x4
  1870                           
  1871     0074                     ___awdiv@dividend:	
  1872                           ; 1 bytes @ 0x4
  1873                           
  1874     0074                     ___awmod@dividend:	
  1875                           ; 2 bytes @ 0x4
  1876                           
  1877     0074                     ___lwdiv@dividend:	
  1878                           ; 2 bytes @ 0x4
  1879                           
  1880                           
  1881                           ; 2 bytes @ 0x4
  1882     0074                     	ds	1
  1883     0075                     ??_puts:
  1884     0075                     ??_strncpy:	
  1885                           ; 1 bytes @ 0x5
  1886                           
  1887     0075                     ?_write_ext_eeprom:	
  1888                           ; 1 bytes @ 0x5
  1889                           
  1890     0075                     clcd_write@byte:	
  1891                           ; 1 bytes @ 0x5
  1892                           
  1893     0075                     read_ds1307@data:	
  1894                           ; 1 bytes @ 0x5
  1895                           
  1896     0075                     read_adc@channel:	
  1897                           ; 1 bytes @ 0x5
  1898                           
  1899     0075                     read_ext_eeprom@data:	
  1900                           ; 1 bytes @ 0x5
  1901                           
  1902     0075                     write_ext_eeprom@data:	
  1903                           ; 1 bytes @ 0x5
  1904                           
  1905     0075                     strncpy@d:	
  1906                           ; 1 bytes @ 0x5
  1907                           
  1908                           
  1909                           ; 1 bytes @ 0x5
  1910     0075                     	ds	1
  1911     0076                     ??_init_display_controller:
  1912     0076                     ?_clcd_print:	
  1913                           ; 1 bytes @ 0x6
  1914                           
  1915     0076                     ??_init_ds1307:	
  1916                           ; 1 bytes @ 0x6
  1917                           
  1918     0076                     ??_get_time:	
  1919                           ; 1 bytes @ 0x6
  1920                           
  1921     0076                     ??_write_ext_eeprom:	
  1922                           ; 1 bytes @ 0x6
  1923                           
  1924     0076                     ??___awdiv:	
  1925                           ; 1 bytes @ 0x6
  1926                           
  1927     0076                     ??___awmod:	
  1928                           ; 1 bytes @ 0x6
  1929                           
  1930     0076                     ??___lwdiv:	
  1931                           ; 1 bytes @ 0x6
  1932                           
  1933     0076                     init_ds1307@dummy:	
  1934                           ; 1 bytes @ 0x6
  1935                           
  1936     0076                     get_time@clock_reg:	
  1937                           ; 1 bytes @ 0x6
  1938                           
  1939     0076                     write_ext_eeprom@addr:	
  1940                           ; 1 bytes @ 0x6
  1941                           
  1942     0076                     ___awdiv@counter:	
  1943                           ; 1 bytes @ 0x6
  1944                           
  1945     0076                     ___awmod@counter:	
  1946                           ; 1 bytes @ 0x6
  1947                           
  1948     0076                     ___lwdiv@counter:	
  1949                           ; 1 bytes @ 0x6
  1950                           
  1951     0076                     strcmp@l:	
  1952                           ; 1 bytes @ 0x6
  1953                           
  1954     0076                     strncpy@cp:	
  1955                           ; 1 bytes @ 0x6
  1956                           
  1957     0076                     clcd_print@str:	
  1958                           ; 1 bytes @ 0x6
  1959                           
  1960     0076                     read_adc@adc_reg_val:	
  1961                           ; 2 bytes @ 0x6
  1962                           
  1963     0076                     ___lldiv@dividend:	
  1964                           ; 2 bytes @ 0x6
  1965                           
  1966                           
  1967                           ; 4 bytes @ 0x6
  1968     0076                     	ds	1
  1969     0077                     ??_download_log:
  1970     0077                     detect_single_press@key:	
  1971                           ; 1 bytes @ 0x7
  1972                           
  1973     0077                     ___awdiv@sign:	
  1974                           ; 1 bytes @ 0x7
  1975                           
  1976     0077                     ___awmod@sign:	
  1977                           ; 1 bytes @ 0x7
  1978                           
  1979     0077                     ___lwdiv@quotient:	
  1980                           ; 1 bytes @ 0x7
  1981                           
  1982                           
  1983                           ; 2 bytes @ 0x7
  1984     0077                     	ds	1
  1985     0078                     ??_init_clcd:
  1986     0078                     clcd_print@addr:	
  1987                           ; 1 bytes @ 0x8
  1988                           
  1989     0078                     ___fltol@sign1:	
  1990                           ; 1 bytes @ 0x8
  1991                           
  1992     0078                     ___awdiv@quotient:	
  1993                           ; 1 bytes @ 0x8
  1994                           
  1995                           
  1996                           ; 2 bytes @ 0x8
  1997     0078                     	ds	1
  1998     0079                     ??_clcd_print:
  1999     0079                     ??_display_time:	
  2000                           ; 1 bytes @ 0x9
  2001                           
  2002     0079                     ??___lwmod:	
  2003                           ; 1 bytes @ 0x9
  2004                           
  2005     0079                     ___fltol@exp1:	
  2006                           ; 1 bytes @ 0x9
  2007                           
  2008     0079                     ___lwmod@counter:	
  2009                           ; 1 bytes @ 0x9
  2010                           
  2011                           
  2012                           ; 1 bytes @ 0x9
  2013     0079                     	ds	1
  2014     007A                     ??_handle_menu_navigation:
  2015     007A                     ??_clcd_putch:	
  2016                           ; 1 bytes @ 0xA
  2017                           
  2018     007A                     ??_init_config:	
  2019                           ; 1 bytes @ 0xA
  2020                           
  2021     007A                     ??_handle_lockout:	
  2022                           ; 1 bytes @ 0xA
  2023                           
  2024                           
  2025                           	psect	cstackBANK0
  2026     0020                     __pcstackBANK0:	
  2027                           ; 1 bytes @ 0xA
  2028                           
  2029     0020                     ??_store_eeprom:
  2030     0020                     ?_clcd_putch:	
  2031                           ; 1 bytes @ 0x0
  2032                           
  2033     0020                     ??___lldiv:	
  2034                           ; 1 bytes @ 0x0
  2035                           
  2036     0020                     ?___lwmod:	
  2037                           ; 1 bytes @ 0x0
  2038                           
  2039     0020                     ?___xxtofl:	
  2040                           ; 2 bytes @ 0x0
  2041                           
  2042     0020                     clcd_putch@addr:	
  2043                           ; 4 bytes @ 0x0
  2044                           
  2045     0020                     display_time@clock_reg:	
  2046                           ; 1 bytes @ 0x0
  2047                           
  2048     0020                     ___lwmod@divisor:	
  2049                           ; 1 bytes @ 0x0
  2050                           
  2051     0020                     ___xxtofl@val:	
  2052                           ; 2 bytes @ 0x0
  2053                           
  2054     0020                     download_log@eeprom_data:	
  2055                           ; 4 bytes @ 0x0
  2056                           
  2057                           
  2058                           ; 13 bytes @ 0x0
  2059     0020                     	ds	1
  2060     0021                     clcd_putch@data:
  2061     0021                     ___lldiv@quotient:	
  2062                           ; 1 bytes @ 0x1
  2063                           
  2064                           
  2065                           ; 4 bytes @ 0x1
  2066     0021                     	ds	1
  2067     0022                     ??_change_pass:
  2068     0022                     ??_change_time:	
  2069                           ; 1 bytes @ 0x2
  2070                           
  2071     0022                     ?_enter_password:	
  2072                           ; 1 bytes @ 0x2
  2073                           
  2074     0022                     enter_password@attempt:	
  2075                           ; 2 bytes @ 0x2
  2076                           
  2077     0022                     ___lwmod@dividend:	
  2078                           ; 1 bytes @ 0x2
  2079                           
  2080                           
  2081                           ; 2 bytes @ 0x2
  2082     0022                     	ds	2
  2083     0024                     ??_enter_password:
  2084     0024                     ??___xxtofl:	
  2085                           ; 1 bytes @ 0x4
  2086                           
  2087     0024                     handle_lockout@hundreds:	
  2088                           ; 1 bytes @ 0x4
  2089                           
  2090                           
  2091                           ; 1 bytes @ 0x4
  2092     0024                     	ds	1
  2093     0025                     handle_lockout@tens:
  2094     0025                     ___lldiv@counter:	
  2095                           ; 1 bytes @ 0x5
  2096                           
  2097     0025                     change_pass@re_pass:	
  2098                           ; 1 bytes @ 0x5
  2099                           
  2100     0025                     store_eeprom@eeprom_data:	
  2101                           ; 5 bytes @ 0x5
  2102                           
  2103                           
  2104                           ; 12 bytes @ 0x5
  2105     0025                     	ds	1
  2106     0026                     ?_init_uart:
  2107     0026                     ?_init_i2c:	
  2108                           ; 1 bytes @ 0x6
  2109                           
  2110     0026                     handle_lockout@ones:	
  2111                           ; 1 bytes @ 0x6
  2112                           
  2113     0026                     init_i2c@baud:	
  2114                           ; 1 bytes @ 0x6
  2115                           
  2116     0026                     init_uart@baud:	
  2117                           ; 4 bytes @ 0x6
  2118                           
  2119                           
  2120                           ; 4 bytes @ 0x6
  2121     0026                     	ds	1
  2122     0027                     enter_password@usr_pass:
  2123                           
  2124                           ; 5 bytes @ 0x7
  2125     0027                     	ds	1
  2126     0028                     ___xxtofl@sign:
  2127                           
  2128                           ; 1 bytes @ 0x8
  2129     0028                     	ds	1
  2130     0029                     ___xxtofl@exp:
  2131     0029                     change_time@wait:	
  2132                           ; 1 bytes @ 0x9
  2133                           
  2134                           
  2135                           ; 2 bytes @ 0x9
  2136     0029                     	ds	1
  2137     002A                     ??_init_uart:
  2138     002A                     ??_init_i2c:	
  2139                           ; 1 bytes @ 0xA
  2140                           
  2141     002A                     ___xxtofl@arg:	
  2142                           ; 1 bytes @ 0xA
  2143                           
  2144     002A                     change_pass@new_pass:	
  2145                           ; 4 bytes @ 0xA
  2146                           
  2147                           
  2148                           ; 5 bytes @ 0xA
  2149     002A                     	ds	1
  2150     002B                     change_time@one_time:
  2151                           
  2152                           ; 1 bytes @ 0xB
  2153     002B                     	ds	1
  2154     002C                     change_time@long_press_counter:
  2155     002C                     enter_password@pass:	
  2156                           ; 1 bytes @ 0xC
  2157                           
  2158                           
  2159                           ; 1 bytes @ 0xC
  2160     002C                     	ds	1
  2161     002D                     change_time@key:
  2162     002D                     enter_password@i:	
  2163                           ; 1 bytes @ 0xD
  2164                           
  2165     002D                     download_log@time:	
  2166                           ; 2 bytes @ 0xD
  2167                           
  2168                           
  2169                           ; 9 bytes @ 0xD
  2170     002D                     	ds	1
  2171     002E                     ?___fldiv:
  2172     002E                     change_time@blink:	
  2173                           ; 4 bytes @ 0xE
  2174                           
  2175     002E                     ___fldiv@a:	
  2176                           ; 1 bytes @ 0xE
  2177                           
  2178                           
  2179                           ; 4 bytes @ 0xE
  2180     002E                     	ds	1
  2181     002F                     change_time@dummy:
  2182     002F                     _change_pass$400:	
  2183                           ; 1 bytes @ 0xF
  2184                           
  2185     002F                     _enter_password$456:	
  2186                           ; 2 bytes @ 0xF
  2187                           
  2188                           
  2189                           ; 2 bytes @ 0xF
  2190     002F                     	ds	1
  2191     0030                     change_time@new_time:
  2192                           
  2193                           ; 3 bytes @ 0x10
  2194     0030                     	ds	1
  2195     0031                     store_eeprom@addr:
  2196     0031                     _change_pass$403:	
  2197                           ; 1 bytes @ 0x11
  2198                           
  2199     0031                     enter_password@pos:	
  2200                           ; 2 bytes @ 0x11
  2201                           
  2202                           
  2203                           ; 2 bytes @ 0x11
  2204     0031                     	ds	1
  2205     0032                     store_eeprom@index:
  2206     0032                     ___fldiv@b:	
  2207                           ; 2 bytes @ 0x12
  2208                           
  2209                           
  2210                           ; 4 bytes @ 0x12
  2211     0032                     	ds	1
  2212     0033                     change_time@blink_pos:
  2213     0033                     enter_password@key:	
  2214                           ; 1 bytes @ 0x13
  2215                           
  2216     0033                     change_pass@i:	
  2217                           ; 1 bytes @ 0x13
  2218                           
  2219                           
  2220                           ; 2 bytes @ 0x13
  2221     0033                     	ds	1
  2222     0034                     store_eeprom@j:
  2223                           
  2224                           ; 2 bytes @ 0x14
  2225     0034                     	ds	1
  2226     0035                     change_pass@addr:
  2227                           
  2228                           ; 2 bytes @ 0x15
  2229     0035                     	ds	1
  2230     0036                     ??___fldiv:
  2231     0036                     store_eeprom@j_267:	
  2232                           ; 1 bytes @ 0x16
  2233                           
  2234     0036                     download_log@gear:	
  2235                           ; 2 bytes @ 0x16
  2236                           
  2237                           
  2238                           ; 3 bytes @ 0x16
  2239     0036                     	ds	1
  2240     0037                     change_pass@pos:
  2241                           
  2242                           ; 2 bytes @ 0x17
  2243     0037                     	ds	1
  2244     0038                     store_eeprom@j_269:
  2245                           
  2246                           ; 2 bytes @ 0x18
  2247     0038                     	ds	1
  2248     0039                     change_pass@key:
  2249     0039                     download_log@speed:	
  2250                           ; 1 bytes @ 0x19
  2251                           
  2252                           
  2253                           ; 3 bytes @ 0x19
  2254     0039                     	ds	1
  2255     003A                     store_eeprom@j_270:
  2256                           
  2257                           ; 2 bytes @ 0x1A
  2258     003A                     	ds	1
  2259     003B                     ___fldiv@rem:
  2260                           
  2261                           ; 4 bytes @ 0x1B
  2262     003B                     	ds	1
  2263     003C                     download_log@addr:
  2264     003C                     store_eeprom@j_271:	
  2265                           ; 1 bytes @ 0x1C
  2266                           
  2267                           
  2268                           ; 2 bytes @ 0x1C
  2269     003C                     	ds	1
  2270     003D                     download_log@log_index:
  2271                           
  2272                           ; 2 bytes @ 0x1D
  2273     003D                     	ds	1
  2274     003E                     ??_display_logs:
  2275                           
  2276                           ; 1 bytes @ 0x1E
  2277     003E                     	ds	1
  2278     003F                     ___fldiv@sign:
  2279     003F                     download_log@j:	
  2280                           ; 1 bytes @ 0x1F
  2281                           
  2282                           
  2283                           ; 2 bytes @ 0x1F
  2284     003F                     	ds	1
  2285     0040                     ___fldiv@new_exp:
  2286                           
  2287                           ; 2 bytes @ 0x20
  2288     0040                     	ds	1
  2289     0041                     display_logs@eeprom_data:
  2290                           
  2291                           ; 12 bytes @ 0x21
  2292     0041                     	ds	1
  2293     0042                     ___fldiv@grs:
  2294                           
  2295                           ; 4 bytes @ 0x22
  2296     0042                     	ds	4
  2297     0046                     ___fldiv@bexp:
  2298                           
  2299                           ; 1 bytes @ 0x26
  2300     0046                     	ds	1
  2301     0047                     ___fldiv@aexp:
  2302                           
  2303                           ; 1 bytes @ 0x27
  2304     0047                     	ds	1
  2305     0048                     ?___fltol:
  2306     0048                     ___fltol@f1:	
  2307                           ; 4 bytes @ 0x28
  2308                           
  2309                           
  2310                           ; 4 bytes @ 0x28
  2311     0048                     	ds	4
  2312     004C                     ??___fltol:
  2313                           
  2314                           ; 1 bytes @ 0x2C
  2315     004C                     	ds	1
  2316     004D                     display_logs@long_press_counter:
  2317                           
  2318                           ; 2 bytes @ 0x2D
  2319     004D                     	ds	2
  2320     004F                     display_logs@addr:
  2321                           
  2322                           ; 1 bytes @ 0x2F
  2323     004F                     	ds	1
  2324     0050                     ??_update_dashboard_display:
  2325     0050                     display_logs@j:	
  2326                           ; 1 bytes @ 0x30
  2327                           
  2328                           
  2329                           ; 2 bytes @ 0x30
  2330     0050                     	ds	2
  2331     0052                     display_logs@j_387:
  2332                           
  2333                           ; 2 bytes @ 0x32
  2334     0052                     	ds	2
  2335     0054                     update_dashboard_display@adc_val:
  2336     0054                     display_logs@j_388:	
  2337                           ; 2 bytes @ 0x34
  2338                           
  2339                           
  2340                           ; 2 bytes @ 0x34
  2341     0054                     	ds	2
  2342     0056                     display_logs@j_389:
  2343                           
  2344                           ; 2 bytes @ 0x36
  2345     0056                     	ds	2
  2346     0058                     display_logs@key:
  2347                           
  2348                           ; 1 bytes @ 0x38
  2349     0058                     	ds	1
  2350     0059                     display_logs@index:
  2351                           
  2352                           ; 2 bytes @ 0x39
  2353     0059                     	ds	2
  2354     005B                     ??_enter_menu_option:
  2355                           
  2356                           ; 1 bytes @ 0x3B
  2357     005B                     	ds	3
  2358     005E                     enter_menu_option@down_press:
  2359                           
  2360                           ; 1 bytes @ 0x3E
  2361     005E                     	ds	1
  2362     005F                     ?_handle_menu_navigation:
  2363     005F                     handle_menu_navigation@long_press_counter:	
  2364                           ; 1 bytes @ 0x3F
  2365                           
  2366                           
  2367                           ; 1 bytes @ 0x3F
  2368     005F                     	ds	1
  2369     0060                     handle_menu_navigation@down_press:
  2370                           
  2371                           ; 1 bytes @ 0x40
  2372     0060                     	ds	1
  2373     0061                     ??_main:
  2374                           
  2375                           ; 1 bytes @ 0x41
  2376     0061                     	ds	2
  2377                           
  2378                           	psect	maintext
  2379     080C                     __pmaintext:	
  2380 ;;
  2381 ;;Main: autosize = 0, tempsize = 2, incstack = 0, save=0
  2382 ;;
  2383 ;; *************** function _main *****************
  2384 ;; Defined at:
  2385 ;;		line 77 in file "main.c"
  2386 ;; Parameters:    Size  Location     Type
  2387 ;;		None
  2388 ;; Auto vars:     Size  Location     Type
  2389 ;;  key             1    2[BANK1 ] unsigned char 
  2390 ;;  i               2    3[BANK1 ] int 
  2391 ;;  attempt         2    5[BANK1 ] unsigned int 
  2392 ;;  long_press_c    2    0[BANK1 ] unsigned int 
  2393 ;;  down_press      1    7[BANK1 ] unsigned char 
  2394 ;; Return value:  Size  Location     Type
  2395 ;;                  1    wreg      void 
  2396 ;; Registers used:
  2397 ;;		wreg, fsr0l, fsr0h, status,2, status,0, btemp+1, pclath, cstack
  2398 ;; Tracked objects:
  2399 ;;		On entry : B00/0
  2400 ;;		On exit  : 0/0
  2401 ;;		Unchanged: 0/0
  2402 ;; Data sizes:     COMMON   BANK0   BANK1   BANK3   BANK2
  2403 ;;      Params:         0       0       0       0       0
  2404 ;;      Locals:         0       0       8       0       0
  2405 ;;      Temps:          0       2       0       0       0
  2406 ;;      Totals:         0       2       8       0       0
  2407 ;;Total ram usage:       10 bytes
  2408 ;; Hardware stack levels required when called: 9
  2409 ;; This function calls:
  2410 ;;		_clcd_print
  2411 ;;		_clcd_write
  2412 ;;		_detect_single_press
  2413 ;;		_enter_password
  2414 ;;		_handle_lockout
  2415 ;;		_handle_menu_navigation
  2416 ;;		_init_config
  2417 ;;		_read_ext_eeprom
  2418 ;;		_store_eeprom
  2419 ;;		_update_dashboard_display
  2420 ;; This function is called by:
  2421 ;;		Startup code after reset
  2422 ;; This function uses a non-reentrant model
  2423 ;;
  2424                           
  2425     080C                     _main:	
  2426                           ;psect for function _main
  2427                           
  2428     080C                     l5441:	
  2429                           ;incstack = 0
  2430 ;; hardware stack exceeded
  2431                           ; Regs used in _main: [wreg-fsr0h+status,2+status,0+btemp+1+pclath+cstack]
  2432                           
  2433                           
  2434                           ;main.c: 79:             unsigned char key = detect_single_press();
  2435     080C  160A  118A  225D  120A  158A  	fcall	_init_config
  2436     0811                     l5443:
  2437                           
  2438                           ;main.c: 81:             if (key == 0x3E)
  2439     0811  3003               	movlw	3
  2440     0812  1683               	bsf	3,5	;RP0=1, select bank1
  2441     0813  1303               	bcf	3,6	;RP1=0, select bank1
  2442     0814  00D7               	movwf	main@attempt^(0+128)
  2443     0815  3000               	movlw	0
  2444     0816  00D8               	movwf	(main@attempt^(0+128)+1)
  2445     0817                     l5445:
  2446                           
  2447                           ;main.c: 82:             {
  2448     0817  01D9               	clrf	main@down_press^(0+128)
  2449     0818                     l5447:
  2450                           
  2451                           ;main.c: 83:                 i = 7;
  2452     0818  01D2               	clrf	main@long_press_counter^(0+128)
  2453     0819  01D3               	clrf	(main@long_press_counter+1)^(0+128)
  2454     081A                     l5449:
  2455                           
  2456                           ;main.c: 84:                 store_eeprom();
  2457     081A  01D5               	clrf	main@i^(0+128)
  2458     081B  01D6               	clrf	(main@i+1)^(0+128)
  2459     081C                     l5455:
  2460                           
  2461                           ;main.c: 85:             };main.c: 86:             else if (key == 0x3D)
  2462     081C  1683               	bsf	3,5	;RP0=1, select bank1
  2463     081D  1303               	bcf	3,6	;RP1=0, select bank1
  2464     081E  0855               	movf	main@i^(0+128),w
  2465     081F  3EB7               	addlw	(low (_pass| 0))& (0+255)
  2466     0820  0084               	movwf	4
  2467     0821  0855               	movf	main@i^(0+128),w
  2468     0822  3E7D               	addlw	125
  2469     0823  160A  118A  2103  120A  158A  	fcall	_read_ext_eeprom
  2470     0828  1383               	bcf	3,7	;select IRP bank1
  2471     0829  0080               	movwf	0
  2472     082A                     l5457:
  2473                           
  2474                           ;main.c: 87:             {
  2475     082A  3001               	movlw	1
  2476     082B  1683               	bsf	3,5	;RP0=1, select bank1
  2477     082C  1303               	bcf	3,6	;RP1=0, select bank1
  2478     082D  07D5               	addwf	main@i^(0+128),f
  2479     082E  1803               	skipnc
  2480     082F  0AD6               	incf	(main@i+1)^(0+128),f
  2481     0830  3000               	movlw	0
  2482     0831  07D6               	addwf	(main@i+1)^(0+128),f
  2483     0832                     l5459:
  2484     0832  0856               	movf	(main@i+1)^(0+128),w
  2485     0833  3A80               	xorlw	128
  2486     0834  00FF               	movwf	btemp+1
  2487     0835  3080               	movlw	128
  2488     0836  027F               	subwf	btemp+1,w
  2489     0837  1D03               	skipz
  2490     0838  283B               	goto	u6625
  2491     0839  3004               	movlw	4
  2492     083A  0255               	subwf	main@i^(0+128),w
  2493     083B                     u6625:
  2494     083B  1C03               	skipc
  2495     083C  283E               	goto	u6621
  2496     083D  283F               	goto	u6620
  2497     083E                     u6621:
  2498     083E  281C               	goto	l5455
  2499     083F                     u6620:
  2500     083F                     l5461:
  2501                           
  2502                           ;main.c: 88:                 if (i != 6)
  2503     083F  1683               	bsf	3,5	;RP0=1, select bank1
  2504     0840  1303               	bcf	3,6	;RP1=0, select bank1
  2505     0841  01BB               	clrf	(_pass^(0+128)+4)
  2506     0842                     l5463:
  2507                           
  2508                           ;main.c: 91:                     store_eeprom();;main.c: 92:                 }
  2509     0842  1283               	bcf	3,5	;RP0=0, select bank0
  2510     0843  1303               	bcf	3,6	;RP1=0, select bank0
  2511     0844  086C               	movf	_dash_mode,w
  2512     0845  1903               	btfsc	3,2
  2513     0846  2848               	goto	u6631
  2514     0847  2849               	goto	u6630
  2515     0848                     u6631:
  2516     0848  2909               	goto	l5523
  2517     0849                     u6630:
  2518     0849                     l5465:
  2519                           
  2520                           ;main.c: 93:             };main.c: 94:             else if (key == 0x3B)
  2521     0849  160A  118A  2746  120A  158A  	fcall	_update_dashboard_display
  2522     084E                     l5467:
  2523                           
  2524                           ;main.c: 96:                 if (i != 1)
  2525     084E  160A  118A  2086  120A  158A  	fcall	_detect_single_press
  2526     0853  1683               	bsf	3,5	;RP0=1, select bank1
  2527     0854  1303               	bcf	3,6	;RP1=0, select bank1
  2528     0855  00D4               	movwf	main@key^(0+128)
  2529     0856                     l5469:
  2530                           
  2531                           ;main.c: 98:                     i--;
  2532     0856  303E               	movlw	62
  2533     0857  0654               	xorwf	main@key^(0+128),w
  2534     0858  1D03               	btfss	3,2
  2535     0859  285B               	goto	u6641
  2536     085A  285C               	goto	u6640
  2537     085B                     u6641:
  2538     085B  2868               	goto	l5475
  2539     085C                     u6640:
  2540     085C                     l5471:
  2541                           
  2542                           ;main.c: 99:                     store_eeprom();;main.c: 100:                 }
  2543     085C  3007               	movlw	7
  2544     085D  1283               	bcf	3,5	;RP0=0, select bank0
  2545     085E  1303               	bcf	3,6	;RP1=0, select bank0
  2546     085F  00E7               	movwf	_i
  2547     0860  3000               	movlw	0
  2548     0861  00E8               	movwf	_i+1
  2549     0862                     l5473:
  2550                           
  2551                           ;main.c: 101:             }
  2552     0862  120A  158A  2229  120A  158A  	fcall	_store_eeprom
  2553                           
  2554                           ;main.c: 102:             else if (key == 0x37)
  2555     0867  2842               	goto	l5463
  2556     0868                     l5475:
  2557     0868  303D               	movlw	61
  2558     0869  0654               	xorwf	main@key^(0+128),w
  2559     086A  1D03               	btfss	3,2
  2560     086B  286D               	goto	u6651
  2561     086C  286E               	goto	u6650
  2562     086D                     u6651:
  2563     086D  287E               	goto	l5483
  2564     086E                     u6650:
  2565     086E                     l5477:
  2566                           
  2567                           ;main.c: 104:                 dash_mode = 0;;main.c: 105:             }
  2568     086E  3006               	movlw	6
  2569     086F  1283               	bcf	3,5	;RP0=0, select bank0
  2570     0870  1303               	bcf	3,6	;RP1=0, select bank0
  2571     0871  0667               	xorwf	_i,w
  2572     0872  0468               	iorwf	_i+1,w
  2573     0873  1903               	btfsc	3,2
  2574     0874  2876               	goto	u6661
  2575     0875  2877               	goto	u6660
  2576     0876                     u6661:
  2577     0876  2842               	goto	l5463
  2578     0877                     u6660:
  2579     0877                     l5479:
  2580                           
  2581                           ;main.c: 106:         };main.c: 107:         else
  2582     0877  3001               	movlw	1
  2583     0878  07E7               	addwf	_i,f
  2584     0879  1803               	skipnc
  2585     087A  0AE8               	incf	_i+1,f
  2586     087B  3000               	movlw	0
  2587     087C  07E8               	addwf	_i+1,f
  2588     087D  2862               	goto	l5473
  2589     087E                     l5483:
  2590     087E  303B               	movlw	59
  2591     087F  0654               	xorwf	main@key^(0+128),w
  2592     0880  1D03               	btfss	3,2
  2593     0881  2883               	goto	u6671
  2594     0882  2884               	goto	u6670
  2595     0883                     u6671:
  2596     0883  2893               	goto	l5491
  2597     0884                     u6670:
  2598     0884                     l5485:
  2599                           
  2600                           ;main.c: 112:                 {;main.c: 113:                     clcd_write(0x01, 0);
  2601     0884  1283               	bcf	3,5	;RP0=0, select bank0
  2602     0885  1303               	bcf	3,6	;RP1=0, select bank0
  2603     0886  0367               	decf	_i,w
  2604     0887  0468               	iorwf	_i+1,w
  2605     0888  1903               	btfsc	3,2
  2606     0889  288B               	goto	u6681
  2607     088A  288C               	goto	u6680
  2608     088B                     u6681:
  2609     088B  289D               	goto	l202
  2610     088C                     u6680:
  2611     088C                     l5487:
  2612                           
  2613                           ;main.c: 114:                     _delay((unsigned long)((500)*(20000000/4000000.0)));;m
      +                          ain.c: 115: 
  2614     088C  3001               	movlw	1
  2615     088D  02E7               	subwf	_i,f
  2616     088E  3000               	movlw	0
  2617     088F  1C03               	skipc
  2618     0890  03E8               	decf	_i+1,f
  2619     0891  02E8               	subwf	_i+1,f
  2620     0892  2862               	goto	l5473
  2621     0893                     l5491:
  2622     0893  3037               	movlw	55
  2623     0894  0654               	xorwf	main@key^(0+128),w
  2624     0895  1D03               	btfss	3,2
  2625     0896  2898               	goto	u6691
  2626     0897  2899               	goto	u6690
  2627     0898                     u6691:
  2628     0898  289D               	goto	l202
  2629     0899                     u6690:
  2630     0899                     l5493:
  2631                           
  2632                           ;main.c: 120:                     while (1);main.c: 121:                     {
  2633     0899  1283               	bcf	3,5	;RP0=0, select bank0
  2634     089A  1303               	bcf	3,6	;RP1=0, select bank0
  2635     089B  01EC               	clrf	_dash_mode
  2636     089C  2842               	goto	l5463
  2637     089D                     l202:
  2638                           
  2639                           ;main.c: 123:                         if (dash_mode)
  2640     089D  2842               	goto	l5463
  2641     089E                     l5495:
  2642                           
  2643                           ;main.c: 127:                         };main.c: 128:                     }
  2644     089E  30D7               	movlw	(low (main@attempt| 0))& (0+255)
  2645     089F  1283               	bcf	3,5	;RP0=0, select bank0
  2646     08A0  1303               	bcf	3,6	;RP1=0, select bank0
  2647     08A1  00A2               	movwf	enter_password@attempt
  2648     08A2  30B7               	movlw	(low (_pass| 0))& (0+255)
  2649     08A3  120A  158A  2115  120A  158A  	fcall	_enter_password
  2650     08A8  1283               	bcf	3,5	;RP0=0, select bank0
  2651     08A9  1303               	bcf	3,6	;RP1=0, select bank0
  2652     08AA  0822               	movf	?_enter_password,w
  2653     08AB  0423               	iorwf	?_enter_password+1,w
  2654     08AC  1903               	btfsc	3,2
  2655     08AD  28AF               	goto	u6701
  2656     08AE  28B0               	goto	u6700
  2657     08AF                     u6701:
  2658     08AF  28EB               	goto	l5511
  2659     08B0                     u6700:
  2660     08B0                     l5497:
  2661                           
  2662                           ;main.c: 129:                 };main.c: 130:                 if (dash_mode)
  2663     08B0  01F2               	clrf	clcd_write@mode
  2664     08B1  3001               	movlw	1
  2665     08B2  160A  158A  27E0  120A  158A  	fcall	_clcd_write
  2666     08B7                     l5499:
  2667                           
  2668                           ;main.c: 131:                 {
  2669     08B7  3004               	movlw	4
  2670     08B8  1283               	bcf	3,5	;RP0=0, select bank0
  2671     08B9  1303               	bcf	3,6	;RP1=0, select bank0
  2672     08BA  00E2               	movwf	??_main+1
  2673     08BB  303D               	movlw	61
  2674     08BC  00E1               	movwf	??_main
  2675     08BD                     u6757:
  2676     08BD  0BE1               	decfsz	??_main,f
  2677     08BE  28BD               	goto	u6757
  2678     08BF  0BE2               	decfsz	??_main+1,f
  2679     08C0  28BD               	goto	u6757
  2680     08C1                     l5501:
  2681                           
  2682                           ;main.c: 134: 
  2683     08C1  3027               	movlw	low (STR_12| (0+32768))
  2684     08C2  00F6               	movwf	clcd_print@str
  2685     08C3  3087               	movlw	high (STR_12| (0+32768))
  2686     08C4  00F7               	movwf	clcd_print@str+1
  2687     08C5  3083               	movlw	131
  2688     08C6  00F8               	movwf	clcd_print@addr
  2689     08C7  160A  118A  2187  120A  158A  	fcall	_clcd_print
  2690     08CC                     l5503:
  2691                           
  2692                           ;main.c: 135: 
  2693     08CC  3035               	movlw	low (STR_13| (0+32768))
  2694     08CD  00F6               	movwf	clcd_print@str
  2695     08CE  3087               	movlw	high (STR_13| (0+32768))
  2696     08CF  00F7               	movwf	clcd_print@str+1
  2697     08D0  30C3               	movlw	195
  2698     08D1  00F8               	movwf	clcd_print@addr
  2699     08D2  160A  118A  2187  120A  158A  	fcall	_clcd_print
  2700     08D7                     l5505:
  2701                           
  2702                           ;main.c: 138:                     handle_lockout();;main.c: 139:                     att
      +                          empt = 3;
  2703     08D7  30D2               	movlw	(low (main@long_press_counter| 0))& (0+255)
  2704     08D8  1283               	bcf	3,5	;RP0=0, select bank0
  2705     08D9  1303               	bcf	3,6	;RP1=0, select bank0
  2706     08DA  00DF               	movwf	handle_menu_navigation@long_press_counter
  2707     08DB  30D9               	movlw	(low (main@down_press| 0))& (0+255)
  2708     08DC  120A  158A  2368  120A  158A  	fcall	_handle_menu_navigation
  2709     08E1                     l5507:
  2710                           
  2711                           ;main.c: 140:                     dash_mode = 1;
  2712     08E1  1283               	bcf	3,5	;RP0=0, select bank0
  2713     08E2  1303               	bcf	3,6	;RP1=0, select bank0
  2714     08E3  086C               	movf	_dash_mode,w
  2715     08E4  1903               	btfsc	3,2
  2716     08E5  28E7               	goto	u6711
  2717     08E6  28E8               	goto	u6710
  2718     08E7                     u6711:
  2719     08E7  28D7               	goto	l5505
  2720     08E8                     u6710:
  2721     08E8                     l5509:
  2722                           
  2723                           ;main.c: 141:                 };main.c: 142:             }
  2724     08E8  1683               	bsf	3,5	;RP0=1, select bank1
  2725     08E9  1303               	bcf	3,6	;RP1=0, select bank1
  2726     08EA  01D9               	clrf	main@down_press^(0+128)
  2727     08EB                     l5511:	
  2728                           ;main.c: 143:         }
  2729                           
  2730     08EB  1283               	bcf	3,5	;RP0=0, select bank0
  2731     08EC  086C               	movf	_dash_mode,w
  2732     08ED  1903               	btfsc	3,2
  2733     08EE  28F0               	goto	u6721
  2734     08EF  28F1               	goto	u6720
  2735     08F0                     u6721:
  2736     08F0  28F2               	goto	l5515
  2737     08F1                     u6720:
  2738     08F1  2842               	goto	l5463
  2739     08F2                     l5515:
  2740     08F2  1683               	bsf	3,5	;RP0=1, select bank1
  2741     08F3  1303               	bcf	3,6	;RP1=0, select bank1
  2742     08F4  0857               	movf	main@attempt^(0+128),w
  2743     08F5  0458               	iorwf	(main@attempt+1)^(0+128),w
  2744     08F6  1D03               	btfss	3,2
  2745     08F7  28F9               	goto	u6731
  2746     08F8  28FA               	goto	u6730
  2747     08F9                     u6731:
  2748     08F9  2909               	goto	l5523
  2749     08FA                     u6730:
  2750     08FA                     l5517:
  2751     08FA  160A  118A  2542  120A  158A  	fcall	_handle_lockout
  2752     08FF                     l5519:
  2753     08FF  3003               	movlw	3
  2754     0900  1683               	bsf	3,5	;RP0=1, select bank1
  2755     0901  1303               	bcf	3,6	;RP1=0, select bank1
  2756     0902  00D7               	movwf	main@attempt^(0+128)
  2757     0903  3000               	movlw	0
  2758     0904  00D8               	movwf	(main@attempt^(0+128)+1)
  2759     0905                     l5521:
  2760     0905  1283               	bcf	3,5	;RP0=0, select bank0
  2761     0906  1303               	bcf	3,6	;RP1=0, select bank0
  2762     0907  01EC               	clrf	_dash_mode
  2763     0908  0AEC               	incf	_dash_mode,f
  2764     0909                     l5523:
  2765                           
  2766                           ;main.c: 126:                             break;
  2767     0909  1683               	bsf	3,5	;RP0=1, select bank1
  2768     090A  1303               	bcf	3,6	;RP1=0, select bank1
  2769     090B  0857               	movf	main@attempt^(0+128),w
  2770     090C  0458               	iorwf	(main@attempt+1)^(0+128),w
  2771     090D  1D03               	btfss	3,2
  2772     090E  2910               	goto	u6741
  2773     090F  2911               	goto	u6740
  2774     0910                     u6741:
  2775     0910  289E               	goto	l5495
  2776     0911                     u6740:
  2777     0911  2842               	goto	l5463
  2778     0912  120A  118A  280C   	ljmp	start
  2779     0915                     __end_of_main:
  2780                           
  2781                           	psect	text1
  2782     1746                     __ptext1:	
  2783 ;; *************** function _update_dashboard_display *****************
  2784 ;; Defined at:
  2785 ;;		line 20 in file "function.c"
  2786 ;; Parameters:    Size  Location     Type
  2787 ;;		None
  2788 ;; Auto vars:     Size  Location     Type
  2789 ;;  adc_val         2   52[BANK0 ] unsigned short 
  2790 ;; Return value:  Size  Location     Type
  2791 ;;                  1    wreg      void 
  2792 ;; Registers used:
  2793 ;;		wreg, fsr0l, fsr0h, status,2, status,0, btemp+1, pclath, cstack
  2794 ;; Tracked objects:
  2795 ;;		On entry : 0/0
  2796 ;;		On exit  : 0/0
  2797 ;;		Unchanged: 0/0
  2798 ;; Data sizes:     COMMON   BANK0   BANK1   BANK3   BANK2
  2799 ;;      Params:         0       0       0       0       0
  2800 ;;      Locals:         0       2       0       0       0
  2801 ;;      Temps:          0       4       0       0       0
  2802 ;;      Totals:         0       6       0       0       0
  2803 ;;Total ram usage:        6 bytes
  2804 ;; Hardware stack levels used: 1
  2805 ;; Hardware stack levels required when called: 6
  2806 ;; This function calls:
  2807 ;;		___fldiv
  2808 ;;		___fltol
  2809 ;;		___lwdiv
  2810 ;;		___lwmod
  2811 ;;		___xxtofl
  2812 ;;		_clcd_print
  2813 ;;		_display_time
  2814 ;;		_get_time
  2815 ;;		_read_adc
  2816 ;; This function is called by:
  2817 ;;		_main
  2818 ;; This function uses a non-reentrant model
  2819 ;;
  2820                           
  2821     1746                     _update_dashboard_display:	
  2822                           ;psect for function _update_dashboard_display
  2823                           
  2824     1746                     l5283:	
  2825                           ;incstack = 0
  2826                           ; Regs used in _update_dashboard_display: [wreg-fsr0h+status,2+status,0+btemp+1+pclath+c
      +                          stack]
  2827                           
  2828                           
  2829                           ;function.c: 22:     clcd_print("  TIME    EV  SP", (0x80 + 0));
  2830     1746  305B               	movlw	low (STR_14| (0+32768))
  2831     1747  00F6               	movwf	clcd_print@str
  2832     1748  3086               	movlw	high (STR_14| (0+32768))
  2833     1749  00F7               	movwf	clcd_print@str+1
  2834     174A  3080               	movlw	128
  2835     174B  00F8               	movwf	clcd_print@addr
  2836     174C  160A  118A  2187  160A  118A  	fcall	_clcd_print
  2837     1751                     l5285:
  2838                           
  2839                           ;function.c: 23:     get_time(clock_reg);
  2840     1751  30BF               	movlw	(low (_clock_reg| 0))& (0+255)
  2841     1752  160A  118A  203F  160A  118A  	fcall	_get_time
  2842     1757                     l5287:
  2843                           
  2844                           ;function.c: 24:     display_time(clock_reg);
  2845     1757  30BF               	movlw	(low (_clock_reg| 0))& (0+255)
  2846     1758  160A  118A  2461  160A  118A  	fcall	_display_time
  2847     175D                     l5289:
  2848                           
  2849                           ;function.c: 25:     clcd_print(event[i], (0xC0 + 10));
  2850     175D  1283               	bcf	3,5	;RP0=0, select bank0
  2851     175E  1303               	bcf	3,6	;RP1=0, select bank0
  2852     175F  0867               	movf	_i,w
  2853     1760  00D0               	movwf	??_update_dashboard_display
  2854     1761  0750               	addwf	??_update_dashboard_display,w
  2855     1762  3EC2               	addlw	(low (_event| 0))& (0+255)
  2856     1763  0084               	movwf	4
  2857     1764  1383               	bcf	3,7	;select IRP bank1
  2858     1765  0800               	movf	0,w
  2859     1766  00F6               	movwf	clcd_print@str
  2860     1767  0A84               	incf	4,f
  2861     1768  0800               	movf	0,w
  2862     1769  0384               	decf	4,f
  2863     176A  00F7               	movwf	clcd_print@str+1
  2864     176B  30CA               	movlw	202
  2865     176C  00F8               	movwf	clcd_print@addr
  2866     176D  160A  118A  2187  160A  118A  	fcall	_clcd_print
  2867     1772                     l5291:
  2868                           
  2869                           ;function.c: 26:     unsigned short adc_val = read_adc(0x00) / 10.23;
  2870     1772  3000               	movlw	0
  2871     1773  160A  158A  27C1  160A  118A  	fcall	_read_adc
  2872     1778  0872               	movf	?_read_adc,w
  2873     1779  1283               	bcf	3,5	;RP0=0, select bank0
  2874     177A  1303               	bcf	3,6	;RP1=0, select bank0
  2875     177B  00D0               	movwf	??_update_dashboard_display
  2876     177C  0873               	movf	?_read_adc+1,w
  2877     177D  00D1               	movwf	??_update_dashboard_display+1
  2878     177E  01D2               	clrf	??_update_dashboard_display+2
  2879     177F  01D3               	clrf	??_update_dashboard_display+3
  2880     1780  0853               	movf	??_update_dashboard_display+3,w
  2881     1781  00A3               	movwf	___xxtofl@val+3
  2882     1782  0852               	movf	??_update_dashboard_display+2,w
  2883     1783  00A2               	movwf	___xxtofl@val+2
  2884     1784  0851               	movf	??_update_dashboard_display+1,w
  2885     1785  00A1               	movwf	___xxtofl@val+1
  2886     1786  0850               	movf	??_update_dashboard_display,w
  2887     1787  00A0               	movwf	___xxtofl@val
  2888     1788  3000               	movlw	0
  2889     1789  160A  118A  268C  160A  118A  	fcall	___xxtofl
  2890     178E  1283               	bcf	3,5	;RP0=0, select bank0
  2891     178F  1303               	bcf	3,6	;RP1=0, select bank0
  2892     1790  0823               	movf	?___xxtofl+3,w
  2893     1791  00B5               	movwf	___fldiv@b+3
  2894     1792  0822               	movf	?___xxtofl+2,w
  2895     1793  00B4               	movwf	___fldiv@b+2
  2896     1794  0821               	movf	?___xxtofl+1,w
  2897     1795  00B3               	movwf	___fldiv@b+1
  2898     1796  0820               	movf	?___xxtofl,w
  2899     1797  00B2               	movwf	___fldiv@b
  2900     1798  3041               	movlw	65
  2901     1799  00B1               	movwf	___fldiv@a+3
  2902     179A  3023               	movlw	35
  2903     179B  00B0               	movwf	___fldiv@a+2
  2904     179C  30AE               	movlw	174
  2905     179D  00AF               	movwf	___fldiv@a+1
  2906     179E  3014               	movlw	20
  2907     179F  00AE               	movwf	___fldiv@a
  2908     17A0  120A  118A  2347  160A  118A  	fcall	___fldiv
  2909     17A5  1283               	bcf	3,5	;RP0=0, select bank0
  2910     17A6  1303               	bcf	3,6	;RP1=0, select bank0
  2911     17A7  0831               	movf	?___fldiv+3,w
  2912     17A8  00CB               	movwf	___fltol@f1+3
  2913     17A9  0830               	movf	?___fldiv+2,w
  2914     17AA  00CA               	movwf	___fltol@f1+2
  2915     17AB  082F               	movf	?___fldiv+1,w
  2916     17AC  00C9               	movwf	___fltol@f1+1
  2917     17AD  082E               	movf	?___fldiv,w
  2918     17AE  00C8               	movwf	___fltol@f1
  2919     17AF  160A  118A  24CA  160A  118A  	fcall	___fltol
  2920     17B4  1283               	bcf	3,5	;RP0=0, select bank0
  2921     17B5  1303               	bcf	3,6	;RP1=0, select bank0
  2922     17B6  0849               	movf	?___fltol+1,w
  2923     17B7  00D5               	movwf	update_dashboard_display@adc_val+1
  2924     17B8  0848               	movf	?___fltol,w
  2925     17B9  00D4               	movwf	update_dashboard_display@adc_val
  2926     17BA                     l5293:
  2927                           
  2928                           ;function.c: 28:     speed[0] = ((adc_val / 10) % 10) + 48;
  2929     17BA  300A               	movlw	10
  2930     17BB  00A0               	movwf	___lwmod@divisor
  2931     17BC  3000               	movlw	0
  2932     17BD  00A1               	movwf	___lwmod@divisor+1
  2933     17BE  300A               	movlw	10
  2934     17BF  00F2               	movwf	___lwdiv@divisor
  2935     17C0  3000               	movlw	0
  2936     17C1  00F3               	movwf	___lwdiv@divisor+1
  2937     17C2  0855               	movf	update_dashboard_display@adc_val+1,w
  2938     17C3  00F5               	movwf	___lwdiv@dividend+1
  2939     17C4  0854               	movf	update_dashboard_display@adc_val,w
  2940     17C5  00F4               	movwf	___lwdiv@dividend
  2941     17C6  160A  118A  22A0  160A  118A  	fcall	___lwdiv
  2942     17CB  0873               	movf	?___lwdiv+1,w
  2943     17CC  1283               	bcf	3,5	;RP0=0, select bank0
  2944     17CD  1303               	bcf	3,6	;RP1=0, select bank0
  2945     17CE  00A3               	movwf	___lwmod@dividend+1
  2946     17CF  0872               	movf	?___lwdiv,w
  2947     17D0  00A2               	movwf	___lwmod@dividend
  2948     17D1  160A  118A  2221  160A  118A  	fcall	___lwmod
  2949     17D6  1283               	bcf	3,5	;RP0=0, select bank0
  2950     17D7  1303               	bcf	3,6	;RP1=0, select bank0
  2951     17D8  0820               	movf	?___lwmod,w
  2952     17D9  3E30               	addlw	48
  2953     17DA  1683               	bsf	3,5	;RP0=1, select bank1
  2954     17DB  1303               	bcf	3,6	;RP1=0, select bank1
  2955     17DC  00BC               	movwf	_speed^(0+128)
  2956     17DD                     l5295:
  2957                           
  2958                           ;function.c: 29:     speed[1] = (adc_val % 10) + 48;
  2959     17DD  300A               	movlw	10
  2960     17DE  1283               	bcf	3,5	;RP0=0, select bank0
  2961     17DF  1303               	bcf	3,6	;RP1=0, select bank0
  2962     17E0  00A0               	movwf	___lwmod@divisor
  2963     17E1  3000               	movlw	0
  2964     17E2  00A1               	movwf	___lwmod@divisor+1
  2965     17E3  0855               	movf	update_dashboard_display@adc_val+1,w
  2966     17E4  00A3               	movwf	___lwmod@dividend+1
  2967     17E5  0854               	movf	update_dashboard_display@adc_val,w
  2968     17E6  00A2               	movwf	___lwmod@dividend
  2969     17E7  160A  118A  2221  160A  118A  	fcall	___lwmod
  2970     17EC  1283               	bcf	3,5	;RP0=0, select bank0
  2971     17ED  1303               	bcf	3,6	;RP1=0, select bank0
  2972     17EE  0820               	movf	?___lwmod,w
  2973     17EF  3E30               	addlw	48
  2974     17F0  1683               	bsf	3,5	;RP0=1, select bank1
  2975     17F1  1303               	bcf	3,6	;RP1=0, select bank1
  2976     17F2  00BD               	movwf	(_speed^(0+128)+1)
  2977     17F3                     l5297:
  2978                           
  2979                           ;function.c: 30:     speed[2] = '\0';
  2980     17F3  01BE               	clrf	(_speed^(0+128)+2)
  2981     17F4                     l5299:
  2982                           
  2983                           ;function.c: 31:     clcd_print(speed, (0xC0 + 14));
  2984     17F4  30BC               	movlw	(low (_speed| 0))& (0+255)
  2985     17F5  00F6               	movwf	clcd_print@str
  2986     17F6  3000               	movlw	0
  2987     17F7  00F7               	movwf	clcd_print@str+1
  2988     17F8  30CE               	movlw	206
  2989     17F9  00F8               	movwf	clcd_print@addr
  2990     17FA  160A  118A  2187  160A  118A  	fcall	_clcd_print
  2991     17FF                     l428:
  2992     17FF  0008               	return
  2993     1800                     __end_of_update_dashboard_display:
  2994                           
  2995                           	psect	text2
  2996     1FC1                     __ptext2:	
  2997 ;; *************** function _read_adc *****************
  2998 ;; Defined at:
  2999 ;;		line 13 in file "adc.c"
  3000 ;; Parameters:    Size  Location     Type
  3001 ;;  channel         1    wreg     unsigned char 
  3002 ;; Auto vars:     Size  Location     Type
  3003 ;;  channel         1    5[COMMON] unsigned char 
  3004 ;;  adc_reg_val     2    6[COMMON] unsigned short 
  3005 ;; Return value:  Size  Location     Type
  3006 ;;                  2    2[COMMON] unsigned short 
  3007 ;; Registers used:
  3008 ;;		wreg, status,2, status,0
  3009 ;; Tracked objects:
  3010 ;;		On entry : 0/0
  3011 ;;		On exit  : 0/0
  3012 ;;		Unchanged: 0/0
  3013 ;; Data sizes:     COMMON   BANK0   BANK1   BANK3   BANK2
  3014 ;;      Params:         2       0       0       0       0
  3015 ;;      Locals:         3       0       0       0       0
  3016 ;;      Temps:          1       0       0       0       0
  3017 ;;      Totals:         6       0       0       0       0
  3018 ;;Total ram usage:        6 bytes
  3019 ;; Hardware stack levels used: 1
  3020 ;; Hardware stack levels required when called: 1
  3021 ;; This function calls:
  3022 ;;		Nothing
  3023 ;; This function is called by:
  3024 ;;		_update_dashboard_display
  3025 ;; This function uses a non-reentrant model
  3026 ;;
  3027                           
  3028     1FC1                     _read_adc:	
  3029                           ;psect for function _read_adc
  3030                           
  3031                           
  3032                           ;incstack = 0
  3033                           ; Regs used in _read_adc: [wreg+status,2+status,0]
  3034                           ;read_adc@channel stored from wreg
  3035     1FC1  00F5               	movwf	read_adc@channel
  3036     1FC2                     l4899:
  3037                           
  3038                           ;adc.c: 13: unsigned short read_adc(unsigned char channel);adc.c: 14: {;adc.c: 15:     u
      +                          nsigned short adc_reg_val;;adc.c: 18:     ADCON0 = (ADCON0 & 0xC7) | (channel << 3);
  3039     1FC2  0875               	movf	read_adc@channel,w
  3040     1FC3  00F4               	movwf	??_read_adc
  3041     1FC4  3003               	movlw	3
  3042     1FC5                     u5655:
  3043     1FC5  1003               	clrc
  3044     1FC6  0DF4               	rlf	??_read_adc,f
  3045     1FC7  3EFF               	addlw	-1
  3046     1FC8  1D03               	skipz
  3047     1FC9  2FC5               	goto	u5655
  3048     1FCA  1283               	bcf	3,5	;RP0=0, select bank0
  3049     1FCB  1303               	bcf	3,6	;RP1=0, select bank0
  3050     1FCC  081F               	movf	31,w	;volatile
  3051     1FCD  39C7               	andlw	199
  3052     1FCE  0474               	iorwf	??_read_adc,w
  3053     1FCF  009F               	movwf	31	;volatile
  3054     1FD0                     l4901:
  3055                           
  3056                           ;adc.c: 21:     GO = 1;
  3057     1FD0  151F               	bsf	31,2	;volatile
  3058     1FD1                     l243:	
  3059                           ;adc.c: 23:     while (nDONE);
  3060                           
  3061     1FD1  191F               	btfsc	31,2	;volatile
  3062     1FD2  2FD4               	goto	u5661
  3063     1FD3  2FD5               	goto	u5660
  3064     1FD4                     u5661:
  3065     1FD4  2FD1               	goto	l243
  3066     1FD5                     u5660:
  3067     1FD5                     l4903:
  3068                           
  3069                           ;adc.c: 25:     adc_reg_val = (ADRESH << 8) | ADRESL;
  3070     1FD5  081E               	movf	30,w	;volatile
  3071     1FD6  00F7               	movwf	read_adc@adc_reg_val+1
  3072     1FD7  1683               	bsf	3,5	;RP0=1, select bank1
  3073     1FD8  1303               	bcf	3,6	;RP1=0, select bank1
  3074     1FD9  081E               	movf	30,w	;volatile
  3075     1FDA  00F6               	movwf	read_adc@adc_reg_val
  3076                           
  3077                           ;adc.c: 27:     return adc_reg_val;
  3078     1FDB  0877               	movf	read_adc@adc_reg_val+1,w
  3079     1FDC  00F3               	movwf	?_read_adc+1
  3080     1FDD  0876               	movf	read_adc@adc_reg_val,w
  3081     1FDE  00F2               	movwf	?_read_adc
  3082     1FDF                     l246:
  3083     1FDF  0008               	return
  3084     1FE0                     __end_of_read_adc:
  3085                           
  3086                           	psect	text3
  3087     1461                     __ptext3:	
  3088 ;; *************** function _display_time *****************
  3089 ;; Defined at:
  3090 ;;		line 39 in file "ds1307.c"
  3091 ;; Parameters:    Size  Location     Type
  3092 ;;  clock_reg       1    wreg     PTR unsigned char 
  3093 ;;		 -> clock_reg(3), 
  3094 ;; Auto vars:     Size  Location     Type
  3095 ;;  clock_reg       1    0[BANK0 ] PTR unsigned char 
  3096 ;;		 -> clock_reg(3), 
  3097 ;; Return value:  Size  Location     Type
  3098 ;;                  1    wreg      void 
  3099 ;; Registers used:
  3100 ;;		wreg, fsr0l, fsr0h, status,2, status,0, btemp+1, pclath, cstack
  3101 ;; Tracked objects:
  3102 ;;		On entry : 0/0
  3103 ;;		On exit  : 0/0
  3104 ;;		Unchanged: 0/0
  3105 ;; Data sizes:     COMMON   BANK0   BANK1   BANK3   BANK2
  3106 ;;      Params:         0       0       0       0       0
  3107 ;;      Locals:         0       1       0       0       0
  3108 ;;      Temps:          1       0       0       0       0
  3109 ;;      Totals:         1       1       0       0       0
  3110 ;;Total ram usage:        2 bytes
  3111 ;; Hardware stack levels used: 1
  3112 ;; Hardware stack levels required when called: 3
  3113 ;; This function calls:
  3114 ;;		_clcd_print
  3115 ;; This function is called by:
  3116 ;;		_update_dashboard_display
  3117 ;; This function uses a non-reentrant model
  3118 ;;
  3119                           
  3120     1461                     _display_time:	
  3121                           ;psect for function _display_time
  3122                           
  3123                           
  3124                           ;incstack = 0
  3125                           ; Regs used in _display_time: [wreg-fsr0h+status,2+status,0+btemp+1+pclath+cstack]
  3126                           ;display_time@clock_reg stored from wreg
  3127     1461  1283               	bcf	3,5	;RP0=0, select bank0
  3128     1462  1303               	bcf	3,6	;RP1=0, select bank0
  3129     1463  00A0               	movwf	display_time@clock_reg
  3130     1464                     l4867:
  3131                           
  3132                           ;ds1307.c: 39:  void display_time(unsigned char *clock_reg);ds1307.c: 40: {;ds1307.c: 49
      +                          :     time[0] = ((clock_reg[0] >> 4) & 0x03) + '0';
  3133     1464  0820               	movf	display_time@clock_reg,w
  3134     1465  0084               	movwf	4
  3135     1466  1383               	bcf	3,7	;select IRP bank0
  3136     1467  0800               	movf	0,w
  3137     1468  00F9               	movwf	??_display_time
  3138     1469  3004               	movlw	4
  3139     146A                     u5605:
  3140     146A  1003               	clrc
  3141     146B  0CF9               	rrf	??_display_time,f
  3142     146C  3EFF               	addlw	-1
  3143     146D  1D03               	skipz
  3144     146E  2C6A               	goto	u5605
  3145     146F  0879               	movf	??_display_time,w
  3146     1470  3903               	andlw	3
  3147     1471  3E30               	addlw	48
  3148     1472  1683               	bsf	3,5	;RP0=1, select bank1
  3149     1473  1303               	bcf	3,6	;RP1=0, select bank1
  3150     1474  00AE               	movwf	_time^(0+128)
  3151                           
  3152                           ;ds1307.c: 50:     time[1] = (clock_reg[0] & 0x0F) + '0';
  3153     1475  1283               	bcf	3,5	;RP0=0, select bank0
  3154     1476  1303               	bcf	3,6	;RP1=0, select bank0
  3155     1477  0820               	movf	display_time@clock_reg,w
  3156     1478  0084               	movwf	4
  3157     1479  0800               	movf	0,w
  3158     147A  390F               	andlw	15
  3159     147B  3E30               	addlw	48
  3160     147C  1683               	bsf	3,5	;RP0=1, select bank1
  3161     147D  1303               	bcf	3,6	;RP1=0, select bank1
  3162     147E  00AF               	movwf	(_time^(0+128)+1)
  3163     147F                     l4869:
  3164                           
  3165                           ;ds1307.c: 52:     time[2] = ':';
  3166     147F  303A               	movlw	58
  3167     1480  00B0               	movwf	(_time^(0+128)+2)
  3168     1481                     l4871:
  3169                           
  3170                           ;ds1307.c: 54:     time[3] = ((clock_reg[1] >> 4) & 0x07) + '0';
  3171     1481  1283               	bcf	3,5	;RP0=0, select bank0
  3172     1482  1303               	bcf	3,6	;RP1=0, select bank0
  3173     1483  0A20               	incf	display_time@clock_reg,w
  3174     1484  0084               	movwf	4
  3175     1485  0800               	movf	0,w
  3176     1486  00F9               	movwf	??_display_time
  3177     1487  3004               	movlw	4
  3178     1488                     u5615:
  3179     1488  1003               	clrc
  3180     1489  0CF9               	rrf	??_display_time,f
  3181     148A  3EFF               	addlw	-1
  3182     148B  1D03               	skipz
  3183     148C  2C88               	goto	u5615
  3184     148D  0879               	movf	??_display_time,w
  3185     148E  3907               	andlw	7
  3186     148F  3E30               	addlw	48
  3187     1490  1683               	bsf	3,5	;RP0=1, select bank1
  3188     1491  1303               	bcf	3,6	;RP1=0, select bank1
  3189     1492  00B1               	movwf	(_time^(0+128)+3)
  3190     1493                     l4873:
  3191                           
  3192                           ;ds1307.c: 55:     time[4] = (clock_reg[1] & 0x0F) + '0';
  3193     1493  1283               	bcf	3,5	;RP0=0, select bank0
  3194     1494  1303               	bcf	3,6	;RP1=0, select bank0
  3195     1495  0A20               	incf	display_time@clock_reg,w
  3196     1496  0084               	movwf	4
  3197     1497  0800               	movf	0,w
  3198     1498  390F               	andlw	15
  3199     1499  3E30               	addlw	48
  3200     149A  1683               	bsf	3,5	;RP0=1, select bank1
  3201     149B  1303               	bcf	3,6	;RP1=0, select bank1
  3202     149C  00B2               	movwf	(_time^(0+128)+4)
  3203     149D                     l4875:
  3204                           
  3205                           ;ds1307.c: 57:     time[5] = ':';
  3206     149D  303A               	movlw	58
  3207     149E  00B3               	movwf	(_time^(0+128)+5)
  3208                           
  3209                           ;ds1307.c: 59:     time[6] = ((clock_reg[2] >> 4) & 0x07) + '0';
  3210     149F  1283               	bcf	3,5	;RP0=0, select bank0
  3211     14A0  1303               	bcf	3,6	;RP1=0, select bank0
  3212     14A1  0820               	movf	display_time@clock_reg,w
  3213     14A2  3E02               	addlw	2
  3214     14A3  0084               	movwf	4
  3215     14A4  0800               	movf	0,w
  3216     14A5  00F9               	movwf	??_display_time
  3217     14A6  3004               	movlw	4
  3218     14A7                     u5625:
  3219     14A7  1003               	clrc
  3220     14A8  0CF9               	rrf	??_display_time,f
  3221     14A9  3EFF               	addlw	-1
  3222     14AA  1D03               	skipz
  3223     14AB  2CA7               	goto	u5625
  3224     14AC  0879               	movf	??_display_time,w
  3225     14AD  3907               	andlw	7
  3226     14AE  3E30               	addlw	48
  3227     14AF  1683               	bsf	3,5	;RP0=1, select bank1
  3228     14B0  1303               	bcf	3,6	;RP1=0, select bank1
  3229     14B1  00B4               	movwf	(_time^(0+128)+6)
  3230                           
  3231                           ;ds1307.c: 60:     time[7] = (clock_reg[2] & 0x0F) + '0';
  3232     14B2  1283               	bcf	3,5	;RP0=0, select bank0
  3233     14B3  1303               	bcf	3,6	;RP1=0, select bank0
  3234     14B4  0820               	movf	display_time@clock_reg,w
  3235     14B5  3E02               	addlw	2
  3236     14B6  0084               	movwf	4
  3237     14B7  0800               	movf	0,w
  3238     14B8  390F               	andlw	15
  3239     14B9  3E30               	addlw	48
  3240     14BA  1683               	bsf	3,5	;RP0=1, select bank1
  3241     14BB  1303               	bcf	3,6	;RP1=0, select bank1
  3242     14BC  00B5               	movwf	(_time^(0+128)+7)
  3243     14BD                     l4877:
  3244                           
  3245                           ;ds1307.c: 61:     time[8] = '\0';
  3246     14BD  01B6               	clrf	(_time^(0+128)+8)
  3247     14BE                     l4879:
  3248                           
  3249                           ;ds1307.c: 63:     clcd_print(time, (0xC0 + 1));
  3250     14BE  30AE               	movlw	(low (_time| 0))& (0+255)
  3251     14BF  00F6               	movwf	clcd_print@str
  3252     14C0  3000               	movlw	0
  3253     14C1  00F7               	movwf	clcd_print@str+1
  3254     14C2  30C1               	movlw	193
  3255     14C3  00F8               	movwf	clcd_print@addr
  3256     14C4  160A  118A  2187  160A  118A  	fcall	_clcd_print
  3257     14C9                     l62:
  3258     14C9  0008               	return
  3259     14CA                     __end_of_display_time:
  3260                           
  3261                           	psect	text4
  3262     168C                     __ptext4:	
  3263 ;; *************** function ___xxtofl *****************
  3264 ;; Defined at:
  3265 ;;		line 10 in file "C:\Program Files\Microchip\xc8\v2.46\pic\sources\c99\common\xxtofl.c"
  3266 ;; Parameters:    Size  Location     Type
  3267 ;;  sign            1    wreg     unsigned char 
  3268 ;;  val             4    0[BANK0 ] long 
  3269 ;; Auto vars:     Size  Location     Type
  3270 ;;  sign            1    8[BANK0 ] unsigned char 
  3271 ;;  arg             4   10[BANK0 ] unsigned long 
  3272 ;;  exp             1    9[BANK0 ] unsigned char 
  3273 ;; Return value:  Size  Location     Type
  3274 ;;                  4    0[BANK0 ] unsigned char 
  3275 ;; Registers used:
  3276 ;;		wreg, status,2, status,0, btemp+1
  3277 ;; Tracked objects:
  3278 ;;		On entry : 0/0
  3279 ;;		On exit  : 0/0
  3280 ;;		Unchanged: 0/0
  3281 ;; Data sizes:     COMMON   BANK0   BANK1   BANK3   BANK2
  3282 ;;      Params:         0       4       0       0       0
  3283 ;;      Locals:         0       6       0       0       0
  3284 ;;      Temps:          0       4       0       0       0
  3285 ;;      Totals:         0      14       0       0       0
  3286 ;;Total ram usage:       14 bytes
  3287 ;; Hardware stack levels used: 1
  3288 ;; Hardware stack levels required when called: 1
  3289 ;; This function calls:
  3290 ;;		Nothing
  3291 ;; This function is called by:
  3292 ;;		_update_dashboard_display
  3293 ;; This function uses a non-reentrant model
  3294 ;;
  3295                           
  3296     168C                     ___xxtofl:	
  3297                           ;psect for function ___xxtofl
  3298                           
  3299                           
  3300                           ;incstack = 0
  3301                           ; Regs used in ___xxtofl: [wreg+status,2+status,0+btemp+1]
  3302                           ;___xxtofl@sign stored from wreg
  3303     168C  1283               	bcf	3,5	;RP0=0, select bank0
  3304     168D  1303               	bcf	3,6	;RP1=0, select bank0
  3305     168E  00A8               	movwf	___xxtofl@sign
  3306     168F                     l5189:
  3307     168F  0828               	movf	___xxtofl@sign,w
  3308     1690  1903               	btfsc	3,2
  3309     1691  2E93               	goto	u6271
  3310     1692  2E94               	goto	u6270
  3311     1693                     u6271:
  3312     1693  2EA8               	goto	l5195
  3313     1694                     u6270:
  3314     1694                     l5191:
  3315     1694  1FA3               	btfss	___xxtofl@val+3,7
  3316     1695  2E97               	goto	u6281
  3317     1696  2E98               	goto	u6280
  3318     1697                     u6281:
  3319     1697  2EA8               	goto	l5195
  3320     1698                     u6280:
  3321     1698                     l5193:
  3322     1698  0920               	comf	___xxtofl@val,w
  3323     1699  00AA               	movwf	___xxtofl@arg
  3324     169A  0921               	comf	___xxtofl@val+1,w
  3325     169B  00AB               	movwf	___xxtofl@arg+1
  3326     169C  0922               	comf	___xxtofl@val+2,w
  3327     169D  00AC               	movwf	___xxtofl@arg+2
  3328     169E  0923               	comf	___xxtofl@val+3,w
  3329     169F  00AD               	movwf	___xxtofl@arg+3
  3330     16A0  0AAA               	incf	___xxtofl@arg,f
  3331     16A1  1903               	skipnz
  3332     16A2  0AAB               	incf	___xxtofl@arg+1,f
  3333     16A3  1903               	skipnz
  3334     16A4  0AAC               	incf	___xxtofl@arg+2,f
  3335     16A5  1903               	skipnz
  3336     16A6  0AAD               	incf	___xxtofl@arg+3,f
  3337     16A7  2EB0               	goto	l1118
  3338     16A8                     l5195:
  3339     16A8  0823               	movf	___xxtofl@val+3,w
  3340     16A9  00AD               	movwf	___xxtofl@arg+3
  3341     16AA  0822               	movf	___xxtofl@val+2,w
  3342     16AB  00AC               	movwf	___xxtofl@arg+2
  3343     16AC  0821               	movf	___xxtofl@val+1,w
  3344     16AD  00AB               	movwf	___xxtofl@arg+1
  3345     16AE  0820               	movf	___xxtofl@val,w
  3346     16AF  00AA               	movwf	___xxtofl@arg
  3347     16B0                     l1118:
  3348     16B0  0823               	movf	___xxtofl@val+3,w
  3349     16B1  0422               	iorwf	___xxtofl@val+2,w
  3350     16B2  0421               	iorwf	___xxtofl@val+1,w
  3351     16B3  0420               	iorwf	___xxtofl@val,w
  3352     16B4  1D03               	skipz
  3353     16B5  2EB7               	goto	u6291
  3354     16B6  2EB8               	goto	u6290
  3355     16B7                     u6291:
  3356     16B7  2EC1               	goto	l5201
  3357     16B8                     u6290:
  3358     16B8                     l5197:
  3359     16B8  3000               	movlw	0
  3360     16B9  00A3               	movwf	?___xxtofl+3
  3361     16BA  3000               	movlw	0
  3362     16BB  00A2               	movwf	?___xxtofl+2
  3363     16BC  3000               	movlw	0
  3364     16BD  00A1               	movwf	?___xxtofl+1
  3365     16BE  3000               	movlw	0
  3366     16BF  00A0               	movwf	?___xxtofl
  3367     16C0  2F45               	goto	l1120
  3368     16C1                     l5201:
  3369     16C1  3096               	movlw	150
  3370     16C2  00A9               	movwf	___xxtofl@exp
  3371     16C3  2ED1               	goto	l5207
  3372     16C4                     l5203:
  3373     16C4  3001               	movlw	1
  3374     16C5  00FF               	movwf	btemp+1
  3375     16C6  087F               	movf	btemp+1,w
  3376     16C7  07A9               	addwf	___xxtofl@exp,f
  3377     16C8                     l5205:
  3378     16C8  3001               	movlw	1
  3379     16C9                     u6305:
  3380     16C9  1003               	clrc
  3381     16CA  0CAD               	rrf	___xxtofl@arg+3,f
  3382     16CB  0CAC               	rrf	___xxtofl@arg+2,f
  3383     16CC  0CAB               	rrf	___xxtofl@arg+1,f
  3384     16CD  0CAA               	rrf	___xxtofl@arg,f
  3385     16CE  3EFF               	addlw	-1
  3386     16CF  1D03               	skipz
  3387     16D0  2EC9               	goto	u6305
  3388     16D1                     l5207:
  3389     16D1  30FE               	movlw	254
  3390     16D2  052D               	andwf	___xxtofl@arg+3,w
  3391     16D3  1D03               	btfss	3,2
  3392     16D4  2ED6               	goto	u6311
  3393     16D5  2ED7               	goto	u6310
  3394     16D6                     u6311:
  3395     16D6  2EC4               	goto	l5203
  3396     16D7                     u6310:
  3397     16D7  2EF3               	goto	l5215
  3398     16D8                     l5209:
  3399     16D8  3001               	movlw	1
  3400     16D9  00FF               	movwf	btemp+1
  3401     16DA  087F               	movf	btemp+1,w
  3402     16DB  07A9               	addwf	___xxtofl@exp,f
  3403     16DC                     l5211:
  3404     16DC  3001               	movlw	1
  3405     16DD  07AA               	addwf	___xxtofl@arg,f
  3406     16DE  3000               	movlw	0
  3407     16DF  1803               	skipnc
  3408     16E0  3001               	movlw	1
  3409     16E1  07AB               	addwf	___xxtofl@arg+1,f
  3410     16E2  3000               	movlw	0
  3411     16E3  1803               	skipnc
  3412     16E4  3001               	movlw	1
  3413     16E5  07AC               	addwf	___xxtofl@arg+2,f
  3414     16E6  3000               	movlw	0
  3415     16E7  1803               	skipnc
  3416     16E8  3001               	movlw	1
  3417     16E9  07AD               	addwf	___xxtofl@arg+3,f
  3418     16EA                     l5213:
  3419     16EA  3001               	movlw	1
  3420     16EB                     u6325:
  3421     16EB  1003               	clrc
  3422     16EC  0CAD               	rrf	___xxtofl@arg+3,f
  3423     16ED  0CAC               	rrf	___xxtofl@arg+2,f
  3424     16EE  0CAB               	rrf	___xxtofl@arg+1,f
  3425     16EF  0CAA               	rrf	___xxtofl@arg,f
  3426     16F0  3EFF               	addlw	-1
  3427     16F1  1D03               	skipz
  3428     16F2  2EEB               	goto	u6325
  3429     16F3                     l5215:
  3430     16F3  30FF               	movlw	255
  3431     16F4  052D               	andwf	___xxtofl@arg+3,w
  3432     16F5  1D03               	btfss	3,2
  3433     16F6  2EF8               	goto	u6331
  3434     16F7  2EF9               	goto	u6330
  3435     16F8                     u6331:
  3436     16F8  2ED8               	goto	l5209
  3437     16F9                     u6330:
  3438     16F9  2F05               	goto	l5219
  3439     16FA                     l5217:
  3440     16FA  3001               	movlw	1
  3441     16FB  02A9               	subwf	___xxtofl@exp,f
  3442     16FC  3001               	movlw	1
  3443     16FD  00A4               	movwf	??___xxtofl
  3444     16FE                     u6345:
  3445     16FE  1003               	clrc
  3446     16FF  0DAA               	rlf	___xxtofl@arg,f
  3447     1700  0DAB               	rlf	___xxtofl@arg+1,f
  3448     1701  0DAC               	rlf	___xxtofl@arg+2,f
  3449     1702  0DAD               	rlf	___xxtofl@arg+3,f
  3450     1703  0BA4               	decfsz	??___xxtofl,f
  3451     1704  2EFE               	goto	u6345
  3452     1705                     l5219:
  3453     1705  1BAC               	btfsc	___xxtofl@arg+2,7
  3454     1706  2F08               	goto	u6351
  3455     1707  2F09               	goto	u6350
  3456     1708                     u6351:
  3457     1708  2F0F               	goto	l1131
  3458     1709                     u6350:
  3459     1709                     l5221:
  3460     1709  3002               	movlw	2
  3461     170A  0229               	subwf	___xxtofl@exp,w
  3462     170B  1803               	skipnc
  3463     170C  2F0E               	goto	u6361
  3464     170D  2F0F               	goto	u6360
  3465     170E                     u6361:
  3466     170E  2EFA               	goto	l5217
  3467     170F                     u6360:
  3468     170F                     l1131:
  3469     170F  1829               	btfsc	___xxtofl@exp,0
  3470     1710  2F12               	goto	u6371
  3471     1711  2F13               	goto	u6370
  3472     1712                     u6371:
  3473     1712  2F1B               	goto	l1132
  3474     1713                     u6370:
  3475     1713                     l5223:
  3476     1713  30FF               	movlw	255
  3477     1714  05AA               	andwf	___xxtofl@arg,f
  3478     1715  30FF               	movlw	255
  3479     1716  05AB               	andwf	___xxtofl@arg+1,f
  3480     1717  307F               	movlw	127
  3481     1718  05AC               	andwf	___xxtofl@arg+2,f
  3482     1719  30FF               	movlw	255
  3483     171A  05AD               	andwf	___xxtofl@arg+3,f
  3484     171B                     l1132:
  3485     171B  1003               	clrc
  3486     171C  0CA9               	rrf	___xxtofl@exp,f
  3487     171D                     l5225:
  3488     171D  0829               	movf	___xxtofl@exp,w
  3489     171E  00A4               	movwf	??___xxtofl
  3490     171F  01A5               	clrf	??___xxtofl+1
  3491     1720  01A6               	clrf	??___xxtofl+2
  3492     1721  01A7               	clrf	??___xxtofl+3
  3493     1722  3018               	movlw	24
  3494     1723                     u6385:
  3495     1723  1003               	clrc
  3496     1724  0DA4               	rlf	??___xxtofl,f
  3497     1725  0DA5               	rlf	??___xxtofl+1,f
  3498     1726  0DA6               	rlf	??___xxtofl+2,f
  3499     1727  0DA7               	rlf	??___xxtofl+3,f
  3500     1728                     u6380:
  3501     1728  3EFF               	addlw	-1
  3502     1729  1D03               	skipz
  3503     172A  2F23               	goto	u6385
  3504     172B  0824               	movf	??___xxtofl,w
  3505     172C  04AA               	iorwf	___xxtofl@arg,f
  3506     172D  0825               	movf	??___xxtofl+1,w
  3507     172E  04AB               	iorwf	___xxtofl@arg+1,f
  3508     172F  0826               	movf	??___xxtofl+2,w
  3509     1730  04AC               	iorwf	___xxtofl@arg+2,f
  3510     1731  0827               	movf	??___xxtofl+3,w
  3511     1732  04AD               	iorwf	___xxtofl@arg+3,f
  3512     1733                     l5227:
  3513     1733  0828               	movf	___xxtofl@sign,w
  3514     1734  1903               	btfsc	3,2
  3515     1735  2F37               	goto	u6391
  3516     1736  2F38               	goto	u6390
  3517     1737                     u6391:
  3518     1737  2F3D               	goto	l5233
  3519     1738                     u6390:
  3520     1738                     l5229:
  3521     1738  1FA3               	btfss	___xxtofl@val+3,7
  3522     1739  2F3B               	goto	u6401
  3523     173A  2F3C               	goto	u6400
  3524     173B                     u6401:
  3525     173B  2F3D               	goto	l5233
  3526     173C                     u6400:
  3527     173C                     l5231:
  3528     173C  17AD               	bsf	___xxtofl@arg+3,7
  3529     173D                     l5233:
  3530     173D  082D               	movf	___xxtofl@arg+3,w
  3531     173E  00A3               	movwf	?___xxtofl+3
  3532     173F  082C               	movf	___xxtofl@arg+2,w
  3533     1740  00A2               	movwf	?___xxtofl+2
  3534     1741  082B               	movf	___xxtofl@arg+1,w
  3535     1742  00A1               	movwf	?___xxtofl+1
  3536     1743  082A               	movf	___xxtofl@arg,w
  3537     1744  00A0               	movwf	?___xxtofl
  3538     1745                     l1120:
  3539     1745  0008               	return
  3540     1746                     __end_of___xxtofl:
  3541                           
  3542                           	psect	text5
  3543     14CA                     __ptext5:	
  3544 ;; *************** function ___fltol *****************
  3545 ;; Defined at:
  3546 ;;		line 43 in file "C:\Program Files\Microchip\xc8\v2.46\pic\sources\c99\common\fltol.c"
  3547 ;; Parameters:    Size  Location     Type
  3548 ;;  f1              4   40[BANK0 ] unsigned char 
  3549 ;; Auto vars:     Size  Location     Type
  3550 ;;  exp1            1    9[COMMON] unsigned char 
  3551 ;;  sign1           1    8[COMMON] unsigned char 
  3552 ;; Return value:  Size  Location     Type
  3553 ;;                  4   40[BANK0 ] long 
  3554 ;; Registers used:
  3555 ;;		wreg, status,2, status,0, btemp+1
  3556 ;; Tracked objects:
  3557 ;;		On entry : 0/0
  3558 ;;		On exit  : 0/0
  3559 ;;		Unchanged: 0/0
  3560 ;; Data sizes:     COMMON   BANK0   BANK1   BANK3   BANK2
  3561 ;;      Params:         0       4       0       0       0
  3562 ;;      Locals:         2       0       0       0       0
  3563 ;;      Temps:          0       4       0       0       0
  3564 ;;      Totals:         2       8       0       0       0
  3565 ;;Total ram usage:       10 bytes
  3566 ;; Hardware stack levels used: 1
  3567 ;; Hardware stack levels required when called: 1
  3568 ;; This function calls:
  3569 ;;		Nothing
  3570 ;; This function is called by:
  3571 ;;		_update_dashboard_display
  3572 ;; This function uses a non-reentrant model
  3573 ;;
  3574                           
  3575     14CA                     ___fltol:	
  3576                           ;psect for function ___fltol
  3577                           
  3578     14CA                     l4957:	
  3579                           ;incstack = 0
  3580                           ; Regs used in ___fltol: [wreg+status,2+status,0+btemp+1]
  3581                           
  3582     14CA  1003               	clrc
  3583     14CB  1283               	bcf	3,5	;RP0=0, select bank0
  3584     14CC  1303               	bcf	3,6	;RP1=0, select bank0
  3585     14CD  0D4A               	rlf	___fltol@f1+2,w
  3586     14CE  0D4B               	rlf	___fltol@f1+3,w
  3587     14CF  00F9               	movwf	___fltol@exp1
  3588     14D0  0879               	movf	___fltol@exp1,w
  3589     14D1  1D03               	btfss	3,2
  3590     14D2  2CD4               	goto	u5751
  3591     14D3  2CD5               	goto	u5750
  3592     14D4                     u5751:
  3593     14D4  2CDE               	goto	l4963
  3594     14D5                     u5750:
  3595     14D5                     l4959:
  3596     14D5  3000               	movlw	0
  3597     14D6  00CB               	movwf	?___fltol+3
  3598     14D7  3000               	movlw	0
  3599     14D8  00CA               	movwf	?___fltol+2
  3600     14D9  3000               	movlw	0
  3601     14DA  00C9               	movwf	?___fltol+1
  3602     14DB  3000               	movlw	0
  3603     14DC  00C8               	movwf	?___fltol
  3604     14DD  2D41               	goto	l871
  3605     14DE                     l4963:
  3606     14DE  0848               	movf	___fltol@f1,w
  3607     14DF  00CC               	movwf	??___fltol
  3608     14E0  0849               	movf	___fltol@f1+1,w
  3609     14E1  00CD               	movwf	??___fltol+1
  3610     14E2  084A               	movf	___fltol@f1+2,w
  3611     14E3  00CE               	movwf	??___fltol+2
  3612     14E4  084B               	movf	___fltol@f1+3,w
  3613     14E5  00CF               	movwf	??___fltol+3
  3614     14E6  301F               	movlw	31
  3615     14E7                     u5765:
  3616     14E7  1003               	clrc
  3617     14E8  0CCF               	rrf	??___fltol+3,f
  3618     14E9  0CCE               	rrf	??___fltol+2,f
  3619     14EA  0CCD               	rrf	??___fltol+1,f
  3620     14EB  0CCC               	rrf	??___fltol,f
  3621     14EC                     u5760:
  3622     14EC  3EFF               	addlw	-1
  3623     14ED  1D03               	skipz
  3624     14EE  2CE7               	goto	u5765
  3625     14EF  084C               	movf	??___fltol,w
  3626     14F0  00F8               	movwf	___fltol@sign1
  3627     14F1                     l4965:
  3628     14F1  17CA               	bsf	___fltol@f1+2,7
  3629     14F2                     l4967:
  3630     14F2  30FF               	movlw	255
  3631     14F3  05C8               	andwf	___fltol@f1,f
  3632     14F4  30FF               	movlw	255
  3633     14F5  05C9               	andwf	___fltol@f1+1,f
  3634     14F6  30FF               	movlw	255
  3635     14F7  05CA               	andwf	___fltol@f1+2,f
  3636     14F8  3000               	movlw	0
  3637     14F9  05CB               	andwf	___fltol@f1+3,f
  3638     14FA                     l4969:
  3639     14FA  3096               	movlw	150
  3640     14FB  02F9               	subwf	___fltol@exp1,f
  3641     14FC                     l4971:
  3642     14FC  1FF9               	btfss	___fltol@exp1,7
  3643     14FD  2CFF               	goto	u5771
  3644     14FE  2D00               	goto	u5770
  3645     14FF                     u5771:
  3646     14FF  2D1A               	goto	l4983
  3647     1500                     u5770:
  3648     1500                     l4973:
  3649     1500  0879               	movf	___fltol@exp1,w
  3650     1501  3A80               	xorlw	128
  3651     1502  3E97               	addlw	151
  3652     1503  1803               	skipnc
  3653     1504  2D06               	goto	u5781
  3654     1505  2D07               	goto	u5780
  3655     1506                     u5781:
  3656     1506  2D08               	goto	l4979
  3657     1507                     u5780:
  3658     1507  2CD5               	goto	l4959
  3659     1508                     l4979:
  3660     1508  3001               	movlw	1
  3661     1509                     u5795:
  3662     1509  1003               	clrc
  3663     150A  0CCB               	rrf	___fltol@f1+3,f
  3664     150B  0CCA               	rrf	___fltol@f1+2,f
  3665     150C  0CC9               	rrf	___fltol@f1+1,f
  3666     150D  0CC8               	rrf	___fltol@f1,f
  3667     150E  3EFF               	addlw	-1
  3668     150F  1D03               	skipz
  3669     1510  2D09               	goto	u5795
  3670     1511                     l4981:
  3671     1511  3001               	movlw	1
  3672     1512  00FF               	movwf	btemp+1
  3673     1513  087F               	movf	btemp+1,w
  3674     1514  07F9               	addwf	___fltol@exp1,f
  3675     1515  1D03               	btfss	3,2
  3676     1516  2D18               	goto	u5801
  3677     1517  2D19               	goto	u5800
  3678     1518                     u5801:
  3679     1518  2D08               	goto	l4979
  3680     1519                     u5800:
  3681     1519  2D31               	goto	l4991
  3682     151A                     l4983:
  3683     151A  3020               	movlw	32
  3684     151B  0279               	subwf	___fltol@exp1,w
  3685     151C  1C03               	skipc
  3686     151D  2D1F               	goto	u5811
  3687     151E  2D20               	goto	u5810
  3688     151F                     u5811:
  3689     151F  2D2C               	goto	l878
  3690     1520                     u5810:
  3691     1520  2CD5               	goto	l4959
  3692     1521                     l4989:
  3693     1521  3001               	movlw	1
  3694     1522  00CC               	movwf	??___fltol
  3695     1523                     u5825:
  3696     1523  1003               	clrc
  3697     1524  0DC8               	rlf	___fltol@f1,f
  3698     1525  0DC9               	rlf	___fltol@f1+1,f
  3699     1526  0DCA               	rlf	___fltol@f1+2,f
  3700     1527  0DCB               	rlf	___fltol@f1+3,f
  3701     1528  0BCC               	decfsz	??___fltol,f
  3702     1529  2D23               	goto	u5825
  3703     152A  3001               	movlw	1
  3704     152B  02F9               	subwf	___fltol@exp1,f
  3705     152C                     l878:
  3706     152C  0879               	movf	___fltol@exp1,w
  3707     152D  1D03               	btfss	3,2
  3708     152E  2D30               	goto	u5831
  3709     152F  2D31               	goto	u5830
  3710     1530                     u5831:
  3711     1530  2D21               	goto	l4989
  3712     1531                     u5830:
  3713     1531                     l4991:
  3714     1531  0878               	movf	___fltol@sign1,w
  3715     1532  1903               	btfsc	3,2
  3716     1533  2D35               	goto	u5841
  3717     1534  2D36               	goto	u5840
  3718     1535                     u5841:
  3719     1535  2D41               	goto	l881
  3720     1536                     u5840:
  3721     1536                     l4993:
  3722     1536  09C8               	comf	___fltol@f1,f
  3723     1537  09C9               	comf	___fltol@f1+1,f
  3724     1538  09CA               	comf	___fltol@f1+2,f
  3725     1539  09CB               	comf	___fltol@f1+3,f
  3726     153A  0AC8               	incf	___fltol@f1,f
  3727     153B  1903               	skipnz
  3728     153C  0AC9               	incf	___fltol@f1+1,f
  3729     153D  1903               	skipnz
  3730     153E  0ACA               	incf	___fltol@f1+2,f
  3731     153F  1903               	skipnz
  3732     1540  0ACB               	incf	___fltol@f1+3,f
  3733     1541                     l881:
  3734     1541                     l871:
  3735     1541  0008               	return
  3736     1542                     __end_of___fltol:
  3737                           
  3738                           	psect	text6
  3739     0347                     __ptext6:	
  3740 ;; *************** function ___fldiv *****************
  3741 ;; Defined at:
  3742 ;;		line 8 in file "C:\Program Files\Microchip\xc8\v2.46\pic\sources\c99\common\sprcdiv.c"
  3743 ;; Parameters:    Size  Location     Type
  3744 ;;  a               4   14[BANK0 ] long 
  3745 ;;  b               4   18[BANK0 ] long 
  3746 ;; Auto vars:     Size  Location     Type
  3747 ;;  grs             4   34[BANK0 ] unsigned long 
  3748 ;;  rem             4   27[BANK0 ] unsigned long 
  3749 ;;  new_exp         2   32[BANK0 ] short 
  3750 ;;  aexp            1   39[BANK0 ] unsigned char 
  3751 ;;  bexp            1   38[BANK0 ] unsigned char 
  3752 ;;  sign            1   31[BANK0 ] unsigned char 
  3753 ;; Return value:  Size  Location     Type
  3754 ;;                  4   14[BANK0 ] unsigned char 
  3755 ;; Registers used:
  3756 ;;		wreg, status,2, status,0, btemp+1
  3757 ;; Tracked objects:
  3758 ;;		On entry : 0/0
  3759 ;;		On exit  : 0/0
  3760 ;;		Unchanged: 0/0
  3761 ;; Data sizes:     COMMON   BANK0   BANK1   BANK3   BANK2
  3762 ;;      Params:         0       8       0       0       0
  3763 ;;      Locals:         0      13       0       0       0
  3764 ;;      Temps:          0       5       0       0       0
  3765 ;;      Totals:         0      26       0       0       0
  3766 ;;Total ram usage:       26 bytes
  3767 ;; Hardware stack levels used: 1
  3768 ;; Hardware stack levels required when called: 1
  3769 ;; This function calls:
  3770 ;;		Nothing
  3771 ;; This function is called by:
  3772 ;;		_update_dashboard_display
  3773 ;; This function uses a non-reentrant model
  3774 ;;
  3775                           
  3776     0347                     ___fldiv:	
  3777                           ;psect for function ___fldiv
  3778                           
  3779     0347                     l5043:	
  3780                           ;incstack = 0
  3781                           ; Regs used in ___fldiv: [wreg+status,2+status,0+btemp+1]
  3782                           
  3783     0347  1283               	bcf	3,5	;RP0=0, select bank0
  3784     0348  1303               	bcf	3,6	;RP1=0, select bank0
  3785     0349  0835               	movf	___fldiv@b+3,w
  3786     034A  3980               	andlw	128
  3787     034B  00BF               	movwf	___fldiv@sign
  3788     034C                     l5045:
  3789     034C  0835               	movf	___fldiv@b+3,w
  3790     034D  00B6               	movwf	??___fldiv
  3791     034E  0736               	addwf	??___fldiv,w
  3792     034F  00C6               	movwf	___fldiv@bexp
  3793     0350                     l5047:
  3794     0350  1FB4               	btfss	___fldiv@b+2,7
  3795     0351  2B53               	goto	u5981
  3796     0352  2B54               	goto	u5980
  3797     0353                     u5981:
  3798     0353  2B55               	goto	l5051
  3799     0354                     u5980:
  3800     0354                     l5049:
  3801     0354  1446               	bsf	___fldiv@bexp,0
  3802     0355                     l5051:
  3803     0355  0846               	movf	___fldiv@bexp,w
  3804     0356  1903               	btfsc	3,2
  3805     0357  2B59               	goto	u5991
  3806     0358  2B5A               	goto	u5990
  3807     0359                     u5991:
  3808     0359  2B6A               	goto	l5061
  3809     035A                     u5990:
  3810     035A                     l5053:
  3811     035A  0A46               	incf	___fldiv@bexp,w
  3812     035B  1D03               	btfss	3,2
  3813     035C  2B5E               	goto	u6001
  3814     035D  2B5F               	goto	u6000
  3815     035E                     u6001:
  3816     035E  2B67               	goto	l5057
  3817     035F                     u6000:
  3818     035F                     l5055:
  3819     035F  3000               	movlw	0
  3820     0360  00B5               	movwf	___fldiv@b+3
  3821     0361  3000               	movlw	0
  3822     0362  00B4               	movwf	___fldiv@b+2
  3823     0363  3000               	movlw	0
  3824     0364  00B3               	movwf	___fldiv@b+1
  3825     0365  3000               	movlw	0
  3826     0366  00B2               	movwf	___fldiv@b
  3827     0367                     l5057:
  3828     0367  17B4               	bsf	___fldiv@b+2,7
  3829     0368                     l5059:
  3830     0368  01B5               	clrf	___fldiv@b+3
  3831     0369  2B72               	goto	l5063
  3832     036A                     l5061:
  3833     036A  3000               	movlw	0
  3834     036B  00B5               	movwf	___fldiv@b+3
  3835     036C  3000               	movlw	0
  3836     036D  00B4               	movwf	___fldiv@b+2
  3837     036E  3000               	movlw	0
  3838     036F  00B3               	movwf	___fldiv@b+1
  3839     0370  3000               	movlw	0
  3840     0371  00B2               	movwf	___fldiv@b
  3841     0372                     l5063:
  3842     0372  0831               	movf	___fldiv@a+3,w
  3843     0373  3980               	andlw	128
  3844     0374  00FF               	movwf	btemp+1
  3845     0375  087F               	movf	btemp+1,w
  3846     0376  06BF               	xorwf	___fldiv@sign,f
  3847     0377                     l5065:
  3848     0377  0831               	movf	___fldiv@a+3,w
  3849     0378  00B6               	movwf	??___fldiv
  3850     0379  0736               	addwf	??___fldiv,w
  3851     037A  00C7               	movwf	___fldiv@aexp
  3852     037B                     l5067:
  3853     037B  1FB0               	btfss	___fldiv@a+2,7
  3854     037C  2B7E               	goto	u6011
  3855     037D  2B7F               	goto	u6010
  3856     037E                     u6011:
  3857     037E  2B80               	goto	l5071
  3858     037F                     u6010:
  3859     037F                     l5069:
  3860     037F  1447               	bsf	___fldiv@aexp,0
  3861     0380                     l5071:
  3862     0380  0847               	movf	___fldiv@aexp,w
  3863     0381  1903               	btfsc	3,2
  3864     0382  2B84               	goto	u6021
  3865     0383  2B85               	goto	u6020
  3866     0384                     u6021:
  3867     0384  2B95               	goto	l5081
  3868     0385                     u6020:
  3869     0385                     l5073:
  3870     0385  0A47               	incf	___fldiv@aexp,w
  3871     0386  1D03               	btfss	3,2
  3872     0387  2B89               	goto	u6031
  3873     0388  2B8A               	goto	u6030
  3874     0389                     u6031:
  3875     0389  2B92               	goto	l5077
  3876     038A                     u6030:
  3877     038A                     l5075:
  3878     038A  3000               	movlw	0
  3879     038B  00B1               	movwf	___fldiv@a+3
  3880     038C  3000               	movlw	0
  3881     038D  00B0               	movwf	___fldiv@a+2
  3882     038E  3000               	movlw	0
  3883     038F  00AF               	movwf	___fldiv@a+1
  3884     0390  3000               	movlw	0
  3885     0391  00AE               	movwf	___fldiv@a
  3886     0392                     l5077:
  3887     0392  17B0               	bsf	___fldiv@a+2,7
  3888     0393                     l5079:
  3889     0393  01B1               	clrf	___fldiv@a+3
  3890     0394  2B9D               	goto	l1034
  3891     0395                     l5081:
  3892     0395  3000               	movlw	0
  3893     0396  00B1               	movwf	___fldiv@a+3
  3894     0397  3000               	movlw	0
  3895     0398  00B0               	movwf	___fldiv@a+2
  3896     0399  3000               	movlw	0
  3897     039A  00AF               	movwf	___fldiv@a+1
  3898     039B  3000               	movlw	0
  3899     039C  00AE               	movwf	___fldiv@a
  3900     039D                     l1034:
  3901     039D  0831               	movf	___fldiv@a+3,w
  3902     039E  0430               	iorwf	___fldiv@a+2,w
  3903     039F  042F               	iorwf	___fldiv@a+1,w
  3904     03A0  042E               	iorwf	___fldiv@a,w
  3905     03A1  1D03               	skipz
  3906     03A2  2BA4               	goto	u6041
  3907     03A3  2BA5               	goto	u6040
  3908     03A4                     u6041:
  3909     03A4  2BBE               	goto	l5091
  3910     03A5                     u6040:
  3911     03A5                     l5083:
  3912     03A5  3000               	movlw	0
  3913     03A6  00B5               	movwf	___fldiv@b+3
  3914     03A7  3000               	movlw	0
  3915     03A8  00B4               	movwf	___fldiv@b+2
  3916     03A9  3000               	movlw	0
  3917     03AA  00B3               	movwf	___fldiv@b+1
  3918     03AB  3000               	movlw	0
  3919     03AC  00B2               	movwf	___fldiv@b
  3920     03AD  3080               	movlw	128
  3921     03AE  04B4               	iorwf	___fldiv@b+2,f
  3922     03AF  307F               	movlw	127
  3923     03B0  04B5               	iorwf	___fldiv@b+3,f
  3924     03B1                     l5085:
  3925     03B1  083F               	movf	___fldiv@sign,w
  3926     03B2  00FF               	movwf	btemp+1
  3927     03B3  087F               	movf	btemp+1,w
  3928     03B4  04B5               	iorwf	___fldiv@b+3,f
  3929     03B5                     l5087:
  3930     03B5  0835               	movf	___fldiv@b+3,w
  3931     03B6  00B1               	movwf	?___fldiv+3
  3932     03B7  0834               	movf	___fldiv@b+2,w
  3933     03B8  00B0               	movwf	?___fldiv+2
  3934     03B9  0833               	movf	___fldiv@b+1,w
  3935     03BA  00AF               	movwf	?___fldiv+1
  3936     03BB  0832               	movf	___fldiv@b,w
  3937     03BC  00AE               	movwf	?___fldiv
  3938     03BD  2D15               	goto	l1036
  3939     03BE                     l5091:
  3940     03BE  0846               	movf	___fldiv@bexp,w
  3941     03BF  1D03               	btfss	3,2
  3942     03C0  2BC2               	goto	u6051
  3943     03C1  2BC3               	goto	u6050
  3944     03C2                     u6051:
  3945     03C2  2BCC               	goto	l5097
  3946     03C3                     u6050:
  3947     03C3                     l5093:
  3948     03C3  3000               	movlw	0
  3949     03C4  00B1               	movwf	?___fldiv+3
  3950     03C5  3000               	movlw	0
  3951     03C6  00B0               	movwf	?___fldiv+2
  3952     03C7  3000               	movlw	0
  3953     03C8  00AF               	movwf	?___fldiv+1
  3954     03C9  3000               	movlw	0
  3955     03CA  00AE               	movwf	?___fldiv
  3956     03CB  2D15               	goto	l1036
  3957     03CC                     l5097:
  3958     03CC  0846               	movf	___fldiv@bexp,w
  3959     03CD  00B6               	movwf	??___fldiv
  3960     03CE  01B7               	clrf	??___fldiv+1
  3961     03CF  0837               	movf	??___fldiv+1,w
  3962     03D0  00B9               	movwf	??___fldiv+3
  3963     03D1  0847               	movf	___fldiv@aexp,w
  3964     03D2  0236               	subwf	??___fldiv,w
  3965     03D3  00B8               	movwf	??___fldiv+2
  3966     03D4  1C03               	skipc
  3967     03D5  03B9               	decf	??___fldiv+3,f
  3968     03D6  0838               	movf	??___fldiv+2,w
  3969     03D7  3E7F               	addlw	127
  3970     03D8  00C0               	movwf	___fldiv@new_exp
  3971     03D9  0839               	movf	??___fldiv+3,w
  3972     03DA  1803               	skipnc
  3973     03DB  3E01               	addlw	1
  3974     03DC  3E00               	addlw	0
  3975     03DD  00C1               	movwf	___fldiv@new_exp+1
  3976     03DE                     l5099:
  3977     03DE  0835               	movf	___fldiv@b+3,w
  3978     03DF  00BE               	movwf	___fldiv@rem+3
  3979     03E0  0834               	movf	___fldiv@b+2,w
  3980     03E1  00BD               	movwf	___fldiv@rem+2
  3981     03E2  0833               	movf	___fldiv@b+1,w
  3982     03E3  00BC               	movwf	___fldiv@rem+1
  3983     03E4  0832               	movf	___fldiv@b,w
  3984     03E5  00BB               	movwf	___fldiv@rem
  3985     03E6                     l5101:
  3986     03E6  3000               	movlw	0
  3987     03E7  00B5               	movwf	___fldiv@b+3
  3988     03E8  3000               	movlw	0
  3989     03E9  00B4               	movwf	___fldiv@b+2
  3990     03EA  3000               	movlw	0
  3991     03EB  00B3               	movwf	___fldiv@b+1
  3992     03EC  3000               	movlw	0
  3993     03ED  00B2               	movwf	___fldiv@b
  3994     03EE                     l5103:
  3995     03EE  3000               	movlw	0
  3996     03EF  00C5               	movwf	___fldiv@grs+3
  3997     03F0  3000               	movlw	0
  3998     03F1  00C4               	movwf	___fldiv@grs+2
  3999     03F2  3000               	movlw	0
  4000     03F3  00C3               	movwf	___fldiv@grs+1
  4001     03F4  3000               	movlw	0
  4002     03F5  00C2               	movwf	___fldiv@grs
  4003     03F6                     l5105:
  4004     03F6  01C7               	clrf	___fldiv@aexp
  4005     03F7  2C42               	goto	l5125
  4006     03F8                     l5107:
  4007     03F8  0847               	movf	___fldiv@aexp,w
  4008     03F9  1903               	btfsc	3,2
  4009     03FA  2BFC               	goto	u6061
  4010     03FB  2BFD               	goto	u6060
  4011     03FC                     u6061:
  4012     03FC  2C1D               	goto	l5117
  4013     03FD                     u6060:
  4014     03FD                     l5109:
  4015     03FD  3001               	movlw	1
  4016     03FE  00B6               	movwf	??___fldiv
  4017     03FF                     u6075:
  4018     03FF  1003               	clrc
  4019     0400  0DBB               	rlf	___fldiv@rem,f
  4020     0401  0DBC               	rlf	___fldiv@rem+1,f
  4021     0402  0DBD               	rlf	___fldiv@rem+2,f
  4022     0403  0DBE               	rlf	___fldiv@rem+3,f
  4023     0404  0BB6               	decfsz	??___fldiv,f
  4024     0405  2BFF               	goto	u6075
  4025     0406  3001               	movlw	1
  4026     0407  00B6               	movwf	??___fldiv
  4027     0408                     u6085:
  4028     0408  1003               	clrc
  4029     0409  0DB2               	rlf	___fldiv@b,f
  4030     040A  0DB3               	rlf	___fldiv@b+1,f
  4031     040B  0DB4               	rlf	___fldiv@b+2,f
  4032     040C  0DB5               	rlf	___fldiv@b+3,f
  4033     040D  0BB6               	decfsz	??___fldiv,f
  4034     040E  2C08               	goto	u6085
  4035     040F                     l5111:
  4036     040F  1FC5               	btfss	___fldiv@grs+3,7
  4037     0410  2C12               	goto	u6091
  4038     0411  2C13               	goto	u6090
  4039     0412                     u6091:
  4040     0412  2C14               	goto	l5115
  4041     0413                     u6090:
  4042     0413                     l5113:
  4043     0413  1432               	bsf	___fldiv@b,0
  4044     0414                     l5115:
  4045     0414  3001               	movlw	1
  4046     0415  00B6               	movwf	??___fldiv
  4047     0416                     u6105:
  4048     0416  1003               	clrc
  4049     0417  0DC2               	rlf	___fldiv@grs,f
  4050     0418  0DC3               	rlf	___fldiv@grs+1,f
  4051     0419  0DC4               	rlf	___fldiv@grs+2,f
  4052     041A  0DC5               	rlf	___fldiv@grs+3,f
  4053     041B  0BB6               	decfsz	??___fldiv,f
  4054     041C  2C16               	goto	u6105
  4055     041D                     l5117:
  4056     041D  0831               	movf	___fldiv@a+3,w
  4057     041E  023E               	subwf	___fldiv@rem+3,w
  4058     041F  1D03               	skipz
  4059     0420  2C2B               	goto	u6115
  4060     0421  0830               	movf	___fldiv@a+2,w
  4061     0422  023D               	subwf	___fldiv@rem+2,w
  4062     0423  1D03               	skipz
  4063     0424  2C2B               	goto	u6115
  4064     0425  082F               	movf	___fldiv@a+1,w
  4065     0426  023C               	subwf	___fldiv@rem+1,w
  4066     0427  1D03               	skipz
  4067     0428  2C2B               	goto	u6115
  4068     0429  082E               	movf	___fldiv@a,w
  4069     042A  023B               	subwf	___fldiv@rem,w
  4070     042B                     u6115:
  4071     042B  1C03               	skipc
  4072     042C  2C2E               	goto	u6111
  4073     042D  2C2F               	goto	u6110
  4074     042E                     u6111:
  4075     042E  2C3E               	goto	l5123
  4076     042F                     u6110:
  4077     042F                     l5119:
  4078     042F  1745               	bsf	___fldiv@grs+3,6
  4079     0430                     l5121:
  4080     0430  082E               	movf	___fldiv@a,w
  4081     0431  02BB               	subwf	___fldiv@rem,f
  4082     0432  082F               	movf	___fldiv@a+1,w
  4083     0433  1C03               	skipc
  4084     0434  0F2F               	incfsz	___fldiv@a+1,w
  4085     0435  02BC               	subwf	___fldiv@rem+1,f
  4086     0436  0830               	movf	___fldiv@a+2,w
  4087     0437  1C03               	skipc
  4088     0438  0F30               	incfsz	___fldiv@a+2,w
  4089     0439  02BD               	subwf	___fldiv@rem+2,f
  4090     043A  0831               	movf	___fldiv@a+3,w
  4091     043B  1C03               	skipc
  4092     043C  0F31               	incfsz	___fldiv@a+3,w
  4093     043D  02BE               	subwf	___fldiv@rem+3,f
  4094     043E                     l5123:
  4095     043E  3001               	movlw	1
  4096     043F  00FF               	movwf	btemp+1
  4097     0440  087F               	movf	btemp+1,w
  4098     0441  07C7               	addwf	___fldiv@aexp,f
  4099     0442                     l5125:
  4100     0442  301A               	movlw	26
  4101     0443  0247               	subwf	___fldiv@aexp,w
  4102     0444  1C03               	skipc
  4103     0445  2C47               	goto	u6121
  4104     0446  2C48               	goto	u6120
  4105     0447                     u6121:
  4106     0447  2BF8               	goto	l5107
  4107     0448                     u6120:
  4108     0448                     l5127:
  4109     0448  083E               	movf	___fldiv@rem+3,w
  4110     0449  043D               	iorwf	___fldiv@rem+2,w
  4111     044A  043C               	iorwf	___fldiv@rem+1,w
  4112     044B  043B               	iorwf	___fldiv@rem,w
  4113     044C  1903               	skipnz
  4114     044D  2C4F               	goto	u6131
  4115     044E  2C50               	goto	u6130
  4116     044F                     u6131:
  4117     044F  2C6F               	goto	l5141
  4118     0450                     u6130:
  4119     0450                     l5129:
  4120     0450  1442               	bsf	___fldiv@grs,0
  4121     0451  2C6F               	goto	l5141
  4122     0452                     l5131:
  4123     0452  3001               	movlw	1
  4124     0453  00B6               	movwf	??___fldiv
  4125     0454                     u6145:
  4126     0454  1003               	clrc
  4127     0455  0DB2               	rlf	___fldiv@b,f
  4128     0456  0DB3               	rlf	___fldiv@b+1,f
  4129     0457  0DB4               	rlf	___fldiv@b+2,f
  4130     0458  0DB5               	rlf	___fldiv@b+3,f
  4131     0459  0BB6               	decfsz	??___fldiv,f
  4132     045A  2C54               	goto	u6145
  4133     045B                     l5133:
  4134     045B  1FC5               	btfss	___fldiv@grs+3,7
  4135     045C  2C5E               	goto	u6151
  4136     045D  2C5F               	goto	u6150
  4137     045E                     u6151:
  4138     045E  2C60               	goto	l5137
  4139     045F                     u6150:
  4140     045F                     l5135:
  4141     045F  1432               	bsf	___fldiv@b,0
  4142     0460                     l5137:
  4143     0460  3001               	movlw	1
  4144     0461  00B6               	movwf	??___fldiv
  4145     0462                     u6165:
  4146     0462  1003               	clrc
  4147     0463  0DC2               	rlf	___fldiv@grs,f
  4148     0464  0DC3               	rlf	___fldiv@grs+1,f
  4149     0465  0DC4               	rlf	___fldiv@grs+2,f
  4150     0466  0DC5               	rlf	___fldiv@grs+3,f
  4151     0467  0BB6               	decfsz	??___fldiv,f
  4152     0468  2C62               	goto	u6165
  4153     0469                     l5139:
  4154     0469  30FF               	movlw	255
  4155     046A  07C0               	addwf	___fldiv@new_exp,f
  4156     046B  1803               	skipnc
  4157     046C  0AC1               	incf	___fldiv@new_exp+1,f
  4158     046D  30FF               	movlw	255
  4159     046E  07C1               	addwf	___fldiv@new_exp+1,f
  4160     046F                     l5141:
  4161     046F  1FB4               	btfss	___fldiv@b+2,7
  4162     0470  2C72               	goto	u6171
  4163     0471  2C73               	goto	u6170
  4164     0472                     u6171:
  4165     0472  2C52               	goto	l5131
  4166     0473                     u6170:
  4167     0473                     l5143:
  4168     0473  01C7               	clrf	___fldiv@aexp
  4169     0474                     l5145:
  4170     0474  1FC5               	btfss	___fldiv@grs+3,7
  4171     0475  2C77               	goto	u6181
  4172     0476  2C78               	goto	u6180
  4173     0477                     u6181:
  4174     0477  2C94               	goto	l5153
  4175     0478                     u6180:
  4176     0478                     l5147:
  4177     0478  30FF               	movlw	255
  4178     0479  0542               	andwf	___fldiv@grs,w
  4179     047A  00B6               	movwf	??___fldiv
  4180     047B  30FF               	movlw	255
  4181     047C  0543               	andwf	___fldiv@grs+1,w
  4182     047D  00B7               	movwf	??___fldiv+1
  4183     047E  30FF               	movlw	255
  4184     047F  0544               	andwf	___fldiv@grs+2,w
  4185     0480  00B8               	movwf	??___fldiv+2
  4186     0481  307F               	movlw	127
  4187     0482  0545               	andwf	___fldiv@grs+3,w
  4188     0483  00B9               	movwf	??___fldiv+3
  4189     0484  0839               	movf	??___fldiv+3,w
  4190     0485  0438               	iorwf	??___fldiv+2,w
  4191     0486  0437               	iorwf	??___fldiv+1,w
  4192     0487  0436               	iorwf	??___fldiv,w
  4193     0488  1903               	skipnz
  4194     0489  2C8B               	goto	u6191
  4195     048A  2C8C               	goto	u6190
  4196     048B                     u6191:
  4197     048B  2C8F               	goto	l1050
  4198     048C                     u6190:
  4199     048C                     l5149:
  4200     048C  01C7               	clrf	___fldiv@aexp
  4201     048D  0AC7               	incf	___fldiv@aexp,f
  4202     048E  2C94               	goto	l5153
  4203     048F                     l1050:
  4204     048F  1C32               	btfss	___fldiv@b,0
  4205     0490  2C92               	goto	u6201
  4206     0491  2C93               	goto	u6200
  4207     0492                     u6201:
  4208     0492  2C94               	goto	l5153
  4209     0493                     u6200:
  4210     0493  2C8C               	goto	l5149
  4211     0494                     l5153:
  4212     0494  0847               	movf	___fldiv@aexp,w
  4213     0495  1903               	btfsc	3,2
  4214     0496  2C98               	goto	u6211
  4215     0497  2C99               	goto	u6210
  4216     0498                     u6211:
  4217     0498  2CCA               	goto	l5163
  4218     0499                     u6210:
  4219     0499                     l5155:
  4220     0499  3001               	movlw	1
  4221     049A  07B2               	addwf	___fldiv@b,f
  4222     049B  3000               	movlw	0
  4223     049C  1803               	skipnc
  4224     049D  3001               	movlw	1
  4225     049E  07B3               	addwf	___fldiv@b+1,f
  4226     049F  3000               	movlw	0
  4227     04A0  1803               	skipnc
  4228     04A1  3001               	movlw	1
  4229     04A2  07B4               	addwf	___fldiv@b+2,f
  4230     04A3  3000               	movlw	0
  4231     04A4  1803               	skipnc
  4232     04A5  3001               	movlw	1
  4233     04A6  07B5               	addwf	___fldiv@b+3,f
  4234     04A7                     l5157:
  4235     04A7  1C35               	btfss	___fldiv@b+3,0
  4236     04A8  2CAA               	goto	u6221
  4237     04A9  2CAB               	goto	u6220
  4238     04AA                     u6221:
  4239     04AA  2CCA               	goto	l5163
  4240     04AB                     u6220:
  4241     04AB                     l5159:
  4242     04AB  0832               	movf	___fldiv@b,w
  4243     04AC  00B6               	movwf	??___fldiv
  4244     04AD  0833               	movf	___fldiv@b+1,w
  4245     04AE  00B7               	movwf	??___fldiv+1
  4246     04AF  0834               	movf	___fldiv@b+2,w
  4247     04B0  00B8               	movwf	??___fldiv+2
  4248     04B1  0835               	movf	___fldiv@b+3,w
  4249     04B2  00B9               	movwf	??___fldiv+3
  4250     04B3  3001               	movlw	1
  4251     04B4  00BA               	movwf	??___fldiv+4
  4252     04B5                     u6235:
  4253     04B5  0D39               	rlf	??___fldiv+3,w
  4254     04B6  0CB9               	rrf	??___fldiv+3,f
  4255     04B7  0CB8               	rrf	??___fldiv+2,f
  4256     04B8  0CB7               	rrf	??___fldiv+1,f
  4257     04B9  0CB6               	rrf	??___fldiv,f
  4258     04BA                     u6230:
  4259     04BA  0BBA               	decfsz	??___fldiv+4,f
  4260     04BB  2CB5               	goto	u6235
  4261     04BC  0839               	movf	??___fldiv+3,w
  4262     04BD  00B5               	movwf	___fldiv@b+3
  4263     04BE  0838               	movf	??___fldiv+2,w
  4264     04BF  00B4               	movwf	___fldiv@b+2
  4265     04C0  0837               	movf	??___fldiv+1,w
  4266     04C1  00B3               	movwf	___fldiv@b+1
  4267     04C2  0836               	movf	??___fldiv,w
  4268     04C3  00B2               	movwf	___fldiv@b
  4269     04C4                     l5161:
  4270     04C4  3001               	movlw	1
  4271     04C5  07C0               	addwf	___fldiv@new_exp,f
  4272     04C6  1803               	skipnc
  4273     04C7  0AC1               	incf	___fldiv@new_exp+1,f
  4274     04C8  3000               	movlw	0
  4275     04C9  07C1               	addwf	___fldiv@new_exp+1,f
  4276     04CA                     l5163:
  4277     04CA  0841               	movf	___fldiv@new_exp+1,w
  4278     04CB  3A80               	xorlw	128
  4279     04CC  00FF               	movwf	btemp+1
  4280     04CD  3080               	movlw	128
  4281     04CE  027F               	subwf	btemp+1,w
  4282     04CF  1D03               	skipz
  4283     04D0  2CD3               	goto	u6245
  4284     04D1  30FF               	movlw	255
  4285     04D2  0240               	subwf	___fldiv@new_exp,w
  4286     04D3                     u6245:
  4287     04D3  1C03               	skipc
  4288     04D4  2CD6               	goto	u6241
  4289     04D5  2CD7               	goto	u6240
  4290     04D6                     u6241:
  4291     04D6  2CE5               	goto	l5167
  4292     04D7                     u6240:
  4293     04D7                     l5165:
  4294     04D7  30FF               	movlw	255
  4295     04D8  1283               	bcf	3,5	;RP0=0, select bank0
  4296     04D9  1303               	bcf	3,6	;RP1=0, select bank0
  4297     04DA  00C0               	movwf	___fldiv@new_exp
  4298     04DB  3000               	movlw	0
  4299     04DC  00C1               	movwf	___fldiv@new_exp+1
  4300     04DD  3000               	movlw	0
  4301     04DE  00B5               	movwf	___fldiv@b+3
  4302     04DF  3000               	movlw	0
  4303     04E0  00B4               	movwf	___fldiv@b+2
  4304     04E1  3000               	movlw	0
  4305     04E2  00B3               	movwf	___fldiv@b+1
  4306     04E3  3000               	movlw	0
  4307     04E4  00B2               	movwf	___fldiv@b
  4308     04E5                     l5167:
  4309     04E5  1283               	bcf	3,5	;RP0=0, select bank0
  4310     04E6  1303               	bcf	3,6	;RP1=0, select bank0
  4311     04E7  0841               	movf	___fldiv@new_exp+1,w
  4312     04E8  3A80               	xorlw	128
  4313     04E9  00FF               	movwf	btemp+1
  4314     04EA  3080               	movlw	128
  4315     04EB  027F               	subwf	btemp+1,w
  4316     04EC  1D03               	skipz
  4317     04ED  2CF0               	goto	u6255
  4318     04EE  3001               	movlw	1
  4319     04EF  0240               	subwf	___fldiv@new_exp,w
  4320     04F0                     u6255:
  4321     04F0  1803               	skipnc
  4322     04F1  2CF3               	goto	u6251
  4323     04F2  2CF4               	goto	u6250
  4324     04F3                     u6251:
  4325     04F3  2D01               	goto	l1056
  4326     04F4                     u6250:
  4327     04F4                     l5169:
  4328     04F4  1283               	bcf	3,5	;RP0=0, select bank0
  4329     04F5  1303               	bcf	3,6	;RP1=0, select bank0
  4330     04F6  01C0               	clrf	___fldiv@new_exp
  4331     04F7  01C1               	clrf	___fldiv@new_exp+1
  4332     04F8                     l5171:
  4333     04F8  3000               	movlw	0
  4334     04F9  00B5               	movwf	___fldiv@b+3
  4335     04FA  3000               	movlw	0
  4336     04FB  00B4               	movwf	___fldiv@b+2
  4337     04FC  3000               	movlw	0
  4338     04FD  00B3               	movwf	___fldiv@b+1
  4339     04FE  3000               	movlw	0
  4340     04FF  00B2               	movwf	___fldiv@b
  4341     0500                     l5173:
  4342     0500  01BF               	clrf	___fldiv@sign
  4343     0501                     l1056:
  4344     0501  1283               	bcf	3,5	;RP0=0, select bank0
  4345     0502  1303               	bcf	3,6	;RP1=0, select bank0
  4346     0503  0840               	movf	___fldiv@new_exp,w
  4347     0504  00C6               	movwf	___fldiv@bexp
  4348     0505                     l5175:
  4349     0505  1C46               	btfss	___fldiv@bexp,0
  4350     0506  2D08               	goto	u6261
  4351     0507  2D09               	goto	u6260
  4352     0508                     u6261:
  4353     0508  2D0B               	goto	l5179
  4354     0509                     u6260:
  4355     0509                     l5177:
  4356     0509  17B4               	bsf	___fldiv@b+2,7
  4357     050A  2D0F               	goto	l5181
  4358     050B                     l5179:
  4359     050B  307F               	movlw	127
  4360     050C  00FF               	movwf	btemp+1
  4361     050D  087F               	movf	btemp+1,w
  4362     050E  05B4               	andwf	___fldiv@b+2,f
  4363     050F                     l5181:
  4364     050F  0846               	movf	___fldiv@bexp,w
  4365     0510  00B6               	movwf	??___fldiv
  4366     0511  1003               	clrc
  4367     0512  0C36               	rrf	??___fldiv,w
  4368     0513  00B5               	movwf	___fldiv@b+3
  4369     0514  2BB1               	goto	l5085
  4370     0515                     l1036:
  4371     0515  0008               	return
  4372     0516                     __end_of___fldiv:
  4373                           
  4374                           	psect	text7
  4375     125D                     __ptext7:	
  4376 ;; *************** function _init_config *****************
  4377 ;; Defined at:
  4378 ;;		line 29 in file "main.c"
  4379 ;; Parameters:    Size  Location     Type
  4380 ;;		None
  4381 ;; Auto vars:     Size  Location     Type
  4382 ;;		None
  4383 ;; Return value:  Size  Location     Type
  4384 ;;                  1    wreg      void 
  4385 ;; Registers used:
  4386 ;;		wreg, fsr0l, fsr0h, status,2, status,0, btemp+1, pclath, cstack
  4387 ;; Tracked objects:
  4388 ;;		On entry : 0/0
  4389 ;;		On exit  : 0/0
  4390 ;;		Unchanged: 0/0
  4391 ;; Data sizes:     COMMON   BANK0   BANK1   BANK3   BANK2
  4392 ;;      Params:         0       0       0       0       0
  4393 ;;      Locals:         0       0       0       0       0
  4394 ;;      Temps:          0       0       0       0       0
  4395 ;;      Totals:         0       0       0       0       0
  4396 ;;Total ram usage:        0 bytes
  4397 ;; Hardware stack levels used: 1
  4398 ;; Hardware stack levels required when called: 6
  4399 ;; This function calls:
  4400 ;;		_init_adc
  4401 ;;		_init_clcd
  4402 ;;		_init_digital_keypad
  4403 ;;		_init_ds1307
  4404 ;;		_init_i2c
  4405 ;;		_init_timer0
  4406 ;;		_init_uart
  4407 ;;		_puts
  4408 ;; This function is called by:
  4409 ;;		_main
  4410 ;; This function uses a non-reentrant model
  4411 ;;
  4412                           
  4413     125D                     _init_config:	
  4414                           ;psect for function _init_config
  4415                           
  4416     125D                     l5237:	
  4417                           ;incstack = 0
  4418                           ; Regs used in _init_config: [wreg-fsr0h+status,2+status,0+btemp+1+pclath+cstack]
  4419                           
  4420                           
  4421                           ;main.c: 31:     puts("UART Test Code\n\r");
  4422     125D  120A  158A  2001  160A  118A  	fcall	_init_clcd
  4423     1262                     l5239:
  4424                           
  4425                           ;main.c: 32: }
  4426     1262  160A  158A  26D5  160A  118A  	fcall	_init_adc
  4427     1267                     l5241:
  4428                           
  4429                           ;main.c: 33: 
  4430     1267  3000               	movlw	0
  4431     1268  1283               	bcf	3,5	;RP0=0, select bank0
  4432     1269  1303               	bcf	3,6	;RP1=0, select bank0
  4433     126A  00A9               	movwf	init_i2c@baud+3
  4434     126B  3001               	movlw	1
  4435     126C  00A8               	movwf	init_i2c@baud+2
  4436     126D  3086               	movlw	134
  4437     126E  00A7               	movwf	init_i2c@baud+1
  4438     126F  30A0               	movlw	160
  4439     1270  00A6               	movwf	init_i2c@baud
  4440     1271  120A  118A  27CE  160A  118A  	fcall	_init_i2c
  4441     1276                     l5243:
  4442                           
  4443                           ;main.c: 34: void handle_lockout()
  4444     1276  160A  158A  273D  160A  118A  	fcall	_init_ds1307
  4445     127B                     l5245:
  4446                           
  4447                           ;main.c: 35: {
  4448     127B  160A  158A  26CF  160A  118A  	fcall	_init_digital_keypad
  4449     1280                     l5247:
  4450                           
  4451                           ;main.c: 36:     unsigned char hundreds, tens, ones;
  4452     1280  160A  158A  26F6  160A  118A  	fcall	_init_timer0
  4453     1285                     l5249:
  4454                           
  4455                           ;main.c: 37: 
  4456     1285  178B               	bsf	11,7	;volatile
  4457     1286                     l5251:
  4458                           
  4459                           ;main.c: 38:     TMR0IE = 1;
  4460     1286  170B               	bsf	11,6	;volatile
  4461     1287                     l5253:
  4462                           
  4463                           ;main.c: 46:         tens = (block / 10) % 10;
  4464     1287  3000               	movlw	0
  4465     1288  1283               	bcf	3,5	;RP0=0, select bank0
  4466     1289  1303               	bcf	3,6	;RP1=0, select bank0
  4467     128A  00A9               	movwf	init_uart@baud+3
  4468     128B  3000               	movlw	0
  4469     128C  00A8               	movwf	init_uart@baud+2
  4470     128D  3025               	movlw	37
  4471     128E  00A7               	movwf	init_uart@baud+1
  4472     128F  3080               	movlw	128
  4473     1290  00A6               	movwf	init_uart@baud
  4474     1291  160A  118A  21B6  160A  118A  	fcall	_init_uart
  4475     1296                     l5255:
  4476                           
  4477                           ;main.c: 48: 
  4478     1296  309F               	movlw	low (STR_9| (0+32768))
  4479     1297  00F3               	movwf	puts@s
  4480     1298  3086               	movlw	high (STR_9| (0+32768))
  4481     1299  00F4               	movwf	puts@s+1
  4482     129A  160A  118A  2060  160A  118A  	fcall	_puts
  4483     129F                     l186:
  4484     129F  0008               	return
  4485     12A0                     __end_of_init_config:
  4486                           
  4487                           	psect	text8
  4488     11B6                     __ptext8:	
  4489 ;; *************** function _init_uart *****************
  4490 ;; Defined at:
  4491 ;;		line 4 in file "uart.c"
  4492 ;; Parameters:    Size  Location     Type
  4493 ;;  baud            4    6[BANK0 ] unsigned long 
  4494 ;; Auto vars:     Size  Location     Type
  4495 ;;		None
  4496 ;; Return value:  Size  Location     Type
  4497 ;;                  1    wreg      void 
  4498 ;; Registers used:
  4499 ;;		wreg, status,2, status,0, btemp+1, pclath, cstack
  4500 ;; Tracked objects:
  4501 ;;		On entry : 0/0
  4502 ;;		On exit  : 0/0
  4503 ;;		Unchanged: 0/0
  4504 ;; Data sizes:     COMMON   BANK0   BANK1   BANK3   BANK2
  4505 ;;      Params:         0       4       0       0       0
  4506 ;;      Locals:         0       0       0       0       0
  4507 ;;      Temps:          0       4       0       0       0
  4508 ;;      Totals:         0       8       0       0       0
  4509 ;;Total ram usage:        8 bytes
  4510 ;; Hardware stack levels used: 1
  4511 ;; Hardware stack levels required when called: 2
  4512 ;; This function calls:
  4513 ;;		___lldiv
  4514 ;; This function is called by:
  4515 ;;		_init_config
  4516 ;; This function uses a non-reentrant model
  4517 ;;
  4518                           
  4519     11B6                     _init_uart:	
  4520                           ;psect for function _init_uart
  4521                           
  4522     11B6                     l4895:	
  4523                           ;incstack = 0
  4524                           ; Regs used in _init_uart: [wreg+status,2+status,0+btemp+1+pclath+cstack]
  4525                           
  4526                           
  4527                           ;uart.c: 4: void init_uart(unsigned long baud);uart.c: 5: {;uart.c: 7:     SPEN = 1;
  4528     11B6  1283               	bcf	3,5	;RP0=0, select bank0
  4529     11B7  1303               	bcf	3,6	;RP1=0, select bank0
  4530     11B8  1798               	bsf	24,7	;volatile
  4531                           
  4532                           ;uart.c: 10:     CREN = 1;
  4533     11B9  1618               	bsf	24,4	;volatile
  4534     11BA                     l4897:
  4535                           
  4536                           ;uart.c: 13:     SPBRG = (20000000 / (16 * baud)) - 1;
  4537     11BA  0826               	movf	init_uart@baud,w
  4538     11BB  00AA               	movwf	??_init_uart
  4539     11BC  0827               	movf	init_uart@baud+1,w
  4540     11BD  00AB               	movwf	??_init_uart+1
  4541     11BE  0828               	movf	init_uart@baud+2,w
  4542     11BF  00AC               	movwf	??_init_uart+2
  4543     11C0  0829               	movf	init_uart@baud+3,w
  4544     11C1  00AD               	movwf	??_init_uart+3
  4545     11C2  3004               	movlw	4
  4546     11C3                     u5645:
  4547     11C3  1003               	clrc
  4548     11C4  0DAA               	rlf	??_init_uart,f
  4549     11C5  0DAB               	rlf	??_init_uart+1,f
  4550     11C6  0DAC               	rlf	??_init_uart+2,f
  4551     11C7  0DAD               	rlf	??_init_uart+3,f
  4552     11C8                     u5640:
  4553     11C8  3EFF               	addlw	-1
  4554     11C9  1D03               	skipz
  4555     11CA  29C3               	goto	u5645
  4556     11CB  082D               	movf	??_init_uart+3,w
  4557     11CC  00F5               	movwf	___lldiv@divisor+3
  4558     11CD  082C               	movf	??_init_uart+2,w
  4559     11CE  00F4               	movwf	___lldiv@divisor+2
  4560     11CF  082B               	movf	??_init_uart+1,w
  4561     11D0  00F3               	movwf	___lldiv@divisor+1
  4562     11D1  082A               	movf	??_init_uart,w
  4563     11D2  00F2               	movwf	___lldiv@divisor
  4564     11D3  3001               	movlw	1
  4565     11D4  00F9               	movwf	___lldiv@dividend+3
  4566     11D5  3031               	movlw	49
  4567     11D6  00F8               	movwf	___lldiv@dividend+2
  4568     11D7  302D               	movlw	45
  4569     11D8  00F7               	movwf	___lldiv@dividend+1
  4570     11D9  3000               	movlw	0
  4571     11DA  00F6               	movwf	___lldiv@dividend
  4572     11DB  160A  118A  23F9  160A  118A  	fcall	___lldiv
  4573     11E0  0872               	movf	?___lldiv,w
  4574     11E1  3EFF               	addlw	255
  4575     11E2  1683               	bsf	3,5	;RP0=1, select bank1
  4576     11E3  1303               	bcf	3,6	;RP1=0, select bank1
  4577     11E4  0099               	movwf	25	;volatile
  4578     11E5                     l349:
  4579     11E5  0008               	return
  4580     11E6                     __end_of_init_uart:
  4581                           
  4582                           	psect	text9
  4583     1EF6                     __ptext9:	
  4584 ;; *************** function _init_timer0 *****************
  4585 ;; Defined at:
  4586 ;;		line 3 in file "timer.c"
  4587 ;; Parameters:    Size  Location     Type
  4588 ;;		None
  4589 ;; Auto vars:     Size  Location     Type
  4590 ;;		None
  4591 ;; Return value:  Size  Location     Type
  4592 ;;                  1    wreg      void 
  4593 ;; Registers used:
  4594 ;;		wreg
  4595 ;; Tracked objects:
  4596 ;;		On entry : 0/0
  4597 ;;		On exit  : 0/0
  4598 ;;		Unchanged: 0/0
  4599 ;; Data sizes:     COMMON   BANK0   BANK1   BANK3   BANK2
  4600 ;;      Params:         0       0       0       0       0
  4601 ;;      Locals:         0       0       0       0       0
  4602 ;;      Temps:          0       0       0       0       0
  4603 ;;      Totals:         0       0       0       0       0
  4604 ;;Total ram usage:        0 bytes
  4605 ;; Hardware stack levels used: 1
  4606 ;; Hardware stack levels required when called: 1
  4607 ;; This function calls:
  4608 ;;		Nothing
  4609 ;; This function is called by:
  4610 ;;		_init_config
  4611 ;; This function uses a non-reentrant model
  4612 ;;
  4613                           
  4614     1EF6                     _init_timer0:	
  4615                           ;psect for function _init_timer0
  4616                           
  4617     1EF6                     l4891:	
  4618                           ;incstack = 0
  4619                           ; Regs used in _init_timer0: [wreg]
  4620                           
  4621                           
  4622                           ;timer.c: 5:     T0CS = 0;
  4623     1EF6  1683               	bsf	3,5	;RP0=1, select bank1
  4624     1EF7  1303               	bcf	3,6	;RP1=0, select bank1
  4625     1EF8  1281               	bcf	1,5	;volatile
  4626                           
  4627                           ;timer.c: 8:     PSA = 1;
  4628     1EF9  1581               	bsf	1,3	;volatile
  4629     1EFA                     l4893:
  4630                           
  4631                           ;timer.c: 10:     TMR0 = 6;
  4632     1EFA  3006               	movlw	6
  4633     1EFB  1283               	bcf	3,5	;RP0=0, select bank0
  4634     1EFC  1303               	bcf	3,6	;RP1=0, select bank0
  4635     1EFD  0081               	movwf	1	;volatile
  4636     1EFE                     l332:
  4637     1EFE  0008               	return
  4638     1EFF                     __end_of_init_timer0:
  4639                           
  4640                           	psect	text10
  4641     07CE                     __ptext10:	
  4642 ;; *************** function _init_i2c *****************
  4643 ;; Defined at:
  4644 ;;		line 4 in file "i2c.c"
  4645 ;; Parameters:    Size  Location     Type
  4646 ;;  baud            4    6[BANK0 ] unsigned long 
  4647 ;; Auto vars:     Size  Location     Type
  4648 ;;		None
  4649 ;; Return value:  Size  Location     Type
  4650 ;;                  1    wreg      void 
  4651 ;; Registers used:
  4652 ;;		wreg, status,2, status,0, btemp+1, pclath, cstack
  4653 ;; Tracked objects:
  4654 ;;		On entry : 0/0
  4655 ;;		On exit  : 0/0
  4656 ;;		Unchanged: 0/0
  4657 ;; Data sizes:     COMMON   BANK0   BANK1   BANK3   BANK2
  4658 ;;      Params:         0       4       0       0       0
  4659 ;;      Locals:         0       0       0       0       0
  4660 ;;      Temps:          0       4       0       0       0
  4661 ;;      Totals:         0       8       0       0       0
  4662 ;;Total ram usage:        8 bytes
  4663 ;; Hardware stack levels used: 1
  4664 ;; Hardware stack levels required when called: 2
  4665 ;; This function calls:
  4666 ;;		___lldiv
  4667 ;; This function is called by:
  4668 ;;		_init_config
  4669 ;; This function uses a non-reentrant model
  4670 ;;
  4671                           
  4672     07CE                     _init_i2c:	
  4673                           ;psect for function _init_i2c
  4674                           
  4675     07CE                     l4881:	
  4676                           ;incstack = 0
  4677                           ; Regs used in _init_i2c: [wreg+status,2+status,0+btemp+1+pclath+cstack]
  4678                           
  4679                           
  4680                           ;i2c.c: 4: void init_i2c(unsigned long baud);i2c.c: 5: {;i2c.c: 6:     SSPM3 = 1;
  4681     07CE  1283               	bcf	3,5	;RP0=0, select bank0
  4682     07CF  1303               	bcf	3,6	;RP1=0, select bank0
  4683     07D0  1594               	bsf	20,3	;volatile
  4684     07D1                     l4883:
  4685                           
  4686                           ;i2c.c: 7:     SSPADD = (unsigned char)(20000000/ (4 * baud)) - 1;
  4687     07D1  0826               	movf	init_i2c@baud,w
  4688     07D2  00AA               	movwf	??_init_i2c
  4689     07D3  0827               	movf	init_i2c@baud+1,w
  4690     07D4  00AB               	movwf	??_init_i2c+1
  4691     07D5  0828               	movf	init_i2c@baud+2,w
  4692     07D6  00AC               	movwf	??_init_i2c+2
  4693     07D7  0829               	movf	init_i2c@baud+3,w
  4694     07D8  00AD               	movwf	??_init_i2c+3
  4695     07D9  3002               	movlw	2
  4696     07DA                     u5635:
  4697     07DA  1003               	clrc
  4698     07DB  0DAA               	rlf	??_init_i2c,f
  4699     07DC  0DAB               	rlf	??_init_i2c+1,f
  4700     07DD  0DAC               	rlf	??_init_i2c+2,f
  4701     07DE  0DAD               	rlf	??_init_i2c+3,f
  4702     07DF                     u5630:
  4703     07DF  3EFF               	addlw	-1
  4704     07E0  1D03               	skipz
  4705     07E1  2FDA               	goto	u5635
  4706     07E2  082D               	movf	??_init_i2c+3,w
  4707     07E3  00F5               	movwf	___lldiv@divisor+3
  4708     07E4  082C               	movf	??_init_i2c+2,w
  4709     07E5  00F4               	movwf	___lldiv@divisor+2
  4710     07E6  082B               	movf	??_init_i2c+1,w
  4711     07E7  00F3               	movwf	___lldiv@divisor+1
  4712     07E8  082A               	movf	??_init_i2c,w
  4713     07E9  00F2               	movwf	___lldiv@divisor
  4714     07EA  3001               	movlw	1
  4715     07EB  00F9               	movwf	___lldiv@dividend+3
  4716     07EC  3031               	movlw	49
  4717     07ED  00F8               	movwf	___lldiv@dividend+2
  4718     07EE  302D               	movlw	45
  4719     07EF  00F7               	movwf	___lldiv@dividend+1
  4720     07F0  3000               	movlw	0
  4721     07F1  00F6               	movwf	___lldiv@dividend
  4722     07F2  160A  118A  23F9  120A  118A  	fcall	___lldiv
  4723     07F7  0872               	movf	?___lldiv,w
  4724     07F8  3EFF               	addlw	255
  4725     07F9  1683               	bsf	3,5	;RP0=1, select bank1
  4726     07FA  1303               	bcf	3,6	;RP1=0, select bank1
  4727     07FB  0093               	movwf	19	;volatile
  4728     07FC                     l4885:
  4729                           
  4730                           ;i2c.c: 9:     SSPEN = 1;
  4731     07FC  1283               	bcf	3,5	;RP0=0, select bank0
  4732     07FD  1303               	bcf	3,6	;RP1=0, select bank0
  4733     07FE  1694               	bsf	20,5	;volatile
  4734     07FF                     l94:
  4735     07FF  0008               	return
  4736     0800                     __end_of_init_i2c:
  4737                           
  4738                           	psect	text11
  4739     13F9                     __ptext11:	
  4740 ;; *************** function ___lldiv *****************
  4741 ;; Defined at:
  4742 ;;		line 5 in file "C:\Program Files\Microchip\xc8\v2.46\pic\sources\c99\common\__lldiv.c"
  4743 ;; Parameters:    Size  Location     Type
  4744 ;;  divisor         4    2[COMMON] unsigned long 
  4745 ;;  dividend        4    6[COMMON] unsigned long 
  4746 ;; Auto vars:     Size  Location     Type
  4747 ;;  quotient        4    1[BANK0 ] unsigned long 
  4748 ;;  counter         1    5[BANK0 ] unsigned char 
  4749 ;; Return value:  Size  Location     Type
  4750 ;;                  4    2[COMMON] unsigned long 
  4751 ;; Registers used:
  4752 ;;		wreg, status,2, status,0, btemp+1
  4753 ;; Tracked objects:
  4754 ;;		On entry : 0/0
  4755 ;;		On exit  : 0/0
  4756 ;;		Unchanged: 0/0
  4757 ;; Data sizes:     COMMON   BANK0   BANK1   BANK3   BANK2
  4758 ;;      Params:         8       0       0       0       0
  4759 ;;      Locals:         0       5       0       0       0
  4760 ;;      Temps:          0       1       0       0       0
  4761 ;;      Totals:         8       6       0       0       0
  4762 ;;Total ram usage:       14 bytes
  4763 ;; Hardware stack levels used: 1
  4764 ;; Hardware stack levels required when called: 1
  4765 ;; This function calls:
  4766 ;;		Nothing
  4767 ;; This function is called by:
  4768 ;;		_init_i2c
  4769 ;;		_init_uart
  4770 ;; This function uses a non-reentrant model
  4771 ;;
  4772                           
  4773     13F9                     ___lldiv:	
  4774                           ;psect for function ___lldiv
  4775                           
  4776     13F9                     l4827:	
  4777                           ;incstack = 0
  4778                           ; Regs used in ___lldiv: [wreg+status,2+status,0+btemp+1]
  4779                           
  4780     13F9  3000               	movlw	0
  4781     13FA  1283               	bcf	3,5	;RP0=0, select bank0
  4782     13FB  1303               	bcf	3,6	;RP1=0, select bank0
  4783     13FC  00A4               	movwf	___lldiv@quotient+3
  4784     13FD  3000               	movlw	0
  4785     13FE  00A3               	movwf	___lldiv@quotient+2
  4786     13FF  3000               	movlw	0
  4787     1400  00A2               	movwf	___lldiv@quotient+1
  4788     1401  3000               	movlw	0
  4789     1402  00A1               	movwf	___lldiv@quotient
  4790     1403  0875               	movf	___lldiv@divisor+3,w
  4791     1404  0474               	iorwf	___lldiv@divisor+2,w
  4792     1405  0473               	iorwf	___lldiv@divisor+1,w
  4793     1406  0472               	iorwf	___lldiv@divisor,w
  4794     1407  1903               	skipnz
  4795     1408  2C0A               	goto	u5531
  4796     1409  2C0B               	goto	u5530
  4797     140A                     u5531:
  4798     140A  2C58               	goto	l4849
  4799     140B                     u5530:
  4800     140B                     l4829:
  4801     140B  01A5               	clrf	___lldiv@counter
  4802     140C  0AA5               	incf	___lldiv@counter,f
  4803     140D  2C1B               	goto	l4835
  4804     140E                     l4831:
  4805     140E  3001               	movlw	1
  4806     140F  00A0               	movwf	??___lldiv
  4807     1410                     u5545:
  4808     1410  1003               	clrc
  4809     1411  0DF2               	rlf	___lldiv@divisor,f
  4810     1412  0DF3               	rlf	___lldiv@divisor+1,f
  4811     1413  0DF4               	rlf	___lldiv@divisor+2,f
  4812     1414  0DF5               	rlf	___lldiv@divisor+3,f
  4813     1415  0BA0               	decfsz	??___lldiv,f
  4814     1416  2C10               	goto	u5545
  4815     1417                     l4833:
  4816     1417  3001               	movlw	1
  4817     1418  00FF               	movwf	btemp+1
  4818     1419  087F               	movf	btemp+1,w
  4819     141A  07A5               	addwf	___lldiv@counter,f
  4820     141B                     l4835:
  4821     141B  1FF5               	btfss	___lldiv@divisor+3,7
  4822     141C  2C1E               	goto	u5551
  4823     141D  2C1F               	goto	u5550
  4824     141E                     u5551:
  4825     141E  2C0E               	goto	l4831
  4826     141F                     u5550:
  4827     141F                     l4837:
  4828     141F  3001               	movlw	1
  4829     1420  00A0               	movwf	??___lldiv
  4830     1421                     u5565:
  4831     1421  1003               	clrc
  4832     1422  0DA1               	rlf	___lldiv@quotient,f
  4833     1423  0DA2               	rlf	___lldiv@quotient+1,f
  4834     1424  0DA3               	rlf	___lldiv@quotient+2,f
  4835     1425  0DA4               	rlf	___lldiv@quotient+3,f
  4836     1426  0BA0               	decfsz	??___lldiv,f
  4837     1427  2C21               	goto	u5565
  4838     1428                     l4839:
  4839     1428  0875               	movf	___lldiv@divisor+3,w
  4840     1429  0279               	subwf	___lldiv@dividend+3,w
  4841     142A  1D03               	skipz
  4842     142B  2C36               	goto	u5575
  4843     142C  0874               	movf	___lldiv@divisor+2,w
  4844     142D  0278               	subwf	___lldiv@dividend+2,w
  4845     142E  1D03               	skipz
  4846     142F  2C36               	goto	u5575
  4847     1430  0873               	movf	___lldiv@divisor+1,w
  4848     1431  0277               	subwf	___lldiv@dividend+1,w
  4849     1432  1D03               	skipz
  4850     1433  2C36               	goto	u5575
  4851     1434  0872               	movf	___lldiv@divisor,w
  4852     1435  0276               	subwf	___lldiv@dividend,w
  4853     1436                     u5575:
  4854     1436  1C03               	skipc
  4855     1437  2C39               	goto	u5571
  4856     1438  2C3A               	goto	u5570
  4857     1439                     u5571:
  4858     1439  2C49               	goto	l4845
  4859     143A                     u5570:
  4860     143A                     l4841:
  4861     143A  0872               	movf	___lldiv@divisor,w
  4862     143B  02F6               	subwf	___lldiv@dividend,f
  4863     143C  0873               	movf	___lldiv@divisor+1,w
  4864     143D  1C03               	skipc
  4865     143E  0F73               	incfsz	___lldiv@divisor+1,w
  4866     143F  02F7               	subwf	___lldiv@dividend+1,f
  4867     1440  0874               	movf	___lldiv@divisor+2,w
  4868     1441  1C03               	skipc
  4869     1442  0F74               	incfsz	___lldiv@divisor+2,w
  4870     1443  02F8               	subwf	___lldiv@dividend+2,f
  4871     1444  0875               	movf	___lldiv@divisor+3,w
  4872     1445  1C03               	skipc
  4873     1446  0F75               	incfsz	___lldiv@divisor+3,w
  4874     1447  02F9               	subwf	___lldiv@dividend+3,f
  4875     1448                     l4843:
  4876     1448  1421               	bsf	___lldiv@quotient,0
  4877     1449                     l4845:
  4878     1449  3001               	movlw	1
  4879     144A                     u5585:
  4880     144A  1003               	clrc
  4881     144B  0CF5               	rrf	___lldiv@divisor+3,f
  4882     144C  0CF4               	rrf	___lldiv@divisor+2,f
  4883     144D  0CF3               	rrf	___lldiv@divisor+1,f
  4884     144E  0CF2               	rrf	___lldiv@divisor,f
  4885     144F  3EFF               	addlw	-1
  4886     1450  1D03               	skipz
  4887     1451  2C4A               	goto	u5585
  4888     1452                     l4847:
  4889     1452  3001               	movlw	1
  4890     1453  02A5               	subwf	___lldiv@counter,f
  4891     1454  1D03               	btfss	3,2
  4892     1455  2C57               	goto	u5591
  4893     1456  2C58               	goto	u5590
  4894     1457                     u5591:
  4895     1457  2C1F               	goto	l4837
  4896     1458                     u5590:
  4897     1458                     l4849:
  4898     1458  0824               	movf	___lldiv@quotient+3,w
  4899     1459  00F5               	movwf	?___lldiv+3
  4900     145A  0823               	movf	___lldiv@quotient+2,w
  4901     145B  00F4               	movwf	?___lldiv+2
  4902     145C  0822               	movf	___lldiv@quotient+1,w
  4903     145D  00F3               	movwf	?___lldiv+1
  4904     145E  0821               	movf	___lldiv@quotient,w
  4905     145F  00F2               	movwf	?___lldiv
  4906     1460                     l713:
  4907     1460  0008               	return
  4908     1461                     __end_of___lldiv:
  4909                           
  4910                           	psect	text12
  4911     1F3D                     __ptext12:	
  4912 ;; *************** function _init_ds1307 *****************
  4913 ;; Defined at:
  4914 ;;		line 7 in file "ds1307.c"
  4915 ;; Parameters:    Size  Location     Type
  4916 ;;		None
  4917 ;; Auto vars:     Size  Location     Type
  4918 ;;  dummy           1    6[COMMON] unsigned char 
  4919 ;; Return value:  Size  Location     Type
  4920 ;;                  1    wreg      void 
  4921 ;; Registers used:
  4922 ;;		wreg, status,2, status,0, pclath, cstack
  4923 ;; Tracked objects:
  4924 ;;		On entry : 0/0
  4925 ;;		On exit  : 0/0
  4926 ;;		Unchanged: 0/0
  4927 ;; Data sizes:     COMMON   BANK0   BANK1   BANK3   BANK2
  4928 ;;      Params:         0       0       0       0       0
  4929 ;;      Locals:         1       0       0       0       0
  4930 ;;      Temps:          0       0       0       0       0
  4931 ;;      Totals:         1       0       0       0       0
  4932 ;;Total ram usage:        1 bytes
  4933 ;; Hardware stack levels used: 1
  4934 ;; Hardware stack levels required when called: 5
  4935 ;; This function calls:
  4936 ;;		_read_ds1307
  4937 ;;		_write_ds1307
  4938 ;; This function is called by:
  4939 ;;		_init_config
  4940 ;; This function uses a non-reentrant model
  4941 ;;
  4942                           
  4943     1F3D                     _init_ds1307:	
  4944                           ;psect for function _init_ds1307
  4945                           
  4946     1F3D                     l4861:	
  4947                           ;incstack = 0
  4948                           ; Regs used in _init_ds1307: [wreg+status,2+status,0+pclath+cstack]
  4949                           
  4950                           
  4951                           ;ds1307.c: 9:     unsigned char dummy;;ds1307.c: 11:     dummy = read_ds1307(0x00);
  4952     1F3D  3000               	movlw	0
  4953     1F3E  160A  118A  20D8  160A  158A  	fcall	_read_ds1307
  4954     1F43  00F6               	movwf	init_ds1307@dummy
  4955     1F44                     l4863:
  4956                           
  4957                           ;ds1307.c: 12:     dummy = dummy & 0x7F;
  4958     1F44  0876               	movf	init_ds1307@dummy,w
  4959     1F45  397F               	andlw	127
  4960     1F46  00F6               	movwf	init_ds1307@dummy
  4961     1F47                     l4865:
  4962                           
  4963                           ;ds1307.c: 13:     write_ds1307(0x00, dummy);
  4964     1F47  0876               	movf	init_ds1307@dummy,w
  4965     1F48  00F3               	movwf	write_ds1307@data
  4966     1F49  3000               	movlw	0
  4967     1F4A  160A  118A  2000  160A  158A  	fcall	_write_ds1307
  4968     1F4F                     l53:
  4969     1F4F  0008               	return
  4970     1F50                     __end_of_init_ds1307:
  4971                           
  4972                           	psect	text13
  4973     1ECF                     __ptext13:	
  4974 ;; *************** function _init_digital_keypad *****************
  4975 ;; Defined at:
  4976 ;;		line 4 in file "digital_keypad.c"
  4977 ;; Parameters:    Size  Location     Type
  4978 ;;		None
  4979 ;; Auto vars:     Size  Location     Type
  4980 ;;		None
  4981 ;; Return value:  Size  Location     Type
  4982 ;;                  1    wreg      void 
  4983 ;; Registers used:
  4984 ;;		wreg, status,2
  4985 ;; Tracked objects:
  4986 ;;		On entry : 0/0
  4987 ;;		On exit  : 0/0
  4988 ;;		Unchanged: 0/0
  4989 ;; Data sizes:     COMMON   BANK0   BANK1   BANK3   BANK2
  4990 ;;      Params:         0       0       0       0       0
  4991 ;;      Locals:         0       0       0       0       0
  4992 ;;      Temps:          0       0       0       0       0
  4993 ;;      Totals:         0       0       0       0       0
  4994 ;;Total ram usage:        0 bytes
  4995 ;; Hardware stack levels used: 1
  4996 ;; Hardware stack levels required when called: 1
  4997 ;; This function calls:
  4998 ;;		Nothing
  4999 ;; This function is called by:
  5000 ;;		_init_config
  5001 ;; This function uses a non-reentrant model
  5002 ;;
  5003                           
  5004     1ECF                     _init_digital_keypad:	
  5005                           ;psect for function _init_digital_keypad
  5006                           
  5007     1ECF                     l4889:	
  5008                           ;incstack = 0
  5009                           ; Regs used in _init_digital_keypad: [wreg+status,2]
  5010                           
  5011                           
  5012                           ;digital_keypad.c: 7:     TRISB = TRISB | 0x3F;
  5013     1ECF  1683               	bsf	3,5	;RP0=1, select bank1
  5014     1ED0  1303               	bcf	3,6	;RP1=0, select bank1
  5015     1ED1  0806               	movf	6,w	;volatile
  5016     1ED2  383F               	iorlw	63
  5017     1ED3  0086               	movwf	6	;volatile
  5018     1ED4                     l253:
  5019     1ED4  0008               	return
  5020     1ED5                     __end_of_init_digital_keypad:
  5021                           
  5022                           	psect	text14
  5023     0801                     __ptext14:	
  5024 ;; *************** function _init_clcd *****************
  5025 ;; Defined at:
  5026 ;;		line 40 in file "clcd.c"
  5027 ;; Parameters:    Size  Location     Type
  5028 ;;		None
  5029 ;; Auto vars:     Size  Location     Type
  5030 ;;		None
  5031 ;; Return value:  Size  Location     Type
  5032 ;;                  1    wreg      void 
  5033 ;; Registers used:
  5034 ;;		wreg, status,2, status,0, pclath, cstack
  5035 ;; Tracked objects:
  5036 ;;		On entry : 0/0
  5037 ;;		On exit  : 0/0
  5038 ;;		Unchanged: 0/0
  5039 ;; Data sizes:     COMMON   BANK0   BANK1   BANK3   BANK2
  5040 ;;      Params:         0       0       0       0       0
  5041 ;;      Locals:         0       0       0       0       0
  5042 ;;      Temps:          0       0       0       0       0
  5043 ;;      Totals:         0       0       0       0       0
  5044 ;;Total ram usage:        0 bytes
  5045 ;; Hardware stack levels used: 1
  5046 ;; Hardware stack levels required when called: 3
  5047 ;; This function calls:
  5048 ;;		_init_display_controller
  5049 ;; This function is called by:
  5050 ;;		_init_config
  5051 ;; This function uses a non-reentrant model
  5052 ;;
  5053                           
  5054     0801                     _init_clcd:	
  5055                           ;psect for function _init_clcd
  5056                           
  5057     0801                     l4853:	
  5058                           ;incstack = 0
  5059                           ; Regs used in _init_clcd: [wreg+status,2+status,0+pclath+cstack]
  5060                           
  5061                           
  5062                           ;clcd.c: 43:     TRISD = 0x00;
  5063     0801  1683               	bsf	3,5	;RP0=1, select bank1
  5064     0802  1303               	bcf	3,6	;RP1=0, select bank1
  5065     0803  0188               	clrf	8	;volatile
  5066     0804                     l4855:
  5067                           
  5068                           ;clcd.c: 46:     TRISE2 = 0;
  5069     0804  1109               	bcf	9,2	;volatile
  5070     0805                     l4857:
  5071                           
  5072                           ;clcd.c: 47:     TRISE1 = 0;
  5073     0805  1089               	bcf	9,1	;volatile
  5074     0806                     l4859:
  5075                           
  5076                           ;clcd.c: 49:     init_display_controller();
  5077     0806  160A  118A  22E4  120A  158A  	fcall	_init_display_controller
  5078     080B                     l23:
  5079     080B  0008               	return
  5080     080C                     __end_of_init_clcd:
  5081                           
  5082                           	psect	text15
  5083     12E4                     __ptext15:	
  5084 ;; *************** function _init_display_controller *****************
  5085 ;; Defined at:
  5086 ;;		line 16 in file "clcd.c"
  5087 ;; Parameters:    Size  Location     Type
  5088 ;;		None
  5089 ;; Auto vars:     Size  Location     Type
  5090 ;;		None
  5091 ;; Return value:  Size  Location     Type
  5092 ;;                  1    wreg      void 
  5093 ;; Registers used:
  5094 ;;		wreg, status,2, status,0, pclath, cstack
  5095 ;; Tracked objects:
  5096 ;;		On entry : 0/0
  5097 ;;		On exit  : 0/0
  5098 ;;		Unchanged: 0/0
  5099 ;; Data sizes:     COMMON   BANK0   BANK1   BANK3   BANK2
  5100 ;;      Params:         0       0       0       0       0
  5101 ;;      Locals:         0       0       0       0       0
  5102 ;;      Temps:          2       0       0       0       0
  5103 ;;      Totals:         2       0       0       0       0
  5104 ;;Total ram usage:        2 bytes
  5105 ;; Hardware stack levels used: 1
  5106 ;; Hardware stack levels required when called: 2
  5107 ;; This function calls:
  5108 ;;		_clcd_write
  5109 ;; This function is called by:
  5110 ;;		_init_clcd
  5111 ;; This function uses a non-reentrant model
  5112 ;;
  5113                           
  5114     12E4                     _init_display_controller:	
  5115                           ;psect for function _init_display_controller
  5116                           
  5117     12E4                     l4421:	
  5118                           ;incstack = 0
  5119                           ; Regs used in _init_display_controller: [wreg+status,2+status,0+pclath+cstack]
  5120                           
  5121                           
  5122                           ;clcd.c: 18:     _delay((unsigned long)((30)*(20000000/4000.0)));
  5123     12E4  30C3               	movlw	195
  5124     12E5  00F7               	movwf	??_init_display_controller+1
  5125     12E6  30CD               	movlw	205
  5126     12E7  00F6               	movwf	??_init_display_controller
  5127     12E8                     u6767:
  5128     12E8  0BF6               	decfsz	??_init_display_controller,f
  5129     12E9  2AE8               	goto	u6767
  5130     12EA  0BF7               	decfsz	??_init_display_controller+1,f
  5131     12EB  2AE8               	goto	u6767
  5132     12EC                     l4423:
  5133                           
  5134                           ;clcd.c: 21:     clcd_write(0x33, 0);
  5135     12EC  01F2               	clrf	clcd_write@mode
  5136     12ED  3033               	movlw	51
  5137     12EE  160A  158A  27E0  160A  118A  	fcall	_clcd_write
  5138     12F3                     l4425:
  5139                           
  5140                           ;clcd.c: 22:     _delay((unsigned long)((4100)*(20000000/4000000.0)));
  5141     12F3  301B               	movlw	27
  5142     12F4  00F7               	movwf	??_init_display_controller+1
  5143     12F5  309E               	movlw	158
  5144     12F6  00F6               	movwf	??_init_display_controller
  5145     12F7                     u6777:
  5146     12F7  0BF6               	decfsz	??_init_display_controller,f
  5147     12F8  2AF7               	goto	u6777
  5148     12F9  0BF7               	decfsz	??_init_display_controller+1,f
  5149     12FA  2AF7               	goto	u6777
  5150     12FB  0000               	nop
  5151                           
  5152                           ;clcd.c: 23:     clcd_write(0x33, 0);
  5153     12FC  01F2               	clrf	clcd_write@mode
  5154     12FD  3033               	movlw	51
  5155     12FE  160A  158A  27E0  160A  118A  	fcall	_clcd_write
  5156     1303                     l4427:
  5157                           
  5158                           ;clcd.c: 24:     _delay((unsigned long)((1)*(20000000/4000000.0)));
  5159     1303  2B04               	nop2	;2 cycle nop
  5160     1304  2B05               	nop2	;2 cycle nop
  5161     1305  0000               	nop
  5162                           
  5163                           ;clcd.c: 26:     clcd_write(0x33, 0);
  5164     1306  01F2               	clrf	clcd_write@mode
  5165     1307  3033               	movlw	51
  5166     1308  160A  158A  27E0  160A  118A  	fcall	_clcd_write
  5167     130D                     l4429:
  5168                           
  5169                           ;clcd.c: 27:     _delay((unsigned long)((1)*(20000000/4000000.0)));
  5170     130D  2B0E               	nop2	;2 cycle nop
  5171     130E  2B0F               	nop2	;2 cycle nop
  5172     130F  0000               	nop
  5173                           
  5174                           ;clcd.c: 30:    clcd_write(0x38, 0);
  5175     1310  01F2               	clrf	clcd_write@mode
  5176     1311  3038               	movlw	56
  5177     1312  160A  158A  27E0  160A  118A  	fcall	_clcd_write
  5178     1317                     l4431:
  5179                           
  5180                           ;clcd.c: 31:     _delay((unsigned long)((100)*(20000000/4000000.0)));
  5181     1317  30A6               	movlw	166
  5182     1318  00F6               	movwf	??_init_display_controller
  5183     1319                     u6787:
  5184     1319  0BF6               	decfsz	??_init_display_controller,f
  5185     131A  2B19               	goto	u6787
  5186     131B  0000               	nop
  5187     131C                     l4433:
  5188                           
  5189                           ;clcd.c: 32:     clcd_write(0x01, 0);
  5190     131C  01F2               	clrf	clcd_write@mode
  5191     131D  3001               	movlw	1
  5192     131E  160A  158A  27E0  160A  118A  	fcall	_clcd_write
  5193                           
  5194                           ;clcd.c: 33:     _delay((unsigned long)((500)*(20000000/4000000.0)));
  5195     1323  3004               	movlw	4
  5196     1324  00F7               	movwf	??_init_display_controller+1
  5197     1325  303D               	movlw	61
  5198     1326  00F6               	movwf	??_init_display_controller
  5199     1327                     u6797:
  5200     1327  0BF6               	decfsz	??_init_display_controller,f
  5201     1328  2B27               	goto	u6797
  5202     1329  0BF7               	decfsz	??_init_display_controller+1,f
  5203     132A  2B27               	goto	u6797
  5204     132B  2B2C               	nop2
  5205     132C                     l4435:
  5206                           
  5207                           ;clcd.c: 34:     clcd_write(0x0C, 0);
  5208     132C  01F2               	clrf	clcd_write@mode
  5209     132D  300C               	movlw	12
  5210     132E  160A  158A  27E0  160A  118A  	fcall	_clcd_write
  5211     1333                     l4437:
  5212                           
  5213                           ;clcd.c: 35:     _delay((unsigned long)((100)*(20000000/4000000.0)));
  5214     1333  30A6               	movlw	166
  5215     1334  00F6               	movwf	??_init_display_controller
  5216     1335                     u6807:
  5217     1335  0BF6               	decfsz	??_init_display_controller,f
  5218     1336  2B35               	goto	u6807
  5219     1337  0000               	nop
  5220     1338                     l20:
  5221     1338  0008               	return
  5222     1339                     __end_of_init_display_controller:
  5223                           
  5224                           	psect	text16
  5225     1ED5                     __ptext16:	
  5226 ;; *************** function _init_adc *****************
  5227 ;; Defined at:
  5228 ;;		line 4 in file "adc.c"
  5229 ;; Parameters:    Size  Location     Type
  5230 ;;		None
  5231 ;; Auto vars:     Size  Location     Type
  5232 ;;		None
  5233 ;; Return value:  Size  Location     Type
  5234 ;;                  1    wreg      void 
  5235 ;; Registers used:
  5236 ;;		None
  5237 ;; Tracked objects:
  5238 ;;		On entry : 0/0
  5239 ;;		On exit  : 0/0
  5240 ;;		Unchanged: 0/0
  5241 ;; Data sizes:     COMMON   BANK0   BANK1   BANK3   BANK2
  5242 ;;      Params:         0       0       0       0       0
  5243 ;;      Locals:         0       0       0       0       0
  5244 ;;      Temps:          0       0       0       0       0
  5245 ;;      Totals:         0       0       0       0       0
  5246 ;;Total ram usage:        0 bytes
  5247 ;; Hardware stack levels used: 1
  5248 ;; Hardware stack levels required when called: 1
  5249 ;; This function calls:
  5250 ;;		Nothing
  5251 ;; This function is called by:
  5252 ;;		_init_config
  5253 ;; This function uses a non-reentrant model
  5254 ;;
  5255                           
  5256     1ED5                     _init_adc:	
  5257                           ;psect for function _init_adc
  5258                           
  5259     1ED5                     l4887:	
  5260                           ;incstack = 0
  5261                           ; Regs used in _init_adc: []
  5262                           
  5263                           
  5264                           ;adc.c: 6:     ADFM = 1;
  5265     1ED5  1683               	bsf	3,5	;RP0=1, select bank1
  5266     1ED6  1303               	bcf	3,6	;RP1=0, select bank1
  5267     1ED7  179F               	bsf	31,7	;volatile
  5268                           
  5269                           ;adc.c: 8:     ADON = 1;
  5270     1ED8  1283               	bcf	3,5	;RP0=0, select bank0
  5271     1ED9  1303               	bcf	3,6	;RP1=0, select bank0
  5272     1EDA  141F               	bsf	31,0	;volatile
  5273     1EDB                     l240:
  5274     1EDB  0008               	return
  5275     1EDC                     __end_of_init_adc:
  5276                           
  5277                           	psect	text17
  5278     0B68                     __ptext17:	
  5279 ;; *************** function _handle_menu_navigation *****************
  5280 ;; Defined at:
  5281 ;;		line 34 in file "function.c"
  5282 ;; Parameters:    Size  Location     Type
  5283 ;;  down_press      1    wreg     PTR unsigned char 
  5284 ;;		 -> main@down_press(1), 
  5285 ;;  long_press_c    1   63[BANK0 ] PTR unsigned int 
  5286 ;;		 -> main@long_press_counter(2), 
  5287 ;; Auto vars:     Size  Location     Type
  5288 ;;  down_press      1   64[BANK0 ] PTR unsigned char 
  5289 ;;		 -> main@down_press(1), 
  5290 ;;  long_press_t    2    0        unsigned int 
  5291 ;;  key             1    0        unsigned char 
  5292 ;; Return value:  Size  Location     Type
  5293 ;;                  1    wreg      void 
  5294 ;; Registers used:
  5295 ;;		wreg, fsr0l, fsr0h, status,2, status,0, btemp+1, pclath, cstack
  5296 ;; Tracked objects:
  5297 ;;		On entry : 0/0
  5298 ;;		On exit  : 0/0
  5299 ;;		Unchanged: 0/0
  5300 ;; Data sizes:     COMMON   BANK0   BANK1   BANK3   BANK2
  5301 ;;      Params:         0       1       0       0       0
  5302 ;;      Locals:         0       1       0       0       0
  5303 ;;      Temps:          0       0       0       0       0
  5304 ;;      Totals:         0       2       0       0       0
  5305 ;;Total ram usage:        2 bytes
  5306 ;; Hardware stack levels used: 1
  5307 ;; Hardware stack levels required when called: 8
  5308 ;; This function calls:
  5309 ;;		_clcd_print
  5310 ;;		_clcd_write
  5311 ;;		_detect_single_press
  5312 ;;		_enter_menu_option
  5313 ;;		_read_digital_keypad
  5314 ;; This function is called by:
  5315 ;;		_main
  5316 ;; This function uses a non-reentrant model
  5317 ;;
  5318                           
  5319     0B68                     _handle_menu_navigation:	
  5320                           ;psect for function _handle_menu_navigation
  5321                           
  5322                           
  5323                           ;incstack = 0
  5324 ;; hardware stack exceeded
  5325                           ; Regs used in _handle_menu_navigation: [wreg-fsr0h+status,2+status,0+btemp+1+pclath+cst
      +                          ack]
  5326                           ;handle_menu_navigation@down_press stored from wreg
  5327     0B68  1283               	bcf	3,5	;RP0=0, select bank0
  5328     0B69  1303               	bcf	3,6	;RP1=0, select bank0
  5329     0B6A  00E0               	movwf	handle_menu_navigation@down_press
  5330     0B6B                     l5369:
  5331     0B6B  160A  118A  2086  120A  158A  	fcall	_detect_single_press
  5332     0B70                     l5371:
  5333     0B70                     l5373:
  5334                           
  5335                           ;function.c: 44:     if (read_digital_keypad(0) == 0x2F) {
  5336     0B70  3000               	movlw	0
  5337     0B71  160A  118A  20AE  120A  158A  	fcall	_read_digital_keypad
  5338     0B76  3A2F               	xorlw	47
  5339     0B77  1D03               	skipz
  5340     0B78  2B7A               	goto	u6491
  5341     0B79  2B7B               	goto	u6490
  5342     0B7A                     u6491:
  5343     0B7A  2B88               	goto	l5379
  5344     0B7B                     u6490:
  5345     0B7B                     l5375:
  5346                           
  5347                           ;function.c: 45:         sw5_pressed = 1;
  5348     0B7B  1283               	bcf	3,5	;RP0=0, select bank0
  5349     0B7C  1303               	bcf	3,6	;RP1=0, select bank0
  5350     0B7D  01EA               	clrf	handle_menu_navigation@sw5_pressed
  5351     0B7E  0AEA               	incf	handle_menu_navigation@sw5_pressed,f
  5352     0B7F                     l5377:
  5353                           
  5354                           ;function.c: 46:         sw5_timer++;
  5355     0B7F  3001               	movlw	1
  5356     0B80  1683               	bsf	3,5	;RP0=1, select bank1
  5357     0B81  1303               	bcf	3,6	;RP1=0, select bank1
  5358     0B82  07A7               	addwf	handle_menu_navigation@sw5_timer^(0+128),f
  5359     0B83  1803               	skipnc
  5360     0B84  0AA8               	incf	(handle_menu_navigation@sw5_timer+1)^(0+128),f
  5361     0B85  3000               	movlw	0
  5362     0B86  07A8               	addwf	(handle_menu_navigation@sw5_timer+1)^(0+128),f
  5363                           
  5364                           ;function.c: 47:     } else {
  5365     0B87  2BC0               	goto	l5395
  5366     0B88                     l5379:
  5367                           
  5368                           ;function.c: 48:         if (sw5_pressed) {
  5369     0B88  1283               	bcf	3,5	;RP0=0, select bank0
  5370     0B89  1303               	bcf	3,6	;RP1=0, select bank0
  5371     0B8A  086A               	movf	handle_menu_navigation@sw5_pressed,w
  5372     0B8B  1903               	btfsc	3,2
  5373     0B8C  2B8E               	goto	u6501
  5374     0B8D  2B8F               	goto	u6500
  5375     0B8E                     u6501:
  5376     0B8E  2BC0               	goto	l5395
  5377     0B8F                     u6500:
  5378     0B8F                     l5381:
  5379                           
  5380                           ;function.c: 49:             if (sw5_timer >= long_press_threshold) {
  5381     0B8F  3000               	movlw	0
  5382     0B90  1683               	bsf	3,5	;RP0=1, select bank1
  5383     0B91  1303               	bcf	3,6	;RP1=0, select bank1
  5384     0B92  0228               	subwf	(handle_menu_navigation@sw5_timer+1)^(0+128),w
  5385     0B93  3014               	movlw	20
  5386     0B94  1903               	skipnz
  5387     0B95  0227               	subwf	handle_menu_navigation@sw5_timer^(0+128),w
  5388     0B96  1C03               	skipc
  5389     0B97  2B99               	goto	u6511
  5390     0B98  2B9A               	goto	u6510
  5391     0B99                     u6511:
  5392     0B99  2BA6               	goto	l5385
  5393     0B9A                     u6510:
  5394     0B9A                     l5383:
  5395                           
  5396                           ;function.c: 51:                 enter_menu_option(*down_press);
  5397     0B9A  1283               	bcf	3,5	;RP0=0, select bank0
  5398     0B9B  1303               	bcf	3,6	;RP1=0, select bank0
  5399     0B9C  0860               	movf	handle_menu_navigation@down_press,w
  5400     0B9D  0084               	movwf	4
  5401     0B9E  1383               	bcf	3,7	;select IRP bank0
  5402     0B9F  0800               	movf	0,w
  5403     0BA0  160A  118A  25D3  120A  158A  	fcall	_enter_menu_option
  5404                           
  5405                           ;function.c: 52:             } else {
  5406     0BA5  2BB9               	goto	l5391
  5407     0BA6                     l5385:
  5408                           
  5409                           ;function.c: 54:                 if (*down_press > 0) {
  5410     0BA6  1283               	bcf	3,5	;RP0=0, select bank0
  5411     0BA7  1303               	bcf	3,6	;RP1=0, select bank0
  5412     0BA8  0860               	movf	handle_menu_navigation@down_press,w
  5413     0BA9  0084               	movwf	4
  5414     0BAA  1383               	bcf	3,7	;select IRP bank0
  5415     0BAB  0800               	movf	0,w
  5416     0BAC  1903               	btfsc	3,2
  5417     0BAD  2BAF               	goto	u6521
  5418     0BAE  2BB0               	goto	u6520
  5419     0BAF                     u6521:
  5420     0BAF  2BB5               	goto	l5389
  5421     0BB0                     u6520:
  5422     0BB0                     l5387:
  5423                           
  5424                           ;function.c: 55:                     (*down_press)--;
  5425     0BB0  0860               	movf	handle_menu_navigation@down_press,w
  5426     0BB1  0084               	movwf	4
  5427     0BB2  3001               	movlw	1
  5428     0BB3  0280               	subwf	0,f
  5429                           
  5430                           ;function.c: 56:                 } else {
  5431     0BB4  2BB9               	goto	l5391
  5432     0BB5                     l5389:
  5433                           
  5434                           ;function.c: 57:                     *down_press = 7;
  5435     0BB5  0860               	movf	handle_menu_navigation@down_press,w
  5436     0BB6  0084               	movwf	4
  5437     0BB7  3007               	movlw	7
  5438     0BB8  0080               	movwf	0
  5439     0BB9                     l5391:
  5440                           
  5441                           ;function.c: 60:             sw5_pressed = 0;
  5442     0BB9  1283               	bcf	3,5	;RP0=0, select bank0
  5443     0BBA  1303               	bcf	3,6	;RP1=0, select bank0
  5444     0BBB  01EA               	clrf	handle_menu_navigation@sw5_pressed
  5445     0BBC                     l5393:
  5446                           
  5447                           ;function.c: 61:             sw5_timer = 0;
  5448     0BBC  1683               	bsf	3,5	;RP0=1, select bank1
  5449     0BBD  1303               	bcf	3,6	;RP1=0, select bank1
  5450     0BBE  01A7               	clrf	handle_menu_navigation@sw5_timer^(0+128)
  5451     0BBF  01A8               	clrf	(handle_menu_navigation@sw5_timer+1)^(0+128)
  5452     0BC0                     l5395:
  5453                           
  5454                           ;function.c: 66:     if (read_digital_keypad(0) == 0x1F) {
  5455     0BC0  3000               	movlw	0
  5456     0BC1  160A  118A  20AE  120A  158A  	fcall	_read_digital_keypad
  5457     0BC6  3A1F               	xorlw	31
  5458     0BC7  1D03               	skipz
  5459     0BC8  2BCA               	goto	u6531
  5460     0BC9  2BCB               	goto	u6530
  5461     0BCA                     u6531:
  5462     0BCA  2BD8               	goto	l5401
  5463     0BCB                     u6530:
  5464     0BCB                     l5397:
  5465                           
  5466                           ;function.c: 67:         sw6_pressed = 1;
  5467     0BCB  1283               	bcf	3,5	;RP0=0, select bank0
  5468     0BCC  1303               	bcf	3,6	;RP1=0, select bank0
  5469     0BCD  01E9               	clrf	handle_menu_navigation@sw6_pressed
  5470     0BCE  0AE9               	incf	handle_menu_navigation@sw6_pressed,f
  5471     0BCF                     l5399:
  5472                           
  5473                           ;function.c: 68:         sw6_timer++;
  5474     0BCF  3001               	movlw	1
  5475     0BD0  1683               	bsf	3,5	;RP0=1, select bank1
  5476     0BD1  1303               	bcf	3,6	;RP1=0, select bank1
  5477     0BD2  07A5               	addwf	handle_menu_navigation@sw6_timer^(0+128),f
  5478     0BD3  1803               	skipnc
  5479     0BD4  0AA6               	incf	(handle_menu_navigation@sw6_timer+1)^(0+128),f
  5480     0BD5  3000               	movlw	0
  5481     0BD6  07A6               	addwf	(handle_menu_navigation@sw6_timer+1)^(0+128),f
  5482                           
  5483                           ;function.c: 69:     } else {
  5484     0BD7  2C0F               	goto	l5419
  5485     0BD8                     l5401:
  5486                           
  5487                           ;function.c: 70:         if (sw6_pressed) {
  5488     0BD8  1283               	bcf	3,5	;RP0=0, select bank0
  5489     0BD9  1303               	bcf	3,6	;RP1=0, select bank0
  5490     0BDA  0869               	movf	handle_menu_navigation@sw6_pressed,w
  5491     0BDB  1903               	btfsc	3,2
  5492     0BDC  2BDE               	goto	u6541
  5493     0BDD  2BDF               	goto	u6540
  5494     0BDE                     u6541:
  5495     0BDE  2C0F               	goto	l5419
  5496     0BDF                     u6540:
  5497     0BDF                     l5403:
  5498                           
  5499                           ;function.c: 71:             if (sw6_timer >= long_press_threshold) {
  5500     0BDF  3000               	movlw	0
  5501     0BE0  1683               	bsf	3,5	;RP0=1, select bank1
  5502     0BE1  1303               	bcf	3,6	;RP1=0, select bank1
  5503     0BE2  0226               	subwf	(handle_menu_navigation@sw6_timer+1)^(0+128),w
  5504     0BE3  3014               	movlw	20
  5505     0BE4  1903               	skipnz
  5506     0BE5  0225               	subwf	handle_menu_navigation@sw6_timer^(0+128),w
  5507     0BE6  1C03               	skipc
  5508     0BE7  2BE9               	goto	u6551
  5509     0BE8  2BEA               	goto	u6550
  5510     0BE9                     u6551:
  5511     0BE9  2BF6               	goto	l5409
  5512     0BEA                     u6550:
  5513     0BEA                     l5405:
  5514                           
  5515                           ;function.c: 73:                 clcd_write(0x01, 0);
  5516     0BEA  01F2               	clrf	clcd_write@mode
  5517     0BEB  3001               	movlw	1
  5518     0BEC  160A  158A  27E0  120A  158A  	fcall	_clcd_write
  5519     0BF1                     l5407:
  5520                           
  5521                           ;function.c: 74:                 dash_mode = 1;
  5522     0BF1  1283               	bcf	3,5	;RP0=0, select bank0
  5523     0BF2  1303               	bcf	3,6	;RP1=0, select bank0
  5524     0BF3  01EC               	clrf	_dash_mode
  5525     0BF4  0AEC               	incf	_dash_mode,f
  5526                           
  5527                           ;function.c: 75:             } else {
  5528     0BF5  2C0A               	goto	l5415
  5529     0BF6                     l5409:
  5530                           
  5531                           ;function.c: 77:                 (*down_press)++;
  5532     0BF6  3001               	movlw	1
  5533     0BF7  00FF               	movwf	btemp+1
  5534     0BF8  1283               	bcf	3,5	;RP0=0, select bank0
  5535     0BF9  1303               	bcf	3,6	;RP1=0, select bank0
  5536     0BFA  0860               	movf	handle_menu_navigation@down_press,w
  5537     0BFB  0084               	movwf	4
  5538     0BFC  087F               	movf	btemp+1,w
  5539     0BFD  1383               	bcf	3,7	;select IRP bank0
  5540     0BFE  0780               	addwf	0,f
  5541     0BFF                     l5411:
  5542                           
  5543                           ;function.c: 78:                 if (*down_press > 7) {
  5544     0BFF  0860               	movf	handle_menu_navigation@down_press,w
  5545     0C00  0084               	movwf	4
  5546     0C01  3008               	movlw	8
  5547     0C02  0200               	subwf	0,w
  5548     0C03  1C03               	skipc
  5549     0C04  2C06               	goto	u6561
  5550     0C05  2C07               	goto	u6560
  5551     0C06                     u6561:
  5552     0C06  2C0A               	goto	l5415
  5553     0C07                     u6560:
  5554     0C07                     l5413:
  5555                           
  5556                           ;function.c: 79:                     *down_press = 0;
  5557     0C07  0860               	movf	handle_menu_navigation@down_press,w
  5558     0C08  0084               	movwf	4
  5559     0C09  0180               	clrf	0
  5560     0C0A                     l5415:
  5561                           
  5562                           ;function.c: 82:             sw6_pressed = 0;
  5563     0C0A  01E9               	clrf	handle_menu_navigation@sw6_pressed
  5564     0C0B                     l5417:
  5565                           
  5566                           ;function.c: 83:             sw6_timer = 0;
  5567     0C0B  1683               	bsf	3,5	;RP0=1, select bank1
  5568     0C0C  1303               	bcf	3,6	;RP1=0, select bank1
  5569     0C0D  01A5               	clrf	handle_menu_navigation@sw6_timer^(0+128)
  5570     0C0E  01A6               	clrf	(handle_menu_navigation@sw6_timer+1)^(0+128)
  5571     0C0F                     l5419:
  5572                           
  5573                           ;function.c: 88:     if (*down_press == 0) {
  5574     0C0F  1283               	bcf	3,5	;RP0=0, select bank0
  5575     0C10  0860               	movf	handle_menu_navigation@down_press,w
  5576     0C11  0084               	movwf	4
  5577     0C12  1383               	bcf	3,7	;select IRP bank0
  5578     0C13  0800               	movf	0,w
  5579     0C14  1D03               	btfss	3,2
  5580     0C15  2C17               	goto	u6571
  5581     0C16  2C18               	goto	u6570
  5582     0C17                     u6571:
  5583     0C17  2C2F               	goto	l5423
  5584     0C18                     u6570:
  5585     0C18                     l5421:
  5586                           
  5587                           ;function.c: 89:         clcd_print("View Logs    ", (0x80 + 3));
  5588     0C18  3027               	movlw	low (STR_12| (0+32768))
  5589     0C19  00F6               	movwf	clcd_print@str
  5590     0C1A  3087               	movlw	high (STR_12| (0+32768))
  5591     0C1B  00F7               	movwf	clcd_print@str+1
  5592     0C1C  3083               	movlw	131
  5593     0C1D  00F8               	movwf	clcd_print@addr
  5594     0C1E  160A  118A  2187  120A  158A  	fcall	_clcd_print
  5595                           
  5596                           ;function.c: 90:         clcd_print("Clear Logs   ", (0xC0 + 3));
  5597     0C23  3035               	movlw	low (STR_13| (0+32768))
  5598     0C24  00F6               	movwf	clcd_print@str
  5599     0C25  3087               	movlw	high (STR_13| (0+32768))
  5600     0C26  00F7               	movwf	clcd_print@str+1
  5601     0C27  30C3               	movlw	195
  5602     0C28  00F8               	movwf	clcd_print@addr
  5603     0C29  160A  118A  2187  120A  158A  	fcall	_clcd_print
  5604                           
  5605                           ;function.c: 91:     } else if (*down_press == 2) {
  5606     0C2E  2C8C               	goto	l5435
  5607     0C2F                     l5423:
  5608     0C2F  0860               	movf	handle_menu_navigation@down_press,w
  5609     0C30  0084               	movwf	4
  5610     0C31  3002               	movlw	2
  5611     0C32  0600               	xorwf	0,w
  5612     0C33  1D03               	btfss	3,2
  5613     0C34  2C36               	goto	u6581
  5614     0C35  2C37               	goto	u6580
  5615     0C36                     u6581:
  5616     0C36  2C4E               	goto	l5427
  5617     0C37                     u6580:
  5618     0C37                     l5425:
  5619                           
  5620                           ;function.c: 92:         clcd_print("Clear Logs   ", (0x80 + 3));
  5621     0C37  3035               	movlw	low (STR_13| (0+32768))
  5622     0C38  00F6               	movwf	clcd_print@str
  5623     0C39  3087               	movlw	high (STR_13| (0+32768))
  5624     0C3A  00F7               	movwf	clcd_print@str+1
  5625     0C3B  3083               	movlw	131
  5626     0C3C  00F8               	movwf	clcd_print@addr
  5627     0C3D  160A  118A  2187  120A  158A  	fcall	_clcd_print
  5628                           
  5629                           ;function.c: 93:         clcd_print("Download log ", (0xC0 + 3));
  5630     0C42  300B               	movlw	low (STR_18| (0+32768))
  5631     0C43  00F6               	movwf	clcd_print@str
  5632     0C44  3087               	movlw	high (STR_18| (0+32768))
  5633     0C45  00F7               	movwf	clcd_print@str+1
  5634     0C46  30C3               	movlw	195
  5635     0C47  00F8               	movwf	clcd_print@addr
  5636     0C48  160A  118A  2187  120A  158A  	fcall	_clcd_print
  5637                           
  5638                           ;function.c: 94:     } else if (*down_press == 4) {
  5639     0C4D  2C8C               	goto	l5435
  5640     0C4E                     l5427:
  5641     0C4E  0860               	movf	handle_menu_navigation@down_press,w
  5642     0C4F  0084               	movwf	4
  5643     0C50  3004               	movlw	4
  5644     0C51  0600               	xorwf	0,w
  5645     0C52  1D03               	btfss	3,2
  5646     0C53  2C55               	goto	u6591
  5647     0C54  2C56               	goto	u6590
  5648     0C55                     u6591:
  5649     0C55  2C6D               	goto	l5431
  5650     0C56                     u6590:
  5651     0C56                     l5429:
  5652                           
  5653                           ;function.c: 95:         clcd_print("Download log ", (0x80 + 3));
  5654     0C56  300B               	movlw	low (STR_18| (0+32768))
  5655     0C57  00F6               	movwf	clcd_print@str
  5656     0C58  3087               	movlw	high (STR_18| (0+32768))
  5657     0C59  00F7               	movwf	clcd_print@str+1
  5658     0C5A  3083               	movlw	131
  5659     0C5B  00F8               	movwf	clcd_print@addr
  5660     0C5C  160A  118A  2187  120A  158A  	fcall	_clcd_print
  5661                           
  5662                           ;function.c: 96:         clcd_print("Rest Password", (0xC0 + 3));
  5663     0C61  3019               	movlw	low (STR_20| (0+32768))
  5664     0C62  00F6               	movwf	clcd_print@str
  5665     0C63  3087               	movlw	high (STR_20| (0+32768))
  5666     0C64  00F7               	movwf	clcd_print@str+1
  5667     0C65  30C3               	movlw	195
  5668     0C66  00F8               	movwf	clcd_print@addr
  5669     0C67  160A  118A  2187  120A  158A  	fcall	_clcd_print
  5670                           
  5671                           ;function.c: 97:     } else if (*down_press == 6) {
  5672     0C6C  2C8C               	goto	l5435
  5673     0C6D                     l5431:
  5674     0C6D  0860               	movf	handle_menu_navigation@down_press,w
  5675     0C6E  0084               	movwf	4
  5676     0C6F  3006               	movlw	6
  5677     0C70  0600               	xorwf	0,w
  5678     0C71  1D03               	btfss	3,2
  5679     0C72  2C74               	goto	u6601
  5680     0C73  2C75               	goto	u6600
  5681     0C74                     u6601:
  5682     0C74  2C8C               	goto	l455
  5683     0C75                     u6600:
  5684     0C75                     l5433:
  5685                           
  5686                           ;function.c: 98:         clcd_print("Rest Password", (0x80 + 3));
  5687     0C75  3019               	movlw	low (STR_20| (0+32768))
  5688     0C76  00F6               	movwf	clcd_print@str
  5689     0C77  3087               	movlw	high (STR_20| (0+32768))
  5690     0C78  00F7               	movwf	clcd_print@str+1
  5691     0C79  3083               	movlw	131
  5692     0C7A  00F8               	movwf	clcd_print@addr
  5693     0C7B  160A  118A  2187  120A  158A  	fcall	_clcd_print
  5694                           
  5695                           ;function.c: 99:         clcd_print("Reset Time   ", (0xC0 + 3));
  5696     0C80  30EF               	movlw	low (STR_22| (0+32768))
  5697     0C81  00F6               	movwf	clcd_print@str
  5698     0C82  3086               	movlw	high (STR_22| (0+32768))
  5699     0C83  00F7               	movwf	clcd_print@str+1
  5700     0C84  30C3               	movlw	195
  5701     0C85  00F8               	movwf	clcd_print@addr
  5702     0C86  160A  118A  2187  120A  158A  	fcall	_clcd_print
  5703     0C8B  2C8C               	goto	l5435
  5704     0C8C                     l455:
  5705     0C8C                     l5435:
  5706                           
  5707                           ;function.c: 103:     if (*down_press % 2 == 0) {
  5708     0C8C  1283               	bcf	3,5	;RP0=0, select bank0
  5709     0C8D  1303               	bcf	3,6	;RP1=0, select bank0
  5710     0C8E  0860               	movf	handle_menu_navigation@down_press,w
  5711     0C8F  0084               	movwf	4
  5712     0C90  1383               	bcf	3,7	;select IRP bank0
  5713     0C91  1800               	btfsc	0,0
  5714     0C92  2C94               	goto	u6611
  5715     0C93  2C95               	goto	u6610
  5716     0C94                     u6611:
  5717     0C94  2CAC               	goto	l5439
  5718     0C95                     u6610:
  5719     0C95                     l5437:
  5720                           
  5721                           ;function.c: 104:         clcd_print("*", (0x80 + 1));
  5722     0C95  30CC               	movlw	low (STR_23| (0+32768))
  5723     0C96  00F6               	movwf	clcd_print@str
  5724     0C97  3087               	movlw	high (STR_23| (0+32768))
  5725     0C98  00F7               	movwf	clcd_print@str+1
  5726     0C99  3081               	movlw	129
  5727     0C9A  00F8               	movwf	clcd_print@addr
  5728     0C9B  160A  118A  2187  120A  158A  	fcall	_clcd_print
  5729                           
  5730                           ;function.c: 105:         clcd_print(" ", (0xC0 + 1));
  5731     0CA0  3048               	movlw	low ((STR_31+15)| (0+32768))
  5732     0CA1  00F6               	movwf	clcd_print@str
  5733     0CA2  3086               	movlw	high ((STR_31+15)| (0+32768))
  5734     0CA3  00F7               	movwf	clcd_print@str+1
  5735     0CA4  30C1               	movlw	193
  5736     0CA5  00F8               	movwf	clcd_print@addr
  5737     0CA6  160A  118A  2187  120A  158A  	fcall	_clcd_print
  5738                           
  5739                           ;function.c: 106:     } else {
  5740     0CAB  2CC2               	goto	l461
  5741     0CAC                     l5439:
  5742                           
  5743                           ;function.c: 107:         clcd_print("*", (0xC0 + 1));
  5744     0CAC  30CC               	movlw	low (STR_23| (0+32768))
  5745     0CAD  00F6               	movwf	clcd_print@str
  5746     0CAE  3087               	movlw	high (STR_23| (0+32768))
  5747     0CAF  00F7               	movwf	clcd_print@str+1
  5748     0CB0  30C1               	movlw	193
  5749     0CB1  00F8               	movwf	clcd_print@addr
  5750     0CB2  160A  118A  2187  120A  158A  	fcall	_clcd_print
  5751                           
  5752                           ;function.c: 108:         clcd_print(" ", (0x80 + 1));
  5753     0CB7  3048               	movlw	low ((STR_31+15)| (0+32768))
  5754     0CB8  00F6               	movwf	clcd_print@str
  5755     0CB9  3086               	movlw	high ((STR_31+15)| (0+32768))
  5756     0CBA  00F7               	movwf	clcd_print@str+1
  5757     0CBB  3081               	movlw	129
  5758     0CBC  00F8               	movwf	clcd_print@addr
  5759     0CBD  160A  118A  2187  120A  158A  	fcall	_clcd_print
  5760     0CC2                     l461:
  5761     0CC2  0008               	return
  5762     0CC3                     __end_of_handle_menu_navigation:
  5763                           
  5764                           	psect	text18
  5765     15D3                     __ptext18:	
  5766 ;; *************** function _enter_menu_option *****************
  5767 ;; Defined at:
  5768 ;;		line 424 in file "function.c"
  5769 ;; Parameters:    Size  Location     Type
  5770 ;;  down_press      1    wreg     unsigned char 
  5771 ;; Auto vars:     Size  Location     Type
  5772 ;;  down_press      1   62[BANK0 ] unsigned char 
  5773 ;; Return value:  Size  Location     Type
  5774 ;;                  1    wreg      void 
  5775 ;; Registers used:
  5776 ;;		wreg, fsr0l, fsr0h, status,2, status,0, btemp+1, pclath, cstack
  5777 ;; Tracked objects:
  5778 ;;		On entry : 0/0
  5779 ;;		On exit  : 0/0
  5780 ;;		Unchanged: 0/0
  5781 ;; Data sizes:     COMMON   BANK0   BANK1   BANK3   BANK2
  5782 ;;      Params:         0       0       0       0       0
  5783 ;;      Locals:         0       1       0       0       0
  5784 ;;      Temps:          0       3       0       0       0
  5785 ;;      Totals:         0       4       0       0       0
  5786 ;;Total ram usage:        4 bytes
  5787 ;; Hardware stack levels used: 1
  5788 ;; Hardware stack levels required when called: 7
  5789 ;; This function calls:
  5790 ;;		_change_pass
  5791 ;;		_change_time
  5792 ;;		_clcd_print
  5793 ;;		_clcd_write
  5794 ;;		_display_logs
  5795 ;;		_download_log
  5796 ;; This function is called by:
  5797 ;;		_handle_menu_navigation
  5798 ;; This function uses a non-reentrant model
  5799 ;;
  5800                           
  5801     15D3                     _enter_menu_option:	
  5802                           ;psect for function _enter_menu_option
  5803                           
  5804                           
  5805                           ;incstack = 0
  5806 ;; hardware stack exceeded
  5807                           ; Regs used in _enter_menu_option: [wreg-fsr0h+status,2+status,0+btemp+1+pclath+cstack]
  5808                           ;enter_menu_option@down_press stored from wreg
  5809     15D3  1283               	bcf	3,5	;RP0=0, select bank0
  5810     15D4  1303               	bcf	3,6	;RP1=0, select bank0
  5811     15D5  00DE               	movwf	enter_menu_option@down_press
  5812     15D6                     l4907:
  5813                           
  5814                           ;function.c: 425:     clcd_write(0x01, 0);
  5815     15D6  01F2               	clrf	clcd_write@mode
  5816     15D7  3001               	movlw	1
  5817     15D8  160A  158A  27E0  160A  118A  	fcall	_clcd_write
  5818     15DD                     l4909:
  5819                           
  5820                           ;function.c: 426:     _delay((unsigned long)((500)*(20000000/4000000.0)));
  5821     15DD  3004               	movlw	4
  5822     15DE  1283               	bcf	3,5	;RP0=0, select bank0
  5823     15DF  1303               	bcf	3,6	;RP1=0, select bank0
  5824     15E0  00DC               	movwf	??_enter_menu_option+1
  5825     15E1  303D               	movlw	61
  5826     15E2  00DB               	movwf	??_enter_menu_option
  5827     15E3                     u6817:
  5828     15E3  0BDB               	decfsz	??_enter_menu_option,f
  5829     15E4  2DE3               	goto	u6817
  5830     15E5  0BDC               	decfsz	??_enter_menu_option+1,f
  5831     15E6  2DE3               	goto	u6817
  5832     15E7                     l4911:
  5833                           
  5834                           ;function.c: 428:     if (down_press == 0) {
  5835     15E7  1283               	bcf	3,5	;RP0=0, select bank0
  5836     15E8  1303               	bcf	3,6	;RP1=0, select bank0
  5837     15E9  085E               	movf	enter_menu_option@down_press,w
  5838     15EA  1D03               	btfss	3,2
  5839     15EB  2DED               	goto	u5671
  5840     15EC  2DEE               	goto	u5670
  5841     15ED                     u5671:
  5842     15ED  2DF4               	goto	l4915
  5843     15EE                     u5670:
  5844     15EE                     l4913:
  5845                           
  5846                           ;function.c: 431:         display_logs();
  5847     15EE  120A  158A  2645  160A  118A  	fcall	_display_logs
  5848                           
  5849                           ;function.c: 435:     } else if (down_press == 1 || down_press == 2) {
  5850     15F3  2E8B               	goto	l573
  5851     15F4                     l4915:
  5852     15F4  035E               	decf	enter_menu_option@down_press,w
  5853     15F5  1903               	btfsc	3,2
  5854     15F6  2DF8               	goto	u5681
  5855     15F7  2DF9               	goto	u5680
  5856     15F8                     u5681:
  5857     15F8  2DFF               	goto	l4919
  5858     15F9                     u5680:
  5859     15F9                     l4917:
  5860     15F9  3002               	movlw	2
  5861     15FA  065E               	xorwf	enter_menu_option@down_press,w
  5862     15FB  1D03               	btfss	3,2
  5863     15FC  2DFE               	goto	u5691
  5864     15FD  2DFF               	goto	u5690
  5865     15FE                     u5691:
  5866     15FE  2E28               	goto	l4929
  5867     15FF                     u5690:
  5868     15FF                     l4919:
  5869                           
  5870                           ;function.c: 437:         clear_flag = 1;
  5871     15FF  3001               	movlw	1
  5872     1600  1683               	bsf	3,5	;RP0=1, select bank1
  5873     1601  1303               	bcf	3,6	;RP1=0, select bank1
  5874     1602  00AB               	movwf	_clear_flag^(0+128)
  5875     1603  3000               	movlw	0
  5876     1604  00AC               	movwf	(_clear_flag^(0+128)+1)
  5877     1605                     l4921:
  5878                           
  5879                           ;function.c: 438:         log_counter = 0;
  5880     1605  1283               	bcf	3,5	;RP0=0, select bank0
  5881     1606  1303               	bcf	3,6	;RP1=0, select bank0
  5882     1607  01E3               	clrf	_log_counter
  5883     1608  01E4               	clrf	_log_counter+1
  5884     1609                     l4923:
  5885                           
  5886                           ;function.c: 440:         clcd_print("logs cleared ", (0x80 + 2));
  5887     1609  30FD               	movlw	low (STR_49| (0+32768))
  5888     160A  00F6               	movwf	clcd_print@str
  5889     160B  3086               	movlw	high (STR_49| (0+32768))
  5890     160C  00F7               	movwf	clcd_print@str+1
  5891     160D  3082               	movlw	130
  5892     160E  00F8               	movwf	clcd_print@addr
  5893     160F  160A  118A  2187  160A  118A  	fcall	_clcd_print
  5894     1614                     l4925:
  5895                           
  5896                           ;function.c: 441:         _delay((unsigned long)((1000)*(20000000/4000.0)));
  5897     1614  301A               	movlw	26
  5898     1615  1283               	bcf	3,5	;RP0=0, select bank0
  5899     1616  1303               	bcf	3,6	;RP1=0, select bank0
  5900     1617  00DD               	movwf	??_enter_menu_option+2
  5901     1618  305E               	movlw	94
  5902     1619  00DC               	movwf	??_enter_menu_option+1
  5903     161A  306D               	movlw	109
  5904     161B  00DB               	movwf	??_enter_menu_option
  5905     161C                     u6827:
  5906     161C  0BDB               	decfsz	??_enter_menu_option,f
  5907     161D  2E1C               	goto	u6827
  5908     161E  0BDC               	decfsz	??_enter_menu_option+1,f
  5909     161F  2E1C               	goto	u6827
  5910     1620  0BDD               	decfsz	??_enter_menu_option+2,f
  5911     1621  2E1C               	goto	u6827
  5912     1622  2E23               	nop2
  5913     1623                     l4927:
  5914                           
  5915                           ;function.c: 442:         dash_mode = 1;
  5916     1623  1283               	bcf	3,5	;RP0=0, select bank0
  5917     1624  1303               	bcf	3,6	;RP1=0, select bank0
  5918     1625  01EC               	clrf	_dash_mode
  5919     1626  0AEC               	incf	_dash_mode,f
  5920                           
  5921                           ;function.c: 443:     }
  5922     1627  2E8B               	goto	l573
  5923     1628                     l4929:
  5924     1628  3003               	movlw	3
  5925     1629  065E               	xorwf	enter_menu_option@down_press,w
  5926     162A  1903               	btfsc	3,2
  5927     162B  2E2D               	goto	u5701
  5928     162C  2E2E               	goto	u5700
  5929     162D                     u5701:
  5930     162D  2E34               	goto	l4933
  5931     162E                     u5700:
  5932     162E                     l4931:
  5933     162E  3004               	movlw	4
  5934     162F  065E               	xorwf	enter_menu_option@down_press,w
  5935     1630  1D03               	btfss	3,2
  5936     1631  2E33               	goto	u5711
  5937     1632  2E34               	goto	u5710
  5938     1633                     u5711:
  5939     1633  2E6D               	goto	l4947
  5940     1634                     u5710:
  5941     1634                     l4933:
  5942                           
  5943                           ;function.c: 445:         clcd_write(0x01, 0);
  5944     1634  01F2               	clrf	clcd_write@mode
  5945     1635  3001               	movlw	1
  5946     1636  160A  158A  27E0  160A  118A  	fcall	_clcd_write
  5947     163B                     l4935:
  5948                           
  5949                           ;function.c: 446:         download_log();
  5950     163B  120A  118A  2516  160A  118A  	fcall	_download_log
  5951     1640                     l4937:
  5952                           
  5953                           ;function.c: 447:         clcd_print("logs downloaded", (0x80 + 0));
  5954     1640  30D0               	movlw	low (STR_50| (0+32768))
  5955     1641  00F6               	movwf	clcd_print@str
  5956     1642  3086               	movlw	high (STR_50| (0+32768))
  5957     1643  00F7               	movwf	clcd_print@str+1
  5958     1644  3080               	movlw	128
  5959     1645  00F8               	movwf	clcd_print@addr
  5960     1646  160A  118A  2187  160A  118A  	fcall	_clcd_print
  5961     164B                     l4939:
  5962                           
  5963                           ;function.c: 448:         clcd_print("successfully", (0xC0 + 0));
  5964     164B  305D               	movlw	low (STR_51| (0+32768))
  5965     164C  00F6               	movwf	clcd_print@str
  5966     164D  3087               	movlw	high (STR_51| (0+32768))
  5967     164E  00F7               	movwf	clcd_print@str+1
  5968     164F  30C0               	movlw	192
  5969     1650  00F8               	movwf	clcd_print@addr
  5970     1651  160A  118A  2187  160A  118A  	fcall	_clcd_print
  5971     1656                     l4941:
  5972                           
  5973                           ;function.c: 449:         _delay((unsigned long)((1000)*(20000000/4000.0)));
  5974     1656  301A               	movlw	26
  5975     1657  1283               	bcf	3,5	;RP0=0, select bank0
  5976     1658  1303               	bcf	3,6	;RP1=0, select bank0
  5977     1659  00DD               	movwf	??_enter_menu_option+2
  5978     165A  305E               	movlw	94
  5979     165B  00DC               	movwf	??_enter_menu_option+1
  5980     165C  306D               	movlw	109
  5981     165D  00DB               	movwf	??_enter_menu_option
  5982     165E                     u6837:
  5983     165E  0BDB               	decfsz	??_enter_menu_option,f
  5984     165F  2E5E               	goto	u6837
  5985     1660  0BDC               	decfsz	??_enter_menu_option+1,f
  5986     1661  2E5E               	goto	u6837
  5987     1662  0BDD               	decfsz	??_enter_menu_option+2,f
  5988     1663  2E5E               	goto	u6837
  5989     1664  2E65               	nop2
  5990     1665                     l4943:
  5991                           
  5992                           ;function.c: 450:         clcd_write(0x01, 0);
  5993     1665  01F2               	clrf	clcd_write@mode
  5994     1666  3001               	movlw	1
  5995     1667  160A  158A  27E0  160A  118A  	fcall	_clcd_write
  5996     166C  2E23               	goto	l4927
  5997     166D                     l4947:
  5998     166D  3005               	movlw	5
  5999     166E  065E               	xorwf	enter_menu_option@down_press,w
  6000     166F  1903               	btfsc	3,2
  6001     1670  2E72               	goto	u5721
  6002     1671  2E73               	goto	u5720
  6003     1672                     u5721:
  6004     1672  2E79               	goto	l4951
  6005     1673                     u5720:
  6006     1673                     l4949:
  6007     1673  3006               	movlw	6
  6008     1674  065E               	xorwf	enter_menu_option@down_press,w
  6009     1675  1D03               	btfss	3,2
  6010     1676  2E78               	goto	u5731
  6011     1677  2E79               	goto	u5730
  6012     1678                     u5731:
  6013     1678  2E7F               	goto	l4953
  6014     1679                     u5730:
  6015     1679                     l4951:
  6016                           
  6017                           ;function.c: 454:         change_pass();
  6018     1679  120A  158A  24C3  160A  118A  	fcall	_change_pass
  6019                           
  6020                           ;function.c: 455:     } else if (down_press == 7) {
  6021     167E  2E8B               	goto	l573
  6022     167F                     l4953:
  6023     167F  3007               	movlw	7
  6024     1680  065E               	xorwf	enter_menu_option@down_press,w
  6025     1681  1D03               	btfss	3,2
  6026     1682  2E84               	goto	u5741
  6027     1683  2E85               	goto	u5740
  6028     1684                     u5741:
  6029     1684  2E8B               	goto	l563
  6030     1685                     u5740:
  6031     1685                     l4955:
  6032                           
  6033                           ;function.c: 456:          change_time();
  6034     1685  120A  118A  2043  160A  118A  	fcall	_change_time
  6035     168A  2E8B               	goto	l573
  6036     168B                     l563:
  6037     168B                     l573:
  6038     168B  0008               	return
  6039     168C                     __end_of_enter_menu_option:
  6040                           
  6041                           	psect	text19
  6042     0516                     __ptext19:	
  6043 ;; *************** function _download_log *****************
  6044 ;; Defined at:
  6045 ;;		line 270 in file "function.c"
  6046 ;; Parameters:    Size  Location     Type
  6047 ;;		None
  6048 ;; Auto vars:     Size  Location     Type
  6049 ;;  j               2   31[BANK0 ] int 
  6050 ;;  time            9   13[BANK0 ] unsigned char [9]
  6051 ;;  speed           3   25[BANK0 ] unsigned char [3]
  6052 ;;  gear            3   22[BANK0 ] unsigned char [3]
  6053 ;;  eeprom_data    13    0[BANK0 ] unsigned char [13]
  6054 ;;  log_index       2   29[BANK0 ] unsigned int 
  6055 ;;  addr            1   28[BANK0 ] unsigned char 
  6056 ;; Return value:  Size  Location     Type
  6057 ;;                  1    wreg      void 
  6058 ;; Registers used:
  6059 ;;		wreg, fsr0l, fsr0h, status,2, status,0, btemp+1, pclath, cstack
  6060 ;; Tracked objects:
  6061 ;;		On entry : 0/0
  6062 ;;		On exit  : 0/0
  6063 ;;		Unchanged: 0/0
  6064 ;; Data sizes:     COMMON   BANK0   BANK1   BANK3   BANK2
  6065 ;;      Params:         0       0       0       0       0
  6066 ;;      Locals:         0      33       0       0       0
  6067 ;;      Temps:          0       0       0       0       0
  6068 ;;      Totals:         0      33       0       0       0
  6069 ;;Total ram usage:       33 bytes
  6070 ;; Hardware stack levels used: 1
  6071 ;; Hardware stack levels required when called: 5
  6072 ;; This function calls:
  6073 ;;		_putchar
  6074 ;;		_puts
  6075 ;;		_read_ext_eeprom
  6076 ;;		_strncpy
  6077 ;; This function is called by:
  6078 ;;		_enter_menu_option
  6079 ;; This function uses a non-reentrant model
  6080 ;;
  6081                           
  6082     0516                     _download_log:	
  6083                           ;psect for function _download_log
  6084                           
  6085     0516                     l4661:	
  6086                           ;incstack = 0
  6087                           ; Regs used in _download_log: [wreg-fsr0h+status,2+status,0+btemp+1+pclath+cstack]
  6088                           
  6089                           
  6090                           ;function.c: 271:     unsigned char eeprom_data[13];;function.c: 272:     unsigned char 
      +                          addr = 0;
  6091     0516  1283               	bcf	3,5	;RP0=0, select bank0
  6092     0517  1303               	bcf	3,6	;RP1=0, select bank0
  6093     0518  01BC               	clrf	download_log@addr
  6094                           
  6095                           ;function.c: 273:     unsigned int log_index = 0;
  6096     0519  01BD               	clrf	download_log@log_index
  6097     051A  01BE               	clrf	download_log@log_index+1
  6098     051B                     l4663:
  6099                           
  6100                           ;function.c: 276:     puts("SR.no.  Time      Gear  Speed\n\r");
  6101     051B  3000               	movlw	low (STR_38| (0+32768))
  6102     051C  00F3               	movwf	puts@s
  6103     051D  3086               	movlw	high (STR_38| (0+32768))
  6104     051E  00F4               	movwf	puts@s+1
  6105     051F  160A  118A  2060  120A  118A  	fcall	_puts
  6106                           
  6107                           ;function.c: 279:     while (log_index < log_counter) {
  6108     0524  2DD8               	goto	l4707
  6109     0525                     l4665:
  6110                           
  6111                           ;function.c: 281:         for (int j = 0; j < 12; j++) {
  6112     0525  01BF               	clrf	download_log@j
  6113     0526  01C0               	clrf	download_log@j+1
  6114     0527                     l4671:
  6115                           
  6116                           ;function.c: 282:             eeprom_data[j] = read_ext_eeprom(addr + j);
  6117     0527  1283               	bcf	3,5	;RP0=0, select bank0
  6118     0528  1303               	bcf	3,6	;RP1=0, select bank0
  6119     0529  083F               	movf	download_log@j,w
  6120     052A  3E20               	addlw	(low (download_log@eeprom_data| 0))& (0+255)
  6121     052B  0084               	movwf	4
  6122     052C  083F               	movf	download_log@j,w
  6123     052D  073C               	addwf	download_log@addr,w
  6124     052E  160A  118A  2103  120A  118A  	fcall	_read_ext_eeprom
  6125     0533  1383               	bcf	3,7	;select IRP bank0
  6126     0534  0080               	movwf	0
  6127     0535                     l4673:
  6128                           
  6129                           ;function.c: 283:         }
  6130     0535  3001               	movlw	1
  6131     0536  1283               	bcf	3,5	;RP0=0, select bank0
  6132     0537  1303               	bcf	3,6	;RP1=0, select bank0
  6133     0538  07BF               	addwf	download_log@j,f
  6134     0539  1803               	skipnc
  6135     053A  0AC0               	incf	download_log@j+1,f
  6136     053B  3000               	movlw	0
  6137     053C  07C0               	addwf	download_log@j+1,f
  6138     053D                     l4675:
  6139     053D  0840               	movf	download_log@j+1,w
  6140     053E  3A80               	xorlw	128
  6141     053F  00FF               	movwf	btemp+1
  6142     0540  3080               	movlw	128
  6143     0541  027F               	subwf	btemp+1,w
  6144     0542  1D03               	skipz
  6145     0543  2D46               	goto	u5305
  6146     0544  300C               	movlw	12
  6147     0545  023F               	subwf	download_log@j,w
  6148     0546                     u5305:
  6149     0546  1C03               	skipc
  6150     0547  2D49               	goto	u5301
  6151     0548  2D4A               	goto	u5300
  6152     0549                     u5301:
  6153     0549  2D27               	goto	l4671
  6154     054A                     u5300:
  6155     054A                     l4677:
  6156                           
  6157                           ;function.c: 286:         eeprom_data[12] = '\0';
  6158     054A  1283               	bcf	3,5	;RP0=0, select bank0
  6159     054B  1303               	bcf	3,6	;RP1=0, select bank0
  6160     054C  01AC               	clrf	download_log@eeprom_data+12
  6161     054D                     l4679:
  6162                           
  6163                           ;function.c: 290:         char time[9], gear[3], speed[3];;function.c: 291:         strn
      +                          cpy(time, eeprom_data, 8);
  6164     054D  3020               	movlw	(low (download_log@eeprom_data| 0))& (0+255)
  6165     054E  00F2               	movwf	strncpy@s
  6166     054F  3008               	movlw	8
  6167     0550  00F3               	movwf	strncpy@n
  6168     0551  3000               	movlw	0
  6169     0552  00F4               	movwf	strncpy@n+1
  6170     0553  302D               	movlw	(low (download_log@time| 0))& (0+255)
  6171     0554  160A  118A  21E6  120A  118A  	fcall	_strncpy
  6172     0559                     l4681:
  6173                           
  6174                           ;function.c: 292:         time[8] = '\0';
  6175     0559  1283               	bcf	3,5	;RP0=0, select bank0
  6176     055A  1303               	bcf	3,6	;RP1=0, select bank0
  6177     055B  01B5               	clrf	download_log@time+8
  6178                           
  6179                           ;function.c: 293:         strncpy(gear, eeprom_data + 8, 2);
  6180     055C  3028               	movlw	(low ((download_log@eeprom_data| 0+8)))& (0+255)
  6181     055D  00F2               	movwf	strncpy@s
  6182     055E  3002               	movlw	2
  6183     055F  00F3               	movwf	strncpy@n
  6184     0560  3000               	movlw	0
  6185     0561  00F4               	movwf	strncpy@n+1
  6186     0562  3036               	movlw	(low (download_log@gear| 0))& (0+255)
  6187     0563  160A  118A  21E6  120A  118A  	fcall	_strncpy
  6188     0568                     l4683:
  6189                           
  6190                           ;function.c: 294:         gear[2] = '\0';
  6191     0568  1283               	bcf	3,5	;RP0=0, select bank0
  6192     0569  1303               	bcf	3,6	;RP1=0, select bank0
  6193     056A  01B8               	clrf	download_log@gear+2
  6194     056B                     l4685:
  6195                           
  6196                           ;function.c: 295:         strncpy(speed, eeprom_data + 10, 2);
  6197     056B  302A               	movlw	(low ((download_log@eeprom_data| 0+10)))& (0+255)
  6198     056C  00F2               	movwf	strncpy@s
  6199     056D  3002               	movlw	2
  6200     056E  00F3               	movwf	strncpy@n
  6201     056F  3000               	movlw	0
  6202     0570  00F4               	movwf	strncpy@n+1
  6203     0571  3039               	movlw	(low (download_log@speed| 0))& (0+255)
  6204     0572  160A  118A  21E6  120A  118A  	fcall	_strncpy
  6205                           
  6206                           ;function.c: 296:         speed[2] = '\0';
  6207     0577  1283               	bcf	3,5	;RP0=0, select bank0
  6208     0578  1303               	bcf	3,6	;RP1=0, select bank0
  6209     0579  01BB               	clrf	download_log@speed+2
  6210     057A                     l4687:
  6211                           
  6212                           ;function.c: 299:         if (log_index < 10) {
  6213     057A  3000               	movlw	0
  6214     057B  023E               	subwf	download_log@log_index+1,w
  6215     057C  300A               	movlw	10
  6216     057D  1903               	skipnz
  6217     057E  023D               	subwf	download_log@log_index,w
  6218     057F  1803               	skipnc
  6219     0580  2D82               	goto	u5311
  6220     0581  2D83               	goto	u5310
  6221     0582                     u5311:
  6222     0582  2D93               	goto	l4693
  6223     0583                     u5310:
  6224     0583                     l4689:
  6225                           
  6226                           ;function.c: 300:             putchar(log_index + '0');
  6227     0583  083D               	movf	download_log@log_index,w
  6228     0584  3E30               	addlw	48
  6229     0585  160A  158A  2715  120A  118A  	fcall	_putchar
  6230     058A                     l4691:
  6231                           
  6232                           ;function.c: 301:             puts(".      ");
  6233     058A  309D               	movlw	low (STR_39| (0+32768))
  6234     058B  00F3               	movwf	puts@s
  6235     058C  3087               	movlw	high (STR_39| (0+32768))
  6236     058D  00F4               	movwf	puts@s+1
  6237     058E  160A  118A  2060  120A  118A  	fcall	_puts
  6238     0593                     l4693:
  6239                           
  6240                           ;function.c: 303:         puts(time);
  6241     0593  302D               	movlw	(low (download_log@time| 0))& (0+255)
  6242     0594  00F3               	movwf	puts@s
  6243     0595  3000               	movlw	0
  6244     0596  00F4               	movwf	puts@s+1
  6245     0597  160A  118A  2060  120A  118A  	fcall	_puts
  6246     059C                     l4695:
  6247                           
  6248                           ;function.c: 304:         puts("   ");
  6249     059C  3046               	movlw	low ((STR_31+13)| (0+32768))
  6250     059D  00F3               	movwf	puts@s
  6251     059E  3086               	movlw	high ((STR_31+13)| (0+32768))
  6252     059F  00F4               	movwf	puts@s+1
  6253     05A0  160A  118A  2060  120A  118A  	fcall	_puts
  6254     05A5                     l4697:
  6255                           
  6256                           ;function.c: 305:         puts(gear);
  6257     05A5  3036               	movlw	(low (download_log@gear| 0))& (0+255)
  6258     05A6  00F3               	movwf	puts@s
  6259     05A7  3000               	movlw	0
  6260     05A8  00F4               	movwf	puts@s+1
  6261     05A9  160A  118A  2060  120A  118A  	fcall	_puts
  6262     05AE                     l4699:
  6263                           
  6264                           ;function.c: 306:         puts("     ");
  6265     05AE  3044               	movlw	low ((STR_31+11)| (0+32768))
  6266     05AF  00F3               	movwf	puts@s
  6267     05B0  3086               	movlw	high ((STR_31+11)| (0+32768))
  6268     05B1  00F4               	movwf	puts@s+1
  6269     05B2  160A  118A  2060  120A  118A  	fcall	_puts
  6270     05B7                     l4701:
  6271                           
  6272                           ;function.c: 307:         puts(speed);
  6273     05B7  3039               	movlw	(low (download_log@speed| 0))& (0+255)
  6274     05B8  00F3               	movwf	puts@s
  6275     05B9  3000               	movlw	0
  6276     05BA  00F4               	movwf	puts@s+1
  6277     05BB  160A  118A  2060  120A  118A  	fcall	_puts
  6278                           
  6279                           ;function.c: 308:         putchar('\r');
  6280     05C0  300D               	movlw	13
  6281     05C1  160A  158A  2715  120A  118A  	fcall	_putchar
  6282                           
  6283                           ;function.c: 309:         putchar('\n');
  6284     05C6  300A               	movlw	10
  6285     05C7  160A  158A  2715  120A  118A  	fcall	_putchar
  6286     05CC                     l4703:
  6287                           
  6288                           ;function.c: 311:         addr += 12;
  6289     05CC  300C               	movlw	12
  6290     05CD  00FF               	movwf	btemp+1
  6291     05CE  087F               	movf	btemp+1,w
  6292     05CF  1283               	bcf	3,5	;RP0=0, select bank0
  6293     05D0  1303               	bcf	3,6	;RP1=0, select bank0
  6294     05D1  07BC               	addwf	download_log@addr,f
  6295     05D2                     l4705:
  6296                           
  6297                           ;function.c: 312:         log_index++;
  6298     05D2  3001               	movlw	1
  6299     05D3  07BD               	addwf	download_log@log_index,f
  6300     05D4  1803               	skipnc
  6301     05D5  0ABE               	incf	download_log@log_index+1,f
  6302     05D6  3000               	movlw	0
  6303     05D7  07BE               	addwf	download_log@log_index+1,f
  6304     05D8                     l4707:
  6305                           
  6306                           ;function.c: 279:     while (log_index < log_counter) {
  6307     05D8  1283               	bcf	3,5	;RP0=0, select bank0
  6308     05D9  1303               	bcf	3,6	;RP1=0, select bank0
  6309     05DA  0864               	movf	_log_counter+1,w
  6310     05DB  023E               	subwf	download_log@log_index+1,w
  6311     05DC  1D03               	skipz
  6312     05DD  2DE0               	goto	u5325
  6313     05DE  0863               	movf	_log_counter,w
  6314     05DF  023D               	subwf	download_log@log_index,w
  6315     05E0                     u5325:
  6316     05E0  1C03               	skipc
  6317     05E1  2DE3               	goto	u5321
  6318     05E2  2DE4               	goto	u5320
  6319     05E3                     u5321:
  6320     05E3  2D25               	goto	l4665
  6321     05E4                     u5320:
  6322     05E4                     l4709:
  6323                           
  6324                           ;function.c: 316:     puts("Log download complete.\r\n");
  6325     05E4  3020               	movlw	low (STR_42| (0+32768))
  6326     05E5  00F3               	movwf	puts@s
  6327     05E6  3086               	movlw	high (STR_42| (0+32768))
  6328     05E7  00F4               	movwf	puts@s+1
  6329     05E8  160A  118A  2060  120A  118A  	fcall	_puts
  6330     05ED                     l530:
  6331     05ED  0008               	return
  6332     05EE                     __end_of_download_log:
  6333                           
  6334                           	psect	text20
  6335     11E6                     __ptext20:	
  6336 ;; *************** function _strncpy *****************
  6337 ;; Defined at:
  6338 ;;		line 3 in file "C:\Program Files\Microchip\xc8\v2.46\pic\sources\c99\common\strncpy.c"
  6339 ;; Parameters:    Size  Location     Type
  6340 ;;  d               1    wreg     PTR unsigned char 
  6341 ;;		 -> download_log@speed(3), download_log@gear(3), download_log@time(9), 
  6342 ;;  s               1    2[COMMON] PTR const unsigned char 
  6343 ;;		 -> download_log@eeprom_data(13), 
  6344 ;;  n               2    3[COMMON] unsigned int 
  6345 ;; Auto vars:     Size  Location     Type
  6346 ;;  d               1    5[COMMON] PTR unsigned char 
  6347 ;;		 -> download_log@speed(3), download_log@gear(3), download_log@time(9), 
  6348 ;;  cp              1    6[COMMON] PTR unsigned char 
  6349 ;;		 -> download_log@speed(3), download_log@gear(3), download_log@time(9), 
  6350 ;; Return value:  Size  Location     Type
  6351 ;;                  1    wreg      PTR unsigned char 
  6352 ;; Registers used:
  6353 ;;		wreg, fsr0l, fsr0h, status,2, status,0, btemp+1
  6354 ;; Tracked objects:
  6355 ;;		On entry : 0/0
  6356 ;;		On exit  : 0/0
  6357 ;;		Unchanged: 0/0
  6358 ;; Data sizes:     COMMON   BANK0   BANK1   BANK3   BANK2
  6359 ;;      Params:         3       0       0       0       0
  6360 ;;      Locals:         2       0       0       0       0
  6361 ;;      Temps:          0       0       0       0       0
  6362 ;;      Totals:         5       0       0       0       0
  6363 ;;Total ram usage:        5 bytes
  6364 ;; Hardware stack levels used: 1
  6365 ;; Hardware stack levels required when called: 1
  6366 ;; This function calls:
  6367 ;;		Nothing
  6368 ;; This function is called by:
  6369 ;;		_download_log
  6370 ;; This function uses a non-reentrant model
  6371 ;;
  6372                           
  6373     11E6                     _strncpy:	
  6374                           ;psect for function _strncpy
  6375                           
  6376                           
  6377                           ;incstack = 0
  6378                           ; Regs used in _strncpy: [wreg-fsr0h+status,2+status,0+btemp+1]
  6379                           ;strncpy@d stored from wreg
  6380     11E6  00F5               	movwf	strncpy@d
  6381     11E7                     l4323:
  6382     11E7  0875               	movf	strncpy@d,w
  6383     11E8  00F6               	movwf	strncpy@cp
  6384     11E9  2A03               	goto	l4331
  6385     11EA                     l4325:
  6386     11EA  3001               	movlw	1
  6387     11EB  02F3               	subwf	strncpy@n,f
  6388     11EC  3000               	movlw	0
  6389     11ED  1C03               	skipc
  6390     11EE  03F4               	decf	strncpy@n+1,f
  6391     11EF  02F4               	subwf	strncpy@n+1,f
  6392     11F0                     l4327:
  6393     11F0  0872               	movf	strncpy@s,w
  6394     11F1  0084               	movwf	4
  6395     11F2  3001               	movlw	1
  6396     11F3  07F2               	addwf	strncpy@s,f
  6397     11F4  1383               	bcf	3,7	;select IRP bank0
  6398     11F5  0800               	movf	0,w
  6399     11F6  00FF               	movwf	btemp+1
  6400     11F7  0876               	movf	strncpy@cp,w
  6401     11F8  0084               	movwf	4
  6402     11F9  3001               	movlw	1
  6403     11FA  07F6               	addwf	strncpy@cp,f
  6404     11FB  087F               	movf	btemp+1,w
  6405     11FC  0080               	movwf	0
  6406     11FD  0800               	movf	0,w
  6407     11FE  1D03               	btfss	3,2
  6408     11FF  2A01               	goto	u4791
  6409     1200  2A02               	goto	u4790
  6410     1201                     u4791:
  6411     1201  2A03               	goto	l4331
  6412     1202                     u4790:
  6413     1202  2A12               	goto	l4337
  6414     1203                     l4331:
  6415     1203  0873               	movf	strncpy@n,w
  6416     1204  0474               	iorwf	strncpy@n+1,w
  6417     1205  1D03               	btfss	3,2
  6418     1206  2A08               	goto	u4801
  6419     1207  2A09               	goto	u4800
  6420     1208                     u4801:
  6421     1208  29EA               	goto	l4325
  6422     1209                     u4800:
  6423     1209  2A12               	goto	l4337
  6424     120A                     l4333:
  6425     120A  0876               	movf	strncpy@cp,w
  6426     120B  0084               	movwf	4
  6427     120C  1383               	bcf	3,7	;select IRP bank0
  6428     120D  0180               	clrf	0
  6429     120E                     l4335:
  6430     120E  3001               	movlw	1
  6431     120F  00FF               	movwf	btemp+1
  6432     1210  087F               	movf	btemp+1,w
  6433     1211  07F6               	addwf	strncpy@cp,f
  6434     1212                     l4337:
  6435     1212  3001               	movlw	1
  6436     1213  02F3               	subwf	strncpy@n,f
  6437     1214  3000               	movlw	0
  6438     1215  1C03               	skipc
  6439     1216  03F4               	decf	strncpy@n+1,f
  6440     1217  02F4               	subwf	strncpy@n+1,f
  6441     1218  0A73               	incf	strncpy@n,w
  6442     1219  1D03               	skipz
  6443     121A  2A1F               	goto	u4811
  6444     121B  0A74               	incf	strncpy@n+1,w
  6445     121C  1D03               	btfss	3,2
  6446     121D  2A1F               	goto	u4811
  6447     121E  2A20               	goto	u4810
  6448     121F                     u4811:
  6449     121F  2A0A               	goto	l4333
  6450     1220                     u4810:
  6451     1220                     l1157:
  6452     1220  0008               	return
  6453     1221                     __end_of_strncpy:
  6454                           
  6455                           	psect	text21
  6456     1060                     __ptext21:	
  6457 ;; *************** function _puts *****************
  6458 ;; Defined at:
  6459 ;;		line 42 in file "uart.c"
  6460 ;; Parameters:    Size  Location     Type
  6461 ;;  s               2    3[COMMON] PTR const unsigned char 
  6462 ;;		 -> STR_42(25), STR_41(6), STR_40(4), STR_39(8), 
  6463 ;;		 -> download_log@speed(3), download_log@gear(3), download_log@time(9), STR_38(32), 
  6464 ;;		 -> STR_9(17), 
  6465 ;; Auto vars:     Size  Location     Type
  6466 ;;		None
  6467 ;; Return value:  Size  Location     Type
  6468 ;;                  1    wreg      void 
  6469 ;; Registers used:
  6470 ;;		wreg, fsr0l, fsr0h, status,2, status,0, btemp+1, pclath, cstack
  6471 ;; Tracked objects:
  6472 ;;		On entry : 0/0
  6473 ;;		On exit  : 0/0
  6474 ;;		Unchanged: 0/0
  6475 ;; Data sizes:     COMMON   BANK0   BANK1   BANK3   BANK2
  6476 ;;      Params:         2       0       0       0       0
  6477 ;;      Locals:         0       0       0       0       0
  6478 ;;      Temps:          0       0       0       0       0
  6479 ;;      Totals:         2       0       0       0       0
  6480 ;;Total ram usage:        2 bytes
  6481 ;; Hardware stack levels used: 1
  6482 ;; Hardware stack levels required when called: 2
  6483 ;; This function calls:
  6484 ;;		_putchar
  6485 ;; This function is called by:
  6486 ;;		_init_config
  6487 ;;		_download_log
  6488 ;; This function uses a non-reentrant model
  6489 ;;
  6490                           
  6491     1060                     _puts:	
  6492                           ;psect for function _puts
  6493                           
  6494     1060                     l4201:	
  6495                           ;incstack = 0
  6496                           ; Regs used in _puts: [wreg-fsr0h+status,2+status,0+btemp+1+pclath+cstack]
  6497                           
  6498                           
  6499                           ;uart.c: 42: void puts(const char *s);uart.c: 43: {;uart.c: 44:     while (*s)
  6500     1060  2875               	goto	l4207
  6501     1061                     l4203:
  6502                           
  6503                           ;uart.c: 45:     {;uart.c: 46:         putchar(*s++);
  6504     1061  0874               	movf	puts@s+1,w
  6505     1062  00FF               	movwf	btemp+1
  6506     1063  0873               	movf	puts@s,w
  6507     1064  0084               	movwf	4
  6508     1065  120A  118A  25EE  160A  118A  	fcall	stringtab
  6509     106A  160A  158A  2715  160A  118A  	fcall	_putchar
  6510     106F                     l4205:
  6511     106F  3001               	movlw	1
  6512     1070  07F3               	addwf	puts@s,f
  6513     1071  1803               	skipnc
  6514     1072  0AF4               	incf	puts@s+1,f
  6515     1073  3000               	movlw	0
  6516     1074  07F4               	addwf	puts@s+1,f
  6517     1075                     l4207:
  6518                           
  6519                           ;uart.c: 44:     while (*s)
  6520     1075  0874               	movf	puts@s+1,w
  6521     1076  1283               	bcf	3,5	;RP0=0, select bank0
  6522     1077  1303               	bcf	3,6	;RP1=0, select bank0
  6523     1078  00FF               	movwf	btemp+1
  6524     1079  0873               	movf	puts@s,w
  6525     107A  0084               	movwf	4
  6526     107B  120A  118A  25EE  160A  118A  	fcall	stringtab
  6527     1080  3A00               	xorlw	0
  6528     1081  1D03               	skipz
  6529     1082  2884               	goto	u4651
  6530     1083  2885               	goto	u4650
  6531     1084                     u4651:
  6532     1084  2861               	goto	l4203
  6533     1085                     u4650:
  6534     1085                     l367:
  6535     1085  0008               	return
  6536     1086                     __end_of_puts:
  6537                           
  6538                           	psect	text22
  6539     1F15                     __ptext22:	
  6540 ;; *************** function _putchar *****************
  6541 ;; Defined at:
  6542 ;;		line 31 in file "uart.c"
  6543 ;; Parameters:    Size  Location     Type
  6544 ;;  data            1    wreg     unsigned char 
  6545 ;; Auto vars:     Size  Location     Type
  6546 ;;  data            1    2[COMMON] unsigned char 
  6547 ;; Return value:  Size  Location     Type
  6548 ;;                  1    wreg      void 
  6549 ;; Registers used:
  6550 ;;		wreg
  6551 ;; Tracked objects:
  6552 ;;		On entry : 0/0
  6553 ;;		On exit  : 0/0
  6554 ;;		Unchanged: 0/0
  6555 ;; Data sizes:     COMMON   BANK0   BANK1   BANK3   BANK2
  6556 ;;      Params:         0       0       0       0       0
  6557 ;;      Locals:         1       0       0       0       0
  6558 ;;      Temps:          0       0       0       0       0
  6559 ;;      Totals:         1       0       0       0       0
  6560 ;;Total ram usage:        1 bytes
  6561 ;; Hardware stack levels used: 1
  6562 ;; Hardware stack levels required when called: 1
  6563 ;; This function calls:
  6564 ;;		Nothing
  6565 ;; This function is called by:
  6566 ;;		_puts
  6567 ;;		_download_log
  6568 ;; This function uses a non-reentrant model
  6569 ;;
  6570                           
  6571     1F15                     _putchar:	
  6572                           ;psect for function _putchar
  6573                           
  6574                           
  6575                           ;incstack = 0
  6576                           ; Regs used in _putchar: [wreg]
  6577                           ;putchar@data stored from wreg
  6578     1F15  00F2               	movwf	putchar@data
  6579     1F16                     l4165:
  6580     1F16                     l358:	
  6581                           ;uart.c: 37:     }
  6582                           
  6583                           
  6584                           ;uart.c: 33:     while(TXIF == 0)
  6585     1F16  1283               	bcf	3,5	;RP0=0, select bank0
  6586     1F17  1303               	bcf	3,6	;RP1=0, select bank0
  6587     1F18  1E0C               	btfss	12,4	;volatile
  6588     1F19  2F1B               	goto	u4611
  6589     1F1A  2F1C               	goto	u4610
  6590     1F1B                     u4611:
  6591     1F1B  2F16               	goto	l358
  6592     1F1C                     u4610:
  6593     1F1C                     l4167:
  6594                           
  6595                           ;uart.c: 38:     TXREG = data;
  6596     1F1C  0872               	movf	putchar@data,w
  6597     1F1D  0099               	movwf	25	;volatile
  6598     1F1E                     l4169:
  6599                           
  6600                           ;uart.c: 39:     TXIF = 0;
  6601     1F1E  120C               	bcf	12,4	;volatile
  6602     1F1F                     l361:
  6603     1F1F  0008               	return
  6604     1F20                     __end_of_putchar:
  6605                           
  6606                           	psect	text23
  6607     0E45                     __ptext23:	
  6608 ;; *************** function _display_logs *****************
  6609 ;; Defined at:
  6610 ;;		line 116 in file "function.c"
  6611 ;; Parameters:    Size  Location     Type
  6612 ;;		None
  6613 ;; Auto vars:     Size  Location     Type
  6614 ;;  j               2   54[BANK0 ] int 
  6615 ;;  j               2   52[BANK0 ] int 
  6616 ;;  j               2   50[BANK0 ] int 
  6617 ;;  j               2   48[BANK0 ] int 
  6618 ;;  eeprom_data    12   33[BANK0 ] unsigned char [12]
  6619 ;;  index           2   57[BANK0 ] unsigned int 
  6620 ;;  long_press_c    2   45[BANK0 ] unsigned int 
  6621 ;;  key             1   56[BANK0 ] unsigned char 
  6622 ;;  addr            1   47[BANK0 ] unsigned char 
  6623 ;;  down_press      1    0        unsigned char 
  6624 ;; Return value:  Size  Location     Type
  6625 ;;                  1    wreg      void 
  6626 ;; Registers used:
  6627 ;;		wreg, fsr0l, fsr0h, status,2, status,0, btemp+1, pclath, cstack
  6628 ;; Tracked objects:
  6629 ;;		On entry : 0/0
  6630 ;;		On exit  : 0/0
  6631 ;;		Unchanged: 0/0
  6632 ;; Data sizes:     COMMON   BANK0   BANK1   BANK3   BANK2
  6633 ;;      Params:         0       0       0       0       0
  6634 ;;      Locals:         0      26       0       0       0
  6635 ;;      Temps:          0       3       0       0       0
  6636 ;;      Totals:         0      29       0       0       0
  6637 ;;Total ram usage:       29 bytes
  6638 ;; Hardware stack levels used: 1
  6639 ;; Hardware stack levels required when called: 6
  6640 ;; This function calls:
  6641 ;;		___bmul
  6642 ;;		_clcd_print
  6643 ;;		_clcd_putch
  6644 ;;		_clcd_write
  6645 ;;		_detect_single_press
  6646 ;;		_read_digital_keypad
  6647 ;;		_read_ext_eeprom
  6648 ;;		_store_eeprom
  6649 ;; This function is called by:
  6650 ;;		_enter_menu_option
  6651 ;; This function uses a non-reentrant model
  6652 ;;
  6653                           
  6654     0E45                     _display_logs:	
  6655                           ;psect for function _display_logs
  6656                           
  6657     0E45                     l4439:	
  6658                           ;incstack = 0
  6659 ;; hardware stack exceeded
  6660                           ; Regs used in _display_logs: [wreg-fsr0h+status,2+status,0+btemp+1+pclath+cstack]
  6661                           
  6662                           
  6663                           ;function.c: 117:     unsigned char addr = 0;
  6664     0E45  1283               	bcf	3,5	;RP0=0, select bank0
  6665     0E46  1303               	bcf	3,6	;RP1=0, select bank0
  6666     0E47  01CF               	clrf	display_logs@addr
  6667                           
  6668                           ;function.c: 118:     unsigned char eeprom_data[12];;function.c: 119:     unsigned char 
      +                          key;;function.c: 120:     unsigned int index = 0;
  6669     0E48  01D9               	clrf	display_logs@index
  6670     0E49  01DA               	clrf	display_logs@index+1
  6671                           
  6672                           ;function.c: 121:     unsigned int long_press_counter = 0;
  6673     0E4A  01CD               	clrf	display_logs@long_press_counter
  6674     0E4B  01CE               	clrf	display_logs@long_press_counter+1
  6675     0E4C                     l4441:
  6676                           
  6677                           ;function.c: 125:         if (clear_flag == 0) {
  6678     0E4C  1683               	bsf	3,5	;RP0=1, select bank1
  6679     0E4D  1303               	bcf	3,6	;RP1=0, select bank1
  6680     0E4E  082B               	movf	_clear_flag^(0+128),w
  6681     0E4F  042C               	iorwf	(_clear_flag+1)^(0+128),w
  6682     0E50  1D03               	btfss	3,2
  6683     0E51  2E53               	goto	u5011
  6684     0E52  2E54               	goto	u5010
  6685     0E53                     u5011:
  6686     0E53  2FC2               	goto	l4547
  6687     0E54                     u5010:
  6688     0E54                     l4443:
  6689                           
  6690                           ;function.c: 126:             clcd_print("# TIME     EV SP", (0x80 + 0));
  6691     0E54  306C               	movlw	low (STR_27| (0+32768))
  6692     0E55  00F6               	movwf	clcd_print@str
  6693     0E56  3086               	movlw	high (STR_27| (0+32768))
  6694     0E57  00F7               	movwf	clcd_print@str+1
  6695     0E58  3080               	movlw	128
  6696     0E59  00F8               	movwf	clcd_print@addr
  6697     0E5A  160A  118A  2187  120A  158A  	fcall	_clcd_print
  6698     0E5F                     l4445:
  6699                           
  6700                           ;function.c: 127:             clcd_putch(index + '0', (0xC0 + 0));
  6701     0E5F  30C0               	movlw	192
  6702     0E60  1283               	bcf	3,5	;RP0=0, select bank0
  6703     0E61  1303               	bcf	3,6	;RP1=0, select bank0
  6704     0E62  00A0               	movwf	clcd_putch@addr
  6705     0E63  0859               	movf	display_logs@index,w
  6706     0E64  3E30               	addlw	48
  6707     0E65  160A  158A  2763  120A  158A  	fcall	_clcd_putch
  6708     0E6A                     l4447:
  6709                           
  6710                           ;function.c: 129:             for (int j = 0; j < 12; j++) {
  6711     0E6A  1283               	bcf	3,5	;RP0=0, select bank0
  6712     0E6B  1303               	bcf	3,6	;RP1=0, select bank0
  6713     0E6C  01D0               	clrf	display_logs@j
  6714     0E6D  01D1               	clrf	display_logs@j+1
  6715     0E6E                     l4453:
  6716                           
  6717                           ;function.c: 130:                 eeprom_data[j] = read_ext_eeprom(addr + j);
  6718     0E6E  1283               	bcf	3,5	;RP0=0, select bank0
  6719     0E6F  1303               	bcf	3,6	;RP1=0, select bank0
  6720     0E70  0850               	movf	display_logs@j,w
  6721     0E71  3E41               	addlw	(low (display_logs@eeprom_data| 0))& (0+255)
  6722     0E72  0084               	movwf	4
  6723     0E73  0850               	movf	display_logs@j,w
  6724     0E74  074F               	addwf	display_logs@addr,w
  6725     0E75  160A  118A  2103  120A  158A  	fcall	_read_ext_eeprom
  6726     0E7A  1383               	bcf	3,7	;select IRP bank0
  6727     0E7B  0080               	movwf	0
  6728     0E7C                     l4455:
  6729                           
  6730                           ;function.c: 131:             }
  6731     0E7C  3001               	movlw	1
  6732     0E7D  1283               	bcf	3,5	;RP0=0, select bank0
  6733     0E7E  1303               	bcf	3,6	;RP1=0, select bank0
  6734     0E7F  07D0               	addwf	display_logs@j,f
  6735     0E80  1803               	skipnc
  6736     0E81  0AD1               	incf	display_logs@j+1,f
  6737     0E82  3000               	movlw	0
  6738     0E83  07D1               	addwf	display_logs@j+1,f
  6739     0E84                     l4457:
  6740     0E84  0851               	movf	display_logs@j+1,w
  6741     0E85  3A80               	xorlw	128
  6742     0E86  00FF               	movwf	btemp+1
  6743     0E87  3080               	movlw	128
  6744     0E88  027F               	subwf	btemp+1,w
  6745     0E89  1D03               	skipz
  6746     0E8A  2E8D               	goto	u5025
  6747     0E8B  300C               	movlw	12
  6748     0E8C  0250               	subwf	display_logs@j,w
  6749     0E8D                     u5025:
  6750     0E8D  1C03               	skipc
  6751     0E8E  2E90               	goto	u5021
  6752     0E8F  2E91               	goto	u5020
  6753     0E90                     u5021:
  6754     0E90  2E6E               	goto	l4453
  6755     0E91                     u5020:
  6756     0E91                     l4459:
  6757                           
  6758                           ;function.c: 134:             for (int j = 0; j < 8; j++) {
  6759     0E91  1283               	bcf	3,5	;RP0=0, select bank0
  6760     0E92  1303               	bcf	3,6	;RP1=0, select bank0
  6761     0E93  01D2               	clrf	display_logs@j_387
  6762     0E94  01D3               	clrf	display_logs@j_387+1
  6763     0E95                     l4465:
  6764                           
  6765                           ;function.c: 135:                 clcd_putch(eeprom_data[j], (0xC0 + 2 + j));
  6766     0E95  1283               	bcf	3,5	;RP0=0, select bank0
  6767     0E96  1303               	bcf	3,6	;RP1=0, select bank0
  6768     0E97  0852               	movf	display_logs@j_387,w
  6769     0E98  3EC2               	addlw	194
  6770     0E99  00A0               	movwf	clcd_putch@addr
  6771     0E9A  0852               	movf	display_logs@j_387,w
  6772     0E9B  3E41               	addlw	(low (display_logs@eeprom_data| 0))& (0+255)
  6773     0E9C  0084               	movwf	4
  6774     0E9D  1383               	bcf	3,7	;select IRP bank0
  6775     0E9E  0800               	movf	0,w
  6776     0E9F  160A  158A  2763  120A  158A  	fcall	_clcd_putch
  6777     0EA4                     l4467:
  6778                           
  6779                           ;function.c: 136:             }
  6780     0EA4  3001               	movlw	1
  6781     0EA5  1283               	bcf	3,5	;RP0=0, select bank0
  6782     0EA6  1303               	bcf	3,6	;RP1=0, select bank0
  6783     0EA7  07D2               	addwf	display_logs@j_387,f
  6784     0EA8  1803               	skipnc
  6785     0EA9  0AD3               	incf	display_logs@j_387+1,f
  6786     0EAA  3000               	movlw	0
  6787     0EAB  07D3               	addwf	display_logs@j_387+1,f
  6788     0EAC                     l4469:
  6789     0EAC  0853               	movf	display_logs@j_387+1,w
  6790     0EAD  3A80               	xorlw	128
  6791     0EAE  00FF               	movwf	btemp+1
  6792     0EAF  3080               	movlw	128
  6793     0EB0  027F               	subwf	btemp+1,w
  6794     0EB1  1D03               	skipz
  6795     0EB2  2EB5               	goto	u5035
  6796     0EB3  3008               	movlw	8
  6797     0EB4  0252               	subwf	display_logs@j_387,w
  6798     0EB5                     u5035:
  6799     0EB5  1C03               	skipc
  6800     0EB6  2EB8               	goto	u5031
  6801     0EB7  2EB9               	goto	u5030
  6802     0EB8                     u5031:
  6803     0EB8  2E95               	goto	l4465
  6804     0EB9                     u5030:
  6805     0EB9                     l4471:
  6806                           
  6807                           ;function.c: 138:             for (int j = 0; j < 2; j++) {
  6808     0EB9  1283               	bcf	3,5	;RP0=0, select bank0
  6809     0EBA  1303               	bcf	3,6	;RP1=0, select bank0
  6810     0EBB  01D4               	clrf	display_logs@j_388
  6811     0EBC  01D5               	clrf	display_logs@j_388+1
  6812     0EBD                     l4477:
  6813                           
  6814                           ;function.c: 139:                 clcd_putch(eeprom_data[8 + j], (0xC0 + 11 + j));
  6815     0EBD  1283               	bcf	3,5	;RP0=0, select bank0
  6816     0EBE  1303               	bcf	3,6	;RP1=0, select bank0
  6817     0EBF  0854               	movf	display_logs@j_388,w
  6818     0EC0  3ECB               	addlw	203
  6819     0EC1  00A0               	movwf	clcd_putch@addr
  6820     0EC2  0854               	movf	display_logs@j_388,w
  6821     0EC3  3E08               	addlw	8
  6822     0EC4  3E41               	addlw	(low (display_logs@eeprom_data| 0))& (0+255)
  6823     0EC5  0084               	movwf	4
  6824     0EC6  1383               	bcf	3,7	;select IRP bank0
  6825     0EC7  0800               	movf	0,w
  6826     0EC8  160A  158A  2763  120A  158A  	fcall	_clcd_putch
  6827     0ECD                     l4479:
  6828                           
  6829                           ;function.c: 140:             }
  6830     0ECD  3001               	movlw	1
  6831     0ECE  1283               	bcf	3,5	;RP0=0, select bank0
  6832     0ECF  1303               	bcf	3,6	;RP1=0, select bank0
  6833     0ED0  07D4               	addwf	display_logs@j_388,f
  6834     0ED1  1803               	skipnc
  6835     0ED2  0AD5               	incf	display_logs@j_388+1,f
  6836     0ED3  3000               	movlw	0
  6837     0ED4  07D5               	addwf	display_logs@j_388+1,f
  6838     0ED5                     l4481:
  6839     0ED5  0855               	movf	display_logs@j_388+1,w
  6840     0ED6  3A80               	xorlw	128
  6841     0ED7  00FF               	movwf	btemp+1
  6842     0ED8  3080               	movlw	128
  6843     0ED9  027F               	subwf	btemp+1,w
  6844     0EDA  1D03               	skipz
  6845     0EDB  2EDE               	goto	u5045
  6846     0EDC  3002               	movlw	2
  6847     0EDD  0254               	subwf	display_logs@j_388,w
  6848     0EDE                     u5045:
  6849     0EDE  1C03               	skipc
  6850     0EDF  2EE1               	goto	u5041
  6851     0EE0  2EE2               	goto	u5040
  6852     0EE1                     u5041:
  6853     0EE1  2EBD               	goto	l4477
  6854     0EE2                     u5040:
  6855     0EE2                     l4483:
  6856                           
  6857                           ;function.c: 142:             for (int j = 0; j < 2; j++) {
  6858     0EE2  1283               	bcf	3,5	;RP0=0, select bank0
  6859     0EE3  1303               	bcf	3,6	;RP1=0, select bank0
  6860     0EE4  01D6               	clrf	display_logs@j_389
  6861     0EE5  01D7               	clrf	display_logs@j_389+1
  6862     0EE6                     l4489:
  6863                           
  6864                           ;function.c: 143:                 clcd_putch(eeprom_data[10 + j], (0xC0 + 14 + j));
  6865     0EE6  1283               	bcf	3,5	;RP0=0, select bank0
  6866     0EE7  1303               	bcf	3,6	;RP1=0, select bank0
  6867     0EE8  0856               	movf	display_logs@j_389,w
  6868     0EE9  3ECE               	addlw	206
  6869     0EEA  00A0               	movwf	clcd_putch@addr
  6870     0EEB  0856               	movf	display_logs@j_389,w
  6871     0EEC  3E0A               	addlw	10
  6872     0EED  3E41               	addlw	(low (display_logs@eeprom_data| 0))& (0+255)
  6873     0EEE  0084               	movwf	4
  6874     0EEF  1383               	bcf	3,7	;select IRP bank0
  6875     0EF0  0800               	movf	0,w
  6876     0EF1  160A  158A  2763  120A  158A  	fcall	_clcd_putch
  6877     0EF6                     l4491:
  6878                           
  6879                           ;function.c: 144:             }
  6880     0EF6  3001               	movlw	1
  6881     0EF7  1283               	bcf	3,5	;RP0=0, select bank0
  6882     0EF8  1303               	bcf	3,6	;RP1=0, select bank0
  6883     0EF9  07D6               	addwf	display_logs@j_389,f
  6884     0EFA  1803               	skipnc
  6885     0EFB  0AD7               	incf	display_logs@j_389+1,f
  6886     0EFC  3000               	movlw	0
  6887     0EFD  07D7               	addwf	display_logs@j_389+1,f
  6888     0EFE                     l4493:
  6889     0EFE  0857               	movf	display_logs@j_389+1,w
  6890     0EFF  3A80               	xorlw	128
  6891     0F00  00FF               	movwf	btemp+1
  6892     0F01  3080               	movlw	128
  6893     0F02  027F               	subwf	btemp+1,w
  6894     0F03  1D03               	skipz
  6895     0F04  2F07               	goto	u5055
  6896     0F05  3002               	movlw	2
  6897     0F06  0256               	subwf	display_logs@j_389,w
  6898     0F07                     u5055:
  6899     0F07  1C03               	skipc
  6900     0F08  2F0A               	goto	u5051
  6901     0F09  2F0B               	goto	u5050
  6902     0F0A                     u5051:
  6903     0F0A  2EE6               	goto	l4489
  6904     0F0B                     u5050:
  6905     0F0B                     l4495:
  6906                           
  6907                           ;function.c: 146:             key = detect_single_press();
  6908     0F0B  160A  118A  2086  120A  158A  	fcall	_detect_single_press
  6909     0F10  1283               	bcf	3,5	;RP0=0, select bank0
  6910     0F11  1303               	bcf	3,6	;RP1=0, select bank0
  6911     0F12  00D8               	movwf	display_logs@key
  6912     0F13                     l4497:
  6913                           
  6914                           ;function.c: 147:             if (key == 0x2F) {
  6915     0F13  302F               	movlw	47
  6916     0F14  0658               	xorwf	display_logs@key,w
  6917     0F15  1D03               	btfss	3,2
  6918     0F16  2F18               	goto	u5061
  6919     0F17  2F19               	goto	u5060
  6920     0F18                     u5061:
  6921     0F18  2F35               	goto	l4507
  6922     0F19                     u5060:
  6923     0F19                     l4499:
  6924                           
  6925                           ;function.c: 148:                 if (index == 0) {
  6926     0F19  0859               	movf	display_logs@index,w
  6927     0F1A  045A               	iorwf	display_logs@index+1,w
  6928     0F1B  1D03               	btfss	3,2
  6929     0F1C  2F1E               	goto	u5071
  6930     0F1D  2F1F               	goto	u5070
  6931     0F1E                     u5071:
  6932     0F1E  2F24               	goto	l4503
  6933     0F1F                     u5070:
  6934     0F1F                     l4501:
  6935                           
  6936                           ;function.c: 149:                     index = log_counter;
  6937     0F1F  0864               	movf	_log_counter+1,w
  6938     0F20  00DA               	movwf	display_logs@index+1
  6939     0F21  0863               	movf	_log_counter,w
  6940     0F22  00D9               	movwf	display_logs@index
  6941                           
  6942                           ;function.c: 150:                 } else {
  6943     0F23  2F2A               	goto	l4505
  6944     0F24                     l4503:
  6945                           
  6946                           ;function.c: 151:                     index--;
  6947     0F24  3001               	movlw	1
  6948     0F25  02D9               	subwf	display_logs@index,f
  6949     0F26  3000               	movlw	0
  6950     0F27  1C03               	skipc
  6951     0F28  03DA               	decf	display_logs@index+1,f
  6952     0F29  02DA               	subwf	display_logs@index+1,f
  6953     0F2A                     l4505:
  6954                           
  6955                           ;function.c: 153:                 addr = index * 12;
  6956     0F2A  300C               	movlw	12
  6957     0F2B  00F2               	movwf	___bmul@multiplicand
  6958     0F2C  0859               	movf	display_logs@index,w
  6959     0F2D  160A  158A  2778  120A  158A  	fcall	___bmul
  6960     0F32  1283               	bcf	3,5	;RP0=0, select bank0
  6961     0F33  1303               	bcf	3,6	;RP1=0, select bank0
  6962     0F34  00CF               	movwf	display_logs@addr
  6963     0F35                     l4507:
  6964                           
  6965                           ;function.c: 155:             if (key == 0x1F && index < log_counter) {
  6966     0F35  301F               	movlw	31
  6967     0F36  0658               	xorwf	display_logs@key,w
  6968     0F37  1D03               	btfss	3,2
  6969     0F38  2F3A               	goto	u5081
  6970     0F39  2F3B               	goto	u5080
  6971     0F3A                     u5081:
  6972     0F3A  2F62               	goto	l4517
  6973     0F3B                     u5080:
  6974     0F3B                     l4509:
  6975     0F3B  0864               	movf	_log_counter+1,w
  6976     0F3C  025A               	subwf	display_logs@index+1,w
  6977     0F3D  1D03               	skipz
  6978     0F3E  2F41               	goto	u5095
  6979     0F3F  0863               	movf	_log_counter,w
  6980     0F40  0259               	subwf	display_logs@index,w
  6981     0F41                     u5095:
  6982     0F41  1803               	skipnc
  6983     0F42  2F44               	goto	u5091
  6984     0F43  2F45               	goto	u5090
  6985     0F44                     u5091:
  6986     0F44  2F62               	goto	l4517
  6987     0F45                     u5090:
  6988     0F45                     l4511:
  6989                           
  6990                           ;function.c: 156:                 index++;
  6991     0F45  3001               	movlw	1
  6992     0F46  07D9               	addwf	display_logs@index,f
  6993     0F47  1803               	skipnc
  6994     0F48  0ADA               	incf	display_logs@index+1,f
  6995     0F49  3000               	movlw	0
  6996     0F4A  07DA               	addwf	display_logs@index+1,f
  6997                           
  6998                           ;function.c: 157:                 if (index == log_counter)
  6999     0F4B  0864               	movf	_log_counter+1,w
  7000     0F4C  065A               	xorwf	display_logs@index+1,w
  7001     0F4D  1D03               	skipz
  7002     0F4E  2F51               	goto	u5105
  7003     0F4F  0863               	movf	_log_counter,w
  7004     0F50  0659               	xorwf	display_logs@index,w
  7005     0F51                     u5105:
  7006     0F51  1D03               	skipz
  7007     0F52  2F54               	goto	u5101
  7008     0F53  2F55               	goto	u5100
  7009     0F54                     u5101:
  7010     0F54  2F57               	goto	l4515
  7011     0F55                     u5100:
  7012     0F55                     l4513:
  7013                           
  7014                           ;function.c: 158:                     index = 0;
  7015     0F55  01D9               	clrf	display_logs@index
  7016     0F56  01DA               	clrf	display_logs@index+1
  7017     0F57                     l4515:
  7018                           
  7019                           ;function.c: 159:                 addr = index * 12;
  7020     0F57  300C               	movlw	12
  7021     0F58  00F2               	movwf	___bmul@multiplicand
  7022     0F59  0859               	movf	display_logs@index,w
  7023     0F5A  160A  158A  2778  120A  158A  	fcall	___bmul
  7024     0F5F  1283               	bcf	3,5	;RP0=0, select bank0
  7025     0F60  1303               	bcf	3,6	;RP1=0, select bank0
  7026     0F61  00CF               	movwf	display_logs@addr
  7027     0F62                     l4517:
  7028                           
  7029                           ;function.c: 162:             if (key == 0x3E) {
  7030     0F62  303E               	movlw	62
  7031     0F63  0658               	xorwf	display_logs@key,w
  7032     0F64  1D03               	btfss	3,2
  7033     0F65  2F67               	goto	u5111
  7034     0F66  2F68               	goto	u5110
  7035     0F67                     u5111:
  7036     0F67  2F72               	goto	l4523
  7037     0F68                     u5110:
  7038     0F68                     l4519:
  7039                           
  7040                           ;function.c: 163:                 i = 7;
  7041     0F68  3007               	movlw	7
  7042     0F69  00E7               	movwf	_i
  7043     0F6A  3000               	movlw	0
  7044     0F6B  00E8               	movwf	_i+1
  7045     0F6C                     l4521:
  7046                           
  7047                           ;function.c: 164:                 store_eeprom();
  7048     0F6C  120A  158A  2229  120A  158A  	fcall	_store_eeprom
  7049                           
  7050                           ;function.c: 166:             } else if (key == 0x3D) {
  7051     0F71  2F99               	goto	l4539
  7052     0F72                     l4523:
  7053     0F72  303D               	movlw	61
  7054     0F73  0658               	xorwf	display_logs@key,w
  7055     0F74  1D03               	btfss	3,2
  7056     0F75  2F77               	goto	u5121
  7057     0F76  2F78               	goto	u5120
  7058     0F77                     u5121:
  7059     0F77  2F86               	goto	l4531
  7060     0F78                     u5120:
  7061     0F78                     l4525:
  7062                           
  7063                           ;function.c: 167:                 if (i != 6) {
  7064     0F78  3006               	movlw	6
  7065     0F79  0667               	xorwf	_i,w
  7066     0F7A  0468               	iorwf	_i+1,w
  7067     0F7B  1903               	btfsc	3,2
  7068     0F7C  2F7E               	goto	u5131
  7069     0F7D  2F7F               	goto	u5130
  7070     0F7E                     u5131:
  7071     0F7E  2F99               	goto	l4539
  7072     0F7F                     u5130:
  7073     0F7F                     l4527:
  7074                           
  7075                           ;function.c: 168:                     i++;
  7076     0F7F  3001               	movlw	1
  7077     0F80  07E7               	addwf	_i,f
  7078     0F81  1803               	skipnc
  7079     0F82  0AE8               	incf	_i+1,f
  7080     0F83  3000               	movlw	0
  7081     0F84  07E8               	addwf	_i+1,f
  7082     0F85  2F6C               	goto	l4521
  7083     0F86                     l4531:
  7084     0F86  303B               	movlw	59
  7085     0F87  0658               	xorwf	display_logs@key,w
  7086     0F88  1D03               	btfss	3,2
  7087     0F89  2F8B               	goto	u5141
  7088     0F8A  2F8C               	goto	u5140
  7089     0F8B                     u5141:
  7090     0F8B  2F99               	goto	l4539
  7091     0F8C                     u5140:
  7092     0F8C                     l4533:
  7093                           
  7094                           ;function.c: 173:                 if (i != 1) {
  7095     0F8C  0367               	decf	_i,w
  7096     0F8D  0468               	iorwf	_i+1,w
  7097     0F8E  1903               	btfsc	3,2
  7098     0F8F  2F91               	goto	u5151
  7099     0F90  2F92               	goto	u5150
  7100     0F91                     u5151:
  7101     0F91  2F99               	goto	l483
  7102     0F92                     u5150:
  7103     0F92                     l4535:
  7104                           
  7105                           ;function.c: 174:                     i--;
  7106     0F92  3001               	movlw	1
  7107     0F93  02E7               	subwf	_i,f
  7108     0F94  3000               	movlw	0
  7109     0F95  1C03               	skipc
  7110     0F96  03E8               	decf	_i+1,f
  7111     0F97  02E8               	subwf	_i+1,f
  7112     0F98  2F6C               	goto	l4521
  7113     0F99                     l483:
  7114     0F99                     l4539:
  7115                           
  7116                           ;function.c: 181:             if (read_digital_keypad(0) == 0x1F) {
  7117     0F99  3000               	movlw	0
  7118     0F9A  160A  118A  20AE  120A  158A  	fcall	_read_digital_keypad
  7119     0F9F  3A1F               	xorlw	31
  7120     0FA0  1D03               	skipz
  7121     0FA1  2FA3               	goto	u5161
  7122     0FA2  2FA4               	goto	u5160
  7123     0FA3                     u5161:
  7124     0FA3  2FBD               	goto	l4545
  7125     0FA4                     u5160:
  7126     0FA4                     l4541:
  7127                           
  7128                           ;function.c: 182:                 long_press_counter++;
  7129     0FA4  3001               	movlw	1
  7130     0FA5  1283               	bcf	3,5	;RP0=0, select bank0
  7131     0FA6  1303               	bcf	3,6	;RP1=0, select bank0
  7132     0FA7  07CD               	addwf	display_logs@long_press_counter,f
  7133     0FA8  1803               	skipnc
  7134     0FA9  0ACE               	incf	display_logs@long_press_counter+1,f
  7135     0FAA  3000               	movlw	0
  7136     0FAB  07CE               	addwf	display_logs@long_press_counter+1,f
  7137                           
  7138                           ;function.c: 183:                 if (long_press_counter > 10) {
  7139     0FAC  3000               	movlw	0
  7140     0FAD  024E               	subwf	display_logs@long_press_counter+1,w
  7141     0FAE  300B               	movlw	11
  7142     0FAF  1903               	skipnz
  7143     0FB0  024D               	subwf	display_logs@long_press_counter,w
  7144     0FB1  1C03               	skipc
  7145     0FB2  2FB4               	goto	u5171
  7146     0FB3  2FB5               	goto	u5170
  7147     0FB4                     u5171:
  7148     0FB4  2FFE               	goto	l490
  7149     0FB5                     u5170:
  7150     0FB5                     l4543:
  7151                           
  7152                           ;function.c: 184:                     clcd_write(0x01, 0);
  7153     0FB5  01F2               	clrf	clcd_write@mode
  7154     0FB6  3001               	movlw	1
  7155     0FB7  160A  158A  27E0  120A  158A  	fcall	_clcd_write
  7156                           
  7157                           ;function.c: 187:                     break;
  7158     0FBC  2FFF               	goto	l494
  7159     0FBD                     l4545:
  7160                           
  7161                           ;function.c: 192:                 long_press_counter = 0;
  7162     0FBD  1283               	bcf	3,5	;RP0=0, select bank0
  7163     0FBE  1303               	bcf	3,6	;RP1=0, select bank0
  7164     0FBF  01CD               	clrf	display_logs@long_press_counter
  7165     0FC0  01CE               	clrf	display_logs@long_press_counter+1
  7166     0FC1  2E4C               	goto	l4441
  7167     0FC2                     l4547:
  7168     0FC2  032B               	decf	_clear_flag^(0+128),w
  7169     0FC3  042C               	iorwf	(_clear_flag+1)^(0+128),w
  7170     0FC4  1D03               	btfss	3,2
  7171     0FC5  2FC7               	goto	u5181
  7172     0FC6  2FC8               	goto	u5180
  7173     0FC7                     u5181:
  7174     0FC7  2E4C               	goto	l4441
  7175     0FC8                     u5180:
  7176     0FC8                     l4549:
  7177                           
  7178                           ;function.c: 196:             clcd_print(" No logs ", (0x80 + 0));
  7179     0FC8  3081               	movlw	low (STR_28| (0+32768))
  7180     0FC9  00F6               	movwf	clcd_print@str
  7181     0FCA  3087               	movlw	high (STR_28| (0+32768))
  7182     0FCB  00F7               	movwf	clcd_print@str+1
  7183     0FCC  3080               	movlw	128
  7184     0FCD  00F8               	movwf	clcd_print@addr
  7185     0FCE  160A  118A  2187  120A  158A  	fcall	_clcd_print
  7186                           
  7187                           ;function.c: 197:             clcd_print("are found!",(0xC0 + 4));
  7188     0FD3  3076               	movlw	low (STR_29| (0+32768))
  7189     0FD4  00F6               	movwf	clcd_print@str
  7190     0FD5  3087               	movlw	high (STR_29| (0+32768))
  7191     0FD6  00F7               	movwf	clcd_print@str+1
  7192     0FD7  30C4               	movlw	196
  7193     0FD8  00F8               	movwf	clcd_print@addr
  7194     0FD9  160A  118A  2187  120A  158A  	fcall	_clcd_print
  7195     0FDE                     l4551:
  7196                           
  7197                           ;function.c: 199:             _delay((unsigned long)((1000)*(20000000/4000.0)));
  7198     0FDE  301A               	movlw	26
  7199     0FDF  1283               	bcf	3,5	;RP0=0, select bank0
  7200     0FE0  1303               	bcf	3,6	;RP1=0, select bank0
  7201     0FE1  00C0               	movwf	??_display_logs+2
  7202     0FE2  305E               	movlw	94
  7203     0FE3  00BF               	movwf	??_display_logs+1
  7204     0FE4  306D               	movlw	109
  7205     0FE5  00BE               	movwf	??_display_logs
  7206     0FE6                     u6847:
  7207     0FE6  0BBE               	decfsz	??_display_logs,f
  7208     0FE7  2FE6               	goto	u6847
  7209     0FE8  0BBF               	decfsz	??_display_logs+1,f
  7210     0FE9  2FE6               	goto	u6847
  7211     0FEA  0BC0               	decfsz	??_display_logs+2,f
  7212     0FEB  2FE6               	goto	u6847
  7213     0FEC  2FED               	nop2
  7214     0FED                     l4553:
  7215                           
  7216                           ;function.c: 200:             clcd_write(0x01, 0);
  7217     0FED  01F2               	clrf	clcd_write@mode
  7218     0FEE  3001               	movlw	1
  7219     0FEF  160A  158A  27E0  120A  158A  	fcall	_clcd_write
  7220     0FF4                     l4555:
  7221                           
  7222                           ;function.c: 201:             dash_mode = 1;
  7223     0FF4  1283               	bcf	3,5	;RP0=0, select bank0
  7224     0FF5  1303               	bcf	3,6	;RP1=0, select bank0
  7225     0FF6  01EC               	clrf	_dash_mode
  7226     0FF7  0AEC               	incf	_dash_mode,f
  7227     0FF8                     l4557:
  7228                           
  7229                           ;function.c: 202:             if (dash_mode) {
  7230     0FF8  086C               	movf	_dash_mode,w
  7231     0FF9  1903               	btfsc	3,2
  7232     0FFA  2FFC               	goto	u5191
  7233     0FFB  2FFD               	goto	u5190
  7234     0FFC                     u5191:
  7235     0FFC  2FFE               	goto	l490
  7236     0FFD                     u5190:
  7237     0FFD  2FFF               	goto	l494
  7238     0FFE                     l490:
  7239     0FFE  2E4C               	goto	l4441
  7240     0FFF                     l494:
  7241     0FFF  0008               	return
  7242     1000                     __end_of_display_logs:
  7243                           
  7244                           	psect	text24
  7245     0A29                     __ptext24:	
  7246 ;; *************** function _store_eeprom *****************
  7247 ;; Defined at:
  7248 ;;		line 35 in file "external_eerprom.c"
  7249 ;; Parameters:    Size  Location     Type
  7250 ;;		None
  7251 ;; Auto vars:     Size  Location     Type
  7252 ;;  j               2   22[BANK0 ] int 
  7253 ;;  j               2   20[BANK0 ] int 
  7254 ;;  j               2   28[BANK0 ] int 
  7255 ;;  j               2   26[BANK0 ] int 
  7256 ;;  j               2   24[BANK0 ] int 
  7257 ;;  index           2   18[BANK0 ] int 
  7258 ;;  eeprom_data    12    5[BANK0 ] unsigned char [12]
  7259 ;;  addr            1   17[BANK0 ] unsigned char 
  7260 ;; Return value:  Size  Location     Type
  7261 ;;                  1    wreg      void 
  7262 ;; Registers used:
  7263 ;;		wreg, fsr0l, fsr0h, status,2, status,0, btemp+1, pclath, cstack
  7264 ;; Tracked objects:
  7265 ;;		On entry : 0/0
  7266 ;;		On exit  : 0/0
  7267 ;;		Unchanged: 0/0
  7268 ;; Data sizes:     COMMON   BANK0   BANK1   BANK3   BANK2
  7269 ;;      Params:         0       0       0       0       0
  7270 ;;      Locals:         0      25       0       0       0
  7271 ;;      Temps:          0       5       0       0       0
  7272 ;;      Totals:         0      30       0       0       0
  7273 ;;Total ram usage:       30 bytes
  7274 ;; Hardware stack levels used: 1
  7275 ;; Hardware stack levels required when called: 5
  7276 ;; This function calls:
  7277 ;;		___bmul
  7278 ;;		_read_ext_eeprom
  7279 ;;		_write_ext_eeprom
  7280 ;; This function is called by:
  7281 ;;		_main
  7282 ;;		_display_logs
  7283 ;; This function uses a non-reentrant model
  7284 ;;
  7285                           
  7286     0A29                     _store_eeprom:	
  7287                           ;psect for function _store_eeprom
  7288                           
  7289     0A29                     l4225:	
  7290                           ;incstack = 0
  7291                           ; Regs used in _store_eeprom: [wreg-fsr0h+status,2+status,0+btemp+1+pclath+cstack]
  7292                           
  7293                           
  7294                           ;external_eerprom.c: 37:     unsigned char addr;;external_eerprom.c: 38:     unsigned ch
      +                          ar eeprom_data[12];;external_eerprom.c: 40:     if(clear_flag)
  7295     0A29  1683               	bsf	3,5	;RP0=1, select bank1
  7296     0A2A  1303               	bcf	3,6	;RP1=0, select bank1
  7297     0A2B  082B               	movf	_clear_flag^(0+128),w
  7298     0A2C  042C               	iorwf	(_clear_flag+1)^(0+128),w
  7299     0A2D  1903               	btfsc	3,2
  7300     0A2E  2A30               	goto	u4681
  7301     0A2F  2A31               	goto	u4680
  7302     0A30                     u4681:
  7303     0A30  2A33               	goto	l4229
  7304     0A31                     u4680:
  7305     0A31                     l4227:
  7306                           
  7307                           ;external_eerprom.c: 41:     {;external_eerprom.c: 42:         clear_flag = 0;
  7308     0A31  01AB               	clrf	_clear_flag^(0+128)
  7309     0A32  01AC               	clrf	(_clear_flag+1)^(0+128)
  7310     0A33                     l4229:
  7311                           
  7312                           ;external_eerprom.c: 45:     for (int index = log_counter; index > 0; index--)
  7313     0A33  1283               	bcf	3,5	;RP0=0, select bank0
  7314     0A34  1303               	bcf	3,6	;RP1=0, select bank0
  7315     0A35  0864               	movf	_log_counter+1,w
  7316     0A36  00B3               	movwf	store_eeprom@index+1
  7317     0A37  0863               	movf	_log_counter,w
  7318     0A38  00B2               	movwf	store_eeprom@index
  7319     0A39                     l4231:
  7320     0A39  0833               	movf	store_eeprom@index+1,w
  7321     0A3A  3A80               	xorlw	128
  7322     0A3B  00FF               	movwf	btemp+1
  7323     0A3C  3080               	movlw	128
  7324     0A3D  027F               	subwf	btemp+1,w
  7325     0A3E  1D03               	skipz
  7326     0A3F  2A42               	goto	u4695
  7327     0A40  3001               	movlw	1
  7328     0A41  0232               	subwf	store_eeprom@index,w
  7329     0A42                     u4695:
  7330     0A42  1803               	skipnc
  7331     0A43  2A45               	goto	u4691
  7332     0A44  2A46               	goto	u4690
  7333     0A45                     u4691:
  7334     0A45  2A47               	goto	l4235
  7335     0A46                     u4690:
  7336     0A46  2AB2               	goto	l4263
  7337     0A47                     l4235:
  7338                           
  7339                           ;external_eerprom.c: 46:     {;external_eerprom.c: 48:         for (int j = 0; j < 12; j
      +                          ++)
  7340     0A47  1283               	bcf	3,5	;RP0=0, select bank0
  7341     0A48  1303               	bcf	3,6	;RP1=0, select bank0
  7342     0A49  01B4               	clrf	store_eeprom@j
  7343     0A4A  01B5               	clrf	store_eeprom@j+1
  7344     0A4B                     l4241:
  7345                           
  7346                           ;external_eerprom.c: 49:         {;external_eerprom.c: 50:             eeprom_data[j] = 
      +                          read_ext_eeprom((index - 1) * 12 + j);
  7347     0A4B  1283               	bcf	3,5	;RP0=0, select bank0
  7348     0A4C  1303               	bcf	3,6	;RP1=0, select bank0
  7349     0A4D  0834               	movf	store_eeprom@j,w
  7350     0A4E  3E25               	addlw	(low (store_eeprom@eeprom_data| 0))& (0+255)
  7351     0A4F  0084               	movwf	4
  7352     0A50  300C               	movlw	12
  7353     0A51  00F2               	movwf	___bmul@multiplicand
  7354     0A52  0832               	movf	store_eeprom@index,w
  7355     0A53  160A  158A  2778  120A  158A  	fcall	___bmul
  7356     0A58  1283               	bcf	3,5	;RP0=0, select bank0
  7357     0A59  1303               	bcf	3,6	;RP1=0, select bank0
  7358     0A5A  0734               	addwf	store_eeprom@j,w
  7359     0A5B  3EF4               	addlw	244
  7360     0A5C  160A  118A  2103  120A  158A  	fcall	_read_ext_eeprom
  7361     0A61  1383               	bcf	3,7	;select IRP bank0
  7362     0A62  0080               	movwf	0
  7363     0A63                     l4243:
  7364                           
  7365                           ;external_eerprom.c: 51:         }
  7366     0A63  3001               	movlw	1
  7367     0A64  1283               	bcf	3,5	;RP0=0, select bank0
  7368     0A65  1303               	bcf	3,6	;RP1=0, select bank0
  7369     0A66  07B4               	addwf	store_eeprom@j,f
  7370     0A67  1803               	skipnc
  7371     0A68  0AB5               	incf	store_eeprom@j+1,f
  7372     0A69  3000               	movlw	0
  7373     0A6A  07B5               	addwf	store_eeprom@j+1,f
  7374     0A6B                     l4245:
  7375     0A6B  0835               	movf	store_eeprom@j+1,w
  7376     0A6C  3A80               	xorlw	128
  7377     0A6D  00FF               	movwf	btemp+1
  7378     0A6E  3080               	movlw	128
  7379     0A6F  027F               	subwf	btemp+1,w
  7380     0A70  1D03               	skipz
  7381     0A71  2A74               	goto	u4705
  7382     0A72  300C               	movlw	12
  7383     0A73  0234               	subwf	store_eeprom@j,w
  7384     0A74                     u4705:
  7385     0A74  1C03               	skipc
  7386     0A75  2A77               	goto	u4701
  7387     0A76  2A78               	goto	u4700
  7388     0A77                     u4701:
  7389     0A77  2A4B               	goto	l4241
  7390     0A78                     u4700:
  7391     0A78                     l4247:
  7392                           
  7393                           ;external_eerprom.c: 53:         for (int j = 0; j < 12; j++)
  7394     0A78  1283               	bcf	3,5	;RP0=0, select bank0
  7395     0A79  1303               	bcf	3,6	;RP1=0, select bank0
  7396     0A7A  01B6               	clrf	store_eeprom@j_267
  7397     0A7B  01B7               	clrf	store_eeprom@j_267+1
  7398     0A7C                     l4253:
  7399                           
  7400                           ;external_eerprom.c: 54:         {;external_eerprom.c: 55:             write_ext_eeprom(
      +                          index * 12 + j, eeprom_data[j]);
  7401     0A7C  1283               	bcf	3,5	;RP0=0, select bank0
  7402     0A7D  1303               	bcf	3,6	;RP1=0, select bank0
  7403     0A7E  0836               	movf	store_eeprom@j_267,w
  7404     0A7F  3E25               	addlw	(low (store_eeprom@eeprom_data| 0))& (0+255)
  7405     0A80  0084               	movwf	4
  7406     0A81  1383               	bcf	3,7	;select IRP bank0
  7407     0A82  0800               	movf	0,w
  7408     0A83  00F5               	movwf	write_ext_eeprom@data
  7409     0A84  300C               	movlw	12
  7410     0A85  00F2               	movwf	___bmul@multiplicand
  7411     0A86  0832               	movf	store_eeprom@index,w
  7412     0A87  160A  158A  2778  120A  158A  	fcall	___bmul
  7413     0A8C  1283               	bcf	3,5	;RP0=0, select bank0
  7414     0A8D  1303               	bcf	3,6	;RP1=0, select bank0
  7415     0A8E  0736               	addwf	store_eeprom@j_267,w
  7416     0A8F  160A  158A  27A3  120A  158A  	fcall	_write_ext_eeprom
  7417     0A94                     l4255:
  7418                           
  7419                           ;external_eerprom.c: 56:         }
  7420     0A94  3001               	movlw	1
  7421     0A95  1283               	bcf	3,5	;RP0=0, select bank0
  7422     0A96  1303               	bcf	3,6	;RP1=0, select bank0
  7423     0A97  07B6               	addwf	store_eeprom@j_267,f
  7424     0A98  1803               	skipnc
  7425     0A99  0AB7               	incf	store_eeprom@j_267+1,f
  7426     0A9A  3000               	movlw	0
  7427     0A9B  07B7               	addwf	store_eeprom@j_267+1,f
  7428     0A9C                     l4257:
  7429     0A9C  0837               	movf	store_eeprom@j_267+1,w
  7430     0A9D  3A80               	xorlw	128
  7431     0A9E  00FF               	movwf	btemp+1
  7432     0A9F  3080               	movlw	128
  7433     0AA0  027F               	subwf	btemp+1,w
  7434     0AA1  1D03               	skipz
  7435     0AA2  2AA5               	goto	u4715
  7436     0AA3  300C               	movlw	12
  7437     0AA4  0236               	subwf	store_eeprom@j_267,w
  7438     0AA5                     u4715:
  7439     0AA5  1C03               	skipc
  7440     0AA6  2AA8               	goto	u4711
  7441     0AA7  2AA9               	goto	u4710
  7442     0AA8                     u4711:
  7443     0AA8  2A7C               	goto	l4253
  7444     0AA9                     u4710:
  7445     0AA9                     l4259:
  7446                           
  7447                           ;external_eerprom.c: 57:     }
  7448     0AA9  30FF               	movlw	255
  7449     0AAA  1283               	bcf	3,5	;RP0=0, select bank0
  7450     0AAB  1303               	bcf	3,6	;RP1=0, select bank0
  7451     0AAC  07B2               	addwf	store_eeprom@index,f
  7452     0AAD  1803               	skipnc
  7453     0AAE  0AB3               	incf	store_eeprom@index+1,f
  7454     0AAF  30FF               	movlw	255
  7455     0AB0  07B3               	addwf	store_eeprom@index+1,f
  7456     0AB1  2A39               	goto	l4231
  7457     0AB2                     l4263:
  7458                           
  7459                           ;external_eerprom.c: 60:     addr = 0;
  7460     0AB2  1283               	bcf	3,5	;RP0=0, select bank0
  7461     0AB3  1303               	bcf	3,6	;RP1=0, select bank0
  7462     0AB4  01B1               	clrf	store_eeprom@addr
  7463                           
  7464                           ;external_eerprom.c: 61:     for (int j = 0; j < 8; j++)
  7465     0AB5  01B8               	clrf	store_eeprom@j_269
  7466     0AB6  01B9               	clrf	store_eeprom@j_269+1
  7467     0AB7                     l4269:
  7468                           
  7469                           ;external_eerprom.c: 62:     {;external_eerprom.c: 63:         eeprom_data[j] = time[j];
  7470     0AB7  1283               	bcf	3,5	;RP0=0, select bank0
  7471     0AB8  1303               	bcf	3,6	;RP1=0, select bank0
  7472     0AB9  0838               	movf	store_eeprom@j_269,w
  7473     0ABA  3EAE               	addlw	(low (_time| 0))& (0+255)
  7474     0ABB  0084               	movwf	4
  7475     0ABC  1383               	bcf	3,7	;select IRP bank1
  7476     0ABD  0800               	movf	0,w
  7477     0ABE  00FF               	movwf	btemp+1
  7478     0ABF  0838               	movf	store_eeprom@j_269,w
  7479     0AC0  3E25               	addlw	(low (store_eeprom@eeprom_data| 0))& (0+255)
  7480     0AC1  0084               	movwf	4
  7481     0AC2  087F               	movf	btemp+1,w
  7482     0AC3  0080               	movwf	0
  7483     0AC4                     l4271:
  7484                           
  7485                           ;external_eerprom.c: 64:     }
  7486     0AC4  3001               	movlw	1
  7487     0AC5  07B8               	addwf	store_eeprom@j_269,f
  7488     0AC6  1803               	skipnc
  7489     0AC7  0AB9               	incf	store_eeprom@j_269+1,f
  7490     0AC8  3000               	movlw	0
  7491     0AC9  07B9               	addwf	store_eeprom@j_269+1,f
  7492     0ACA                     l4273:
  7493     0ACA  0839               	movf	store_eeprom@j_269+1,w
  7494     0ACB  3A80               	xorlw	128
  7495     0ACC  00FF               	movwf	btemp+1
  7496     0ACD  3080               	movlw	128
  7497     0ACE  027F               	subwf	btemp+1,w
  7498     0ACF  1D03               	skipz
  7499     0AD0  2AD3               	goto	u4725
  7500     0AD1  3008               	movlw	8
  7501     0AD2  0238               	subwf	store_eeprom@j_269,w
  7502     0AD3                     u4725:
  7503     0AD3  1C03               	skipc
  7504     0AD4  2AD6               	goto	u4721
  7505     0AD5  2AD7               	goto	u4720
  7506     0AD6                     u4721:
  7507     0AD6  2AB7               	goto	l4269
  7508     0AD7                     u4720:
  7509     0AD7                     l4275:
  7510                           
  7511                           ;external_eerprom.c: 65:     eeprom_data[8] = event[i][0];
  7512     0AD7  1283               	bcf	3,5	;RP0=0, select bank0
  7513     0AD8  1303               	bcf	3,6	;RP1=0, select bank0
  7514     0AD9  0867               	movf	_i,w
  7515     0ADA  00A0               	movwf	??_store_eeprom
  7516     0ADB  0720               	addwf	??_store_eeprom,w
  7517     0ADC  3EC2               	addlw	(low (_event| 0))& (0+255)
  7518     0ADD  0084               	movwf	4
  7519     0ADE  1383               	bcf	3,7	;select IRP bank1
  7520     0ADF  0800               	movf	0,w
  7521     0AE0  00A1               	movwf	??_store_eeprom+1
  7522     0AE1  0A84               	incf	4,f
  7523     0AE2  0800               	movf	0,w
  7524     0AE3  00A2               	movwf	??_store_eeprom+2
  7525     0AE4  0822               	movf	??_store_eeprom+2,w
  7526     0AE5  00FF               	movwf	btemp+1
  7527     0AE6  0821               	movf	??_store_eeprom+1,w
  7528     0AE7  0084               	movwf	4
  7529     0AE8  120A  118A  25EE  120A  158A  	fcall	stringtab
  7530     0AED  00AD               	movwf	store_eeprom@eeprom_data+8
  7531                           
  7532                           ;external_eerprom.c: 66:     eeprom_data[9] = event[i][1];
  7533     0AEE  3001               	movlw	1
  7534     0AEF  00A0               	movwf	??_store_eeprom
  7535     0AF0  3000               	movlw	0
  7536     0AF1  00A1               	movwf	??_store_eeprom+1
  7537     0AF2  0867               	movf	_i,w
  7538     0AF3  00A2               	movwf	??_store_eeprom+2
  7539     0AF4  0722               	addwf	??_store_eeprom+2,w
  7540     0AF5  3EC2               	addlw	(low (_event| 0))& (0+255)
  7541     0AF6  0084               	movwf	4
  7542     0AF7  1383               	bcf	3,7	;select IRP bank1
  7543     0AF8  0800               	movf	0,w
  7544     0AF9  00A3               	movwf	??_store_eeprom+3
  7545     0AFA  0A84               	incf	4,f
  7546     0AFB  0800               	movf	0,w
  7547     0AFC  00A4               	movwf	??_store_eeprom+4
  7548     0AFD  0820               	movf	??_store_eeprom,w
  7549     0AFE  0723               	addwf	??_store_eeprom+3,w
  7550     0AFF  0084               	movwf	4
  7551     0B00  0821               	movf	??_store_eeprom+1,w
  7552     0B01  1803               	skipnc
  7553     0B02  0A21               	incf	??_store_eeprom+1,w
  7554     0B03  0724               	addwf	??_store_eeprom+4,w
  7555     0B04  00FF               	movwf	btemp+1
  7556     0B05  120A  118A  25EE  120A  158A  	fcall	stringtab
  7557     0B0A  00AE               	movwf	store_eeprom@eeprom_data+9
  7558     0B0B                     l4277:
  7559                           
  7560                           ;external_eerprom.c: 67:     for (int j = 0; j < 2; j++)
  7561     0B0B  01BA               	clrf	store_eeprom@j_270
  7562     0B0C  01BB               	clrf	store_eeprom@j_270+1
  7563     0B0D                     l4283:
  7564                           
  7565                           ;external_eerprom.c: 68:     {;external_eerprom.c: 69:         eeprom_data[10 + j] = spe
      +                          ed[j];
  7566     0B0D  1283               	bcf	3,5	;RP0=0, select bank0
  7567     0B0E  1303               	bcf	3,6	;RP1=0, select bank0
  7568     0B0F  083A               	movf	store_eeprom@j_270,w
  7569     0B10  3EBC               	addlw	(low (_speed| 0))& (0+255)
  7570     0B11  0084               	movwf	4
  7571     0B12  1383               	bcf	3,7	;select IRP bank1
  7572     0B13  0800               	movf	0,w
  7573     0B14  00FF               	movwf	btemp+1
  7574     0B15  083A               	movf	store_eeprom@j_270,w
  7575     0B16  3E0A               	addlw	10
  7576     0B17  3E25               	addlw	(low (store_eeprom@eeprom_data| 0))& (0+255)
  7577     0B18  0084               	movwf	4
  7578     0B19  087F               	movf	btemp+1,w
  7579     0B1A  0080               	movwf	0
  7580     0B1B                     l4285:
  7581                           
  7582                           ;external_eerprom.c: 70:     }
  7583     0B1B  3001               	movlw	1
  7584     0B1C  07BA               	addwf	store_eeprom@j_270,f
  7585     0B1D  1803               	skipnc
  7586     0B1E  0ABB               	incf	store_eeprom@j_270+1,f
  7587     0B1F  3000               	movlw	0
  7588     0B20  07BB               	addwf	store_eeprom@j_270+1,f
  7589     0B21                     l4287:
  7590     0B21  083B               	movf	store_eeprom@j_270+1,w
  7591     0B22  3A80               	xorlw	128
  7592     0B23  00FF               	movwf	btemp+1
  7593     0B24  3080               	movlw	128
  7594     0B25  027F               	subwf	btemp+1,w
  7595     0B26  1D03               	skipz
  7596     0B27  2B2A               	goto	u4735
  7597     0B28  3002               	movlw	2
  7598     0B29  023A               	subwf	store_eeprom@j_270,w
  7599     0B2A                     u4735:
  7600     0B2A  1C03               	skipc
  7601     0B2B  2B2D               	goto	u4731
  7602     0B2C  2B2E               	goto	u4730
  7603     0B2D                     u4731:
  7604     0B2D  2B0D               	goto	l4283
  7605     0B2E                     u4730:
  7606     0B2E                     l4289:
  7607                           
  7608                           ;external_eerprom.c: 71:     for (int j = 0; j < 12; j++)
  7609     0B2E  1283               	bcf	3,5	;RP0=0, select bank0
  7610     0B2F  1303               	bcf	3,6	;RP1=0, select bank0
  7611     0B30  01BC               	clrf	store_eeprom@j_271
  7612     0B31  01BD               	clrf	store_eeprom@j_271+1
  7613     0B32                     l4295:
  7614                           
  7615                           ;external_eerprom.c: 72:     {;external_eerprom.c: 73:         write_ext_eeprom(addr + j
      +                          , eeprom_data[j]);
  7616     0B32  1283               	bcf	3,5	;RP0=0, select bank0
  7617     0B33  1303               	bcf	3,6	;RP1=0, select bank0
  7618     0B34  083C               	movf	store_eeprom@j_271,w
  7619     0B35  3E25               	addlw	(low (store_eeprom@eeprom_data| 0))& (0+255)
  7620     0B36  0084               	movwf	4
  7621     0B37  1383               	bcf	3,7	;select IRP bank0
  7622     0B38  0800               	movf	0,w
  7623     0B39  00F5               	movwf	write_ext_eeprom@data
  7624     0B3A  083C               	movf	store_eeprom@j_271,w
  7625     0B3B  0731               	addwf	store_eeprom@addr,w
  7626     0B3C  160A  158A  27A3  120A  158A  	fcall	_write_ext_eeprom
  7627     0B41                     l4297:
  7628                           
  7629                           ;external_eerprom.c: 74:     }
  7630     0B41  3001               	movlw	1
  7631     0B42  1283               	bcf	3,5	;RP0=0, select bank0
  7632     0B43  1303               	bcf	3,6	;RP1=0, select bank0
  7633     0B44  07BC               	addwf	store_eeprom@j_271,f
  7634     0B45  1803               	skipnc
  7635     0B46  0ABD               	incf	store_eeprom@j_271+1,f
  7636     0B47  3000               	movlw	0
  7637     0B48  07BD               	addwf	store_eeprom@j_271+1,f
  7638     0B49                     l4299:
  7639     0B49  083D               	movf	store_eeprom@j_271+1,w
  7640     0B4A  3A80               	xorlw	128
  7641     0B4B  00FF               	movwf	btemp+1
  7642     0B4C  3080               	movlw	128
  7643     0B4D  027F               	subwf	btemp+1,w
  7644     0B4E  1D03               	skipz
  7645     0B4F  2B52               	goto	u4745
  7646     0B50  300C               	movlw	12
  7647     0B51  023C               	subwf	store_eeprom@j_271,w
  7648     0B52                     u4745:
  7649     0B52  1C03               	skipc
  7650     0B53  2B55               	goto	u4741
  7651     0B54  2B56               	goto	u4740
  7652     0B55                     u4741:
  7653     0B55  2B32               	goto	l4295
  7654     0B56                     u4740:
  7655     0B56                     l4301:
  7656                           
  7657                           ;external_eerprom.c: 77:     if (log_counter < 10)
  7658     0B56  3000               	movlw	0
  7659     0B57  1283               	bcf	3,5	;RP0=0, select bank0
  7660     0B58  1303               	bcf	3,6	;RP1=0, select bank0
  7661     0B59  0264               	subwf	_log_counter+1,w
  7662     0B5A  300A               	movlw	10
  7663     0B5B  1903               	skipnz
  7664     0B5C  0263               	subwf	_log_counter,w
  7665     0B5D  1803               	skipnc
  7666     0B5E  2B60               	goto	u4751
  7667     0B5F  2B61               	goto	u4750
  7668     0B60                     u4751:
  7669     0B60  2B67               	goto	l308
  7670     0B61                     u4750:
  7671     0B61                     l4303:
  7672                           
  7673                           ;external_eerprom.c: 78:     {;external_eerprom.c: 79:         log_counter++;
  7674     0B61  3001               	movlw	1
  7675     0B62  07E3               	addwf	_log_counter,f
  7676     0B63  1803               	skipnc
  7677     0B64  0AE4               	incf	_log_counter+1,f
  7678     0B65  3000               	movlw	0
  7679     0B66  07E4               	addwf	_log_counter+1,f
  7680     0B67                     l308:
  7681     0B67  0008               	return
  7682     0B68                     __end_of_store_eeprom:
  7683                           
  7684                           	psect	text25
  7685     1103                     __ptext25:	
  7686 ;; *************** function _read_ext_eeprom *****************
  7687 ;; Defined at:
  7688 ;;		line 11 in file "external_eerprom.c"
  7689 ;; Parameters:    Size  Location     Type
  7690 ;;  addr            1    wreg     unsigned char 
  7691 ;; Auto vars:     Size  Location     Type
  7692 ;;  addr            1    4[COMMON] unsigned char 
  7693 ;;  data            1    5[COMMON] unsigned char 
  7694 ;; Return value:  Size  Location     Type
  7695 ;;                  1    wreg      unsigned char 
  7696 ;; Registers used:
  7697 ;;		wreg, status,2, status,0, pclath, cstack
  7698 ;; Tracked objects:
  7699 ;;		On entry : 0/0
  7700 ;;		On exit  : 0/0
  7701 ;;		Unchanged: 0/0
  7702 ;; Data sizes:     COMMON   BANK0   BANK1   BANK3   BANK2
  7703 ;;      Params:         0       0       0       0       0
  7704 ;;      Locals:         2       0       0       0       0
  7705 ;;      Temps:          0       0       0       0       0
  7706 ;;      Totals:         2       0       0       0       0
  7707 ;;Total ram usage:        2 bytes
  7708 ;; Hardware stack levels used: 1
  7709 ;; Hardware stack levels required when called: 4
  7710 ;; This function calls:
  7711 ;;		_i2c_read
  7712 ;;		_i2c_rep_start
  7713 ;;		_i2c_start
  7714 ;;		_i2c_stop
  7715 ;;		_i2c_write
  7716 ;; This function is called by:
  7717 ;;		_main
  7718 ;;		_store_eeprom
  7719 ;;		_display_logs
  7720 ;;		_download_log
  7721 ;; This function uses a non-reentrant model
  7722 ;;
  7723                           
  7724     1103                     _read_ext_eeprom:	
  7725                           ;psect for function _read_ext_eeprom
  7726                           
  7727                           
  7728                           ;incstack = 0
  7729                           ; Regs used in _read_ext_eeprom: [wreg+status,2+status,0+pclath+cstack]
  7730                           ;read_ext_eeprom@addr stored from wreg
  7731     1103  00F4               	movwf	read_ext_eeprom@addr
  7732     1104                     l4129:
  7733                           
  7734                           ;external_eerprom.c: 11: unsigned char read_ext_eeprom(unsigned char addr);external_eerp
      +                          rom.c: 12: {;external_eerprom.c: 13:     unsigned char data;;external_eerprom.c: 15:    
      +                           i2c_start();
  7735     1104  160A  158A  26E4  160A  118A  	fcall	_i2c_start
  7736                           
  7737                           ;external_eerprom.c: 16:     i2c_write(0b10100000);
  7738     1109  30A0               	movlw	160
  7739     110A  160A  158A  26FF  160A  118A  	fcall	_i2c_write
  7740                           
  7741                           ;external_eerprom.c: 17:     i2c_write(addr);
  7742     110F  0874               	movf	read_ext_eeprom@addr,w
  7743     1110  160A  158A  26FF  160A  118A  	fcall	_i2c_write
  7744                           
  7745                           ;external_eerprom.c: 18:     i2c_rep_start();
  7746     1115  160A  158A  270A  160A  118A  	fcall	_i2c_rep_start
  7747                           
  7748                           ;external_eerprom.c: 19:     i2c_write(0b10100001);
  7749     111A  30A1               	movlw	161
  7750     111B  160A  158A  26FF  160A  118A  	fcall	_i2c_write
  7751                           
  7752                           ;external_eerprom.c: 20:     data = i2c_read(0);
  7753     1120  3000               	movlw	0
  7754     1121  160A  118A  201E  160A  118A  	fcall	_i2c_read
  7755     1126  00F5               	movwf	read_ext_eeprom@data
  7756                           
  7757                           ;external_eerprom.c: 21:     i2c_stop();
  7758     1127  160A  158A  26ED  160A  118A  	fcall	_i2c_stop
  7759     112C                     l4131:
  7760                           
  7761                           ;external_eerprom.c: 23:     return data;
  7762     112C  0875               	movf	read_ext_eeprom@data,w
  7763     112D                     l288:
  7764     112D  0008               	return
  7765     112E                     __end_of_read_ext_eeprom:
  7766                           
  7767                           	psect	text26
  7768     0043                     __ptext26:	
  7769 ;; *************** function _change_time *****************
  7770 ;; Defined at:
  7771 ;;		line 320 in file "function.c"
  7772 ;; Parameters:    Size  Location     Type
  7773 ;;		None
  7774 ;; Auto vars:     Size  Location     Type
  7775 ;;  dummy           1   15[BANK0 ] unsigned char 
  7776 ;;  new_time        3   16[BANK0 ] unsigned char [3]
  7777 ;;  wait            2    9[BANK0 ] unsigned int 
  7778 ;;  blink_pos       1   19[BANK0 ] unsigned char 
  7779 ;;  blink           1   14[BANK0 ] unsigned char 
  7780 ;;  key             1   13[BANK0 ] unsigned char 
  7781 ;;  long_press_c    1   12[BANK0 ] unsigned char 
  7782 ;;  one_time        1   11[BANK0 ] unsigned char 
  7783 ;; Return value:  Size  Location     Type
  7784 ;;                  1    wreg      void 
  7785 ;; Registers used:
  7786 ;;		wreg, fsr0l, fsr0h, status,2, status,0, btemp+1, pclath, cstack
  7787 ;; Tracked objects:
  7788 ;;		On entry : 0/0
  7789 ;;		On exit  : 0/0
  7790 ;;		Unchanged: 0/0
  7791 ;; Data sizes:     COMMON   BANK0   BANK1   BANK3   BANK2
  7792 ;;      Params:         0       0       0       0       0
  7793 ;;      Locals:         0      11       0       0       0
  7794 ;;      Temps:          0       7       0       0       0
  7795 ;;      Totals:         0      18       0       0       0
  7796 ;;Total ram usage:       18 bytes
  7797 ;; Hardware stack levels used: 1
  7798 ;; Hardware stack levels required when called: 6
  7799 ;; This function calls:
  7800 ;;		___awdiv
  7801 ;;		___awmod
  7802 ;;		___bmul
  7803 ;;		_clcd_print
  7804 ;;		_clcd_putch
  7805 ;;		_clcd_write
  7806 ;;		_detect_single_press
  7807 ;;		_get_time
  7808 ;;		_read_digital_keypad
  7809 ;;		_write_ds1307
  7810 ;; This function is called by:
  7811 ;;		_enter_menu_option
  7812 ;; This function uses a non-reentrant model
  7813 ;;
  7814                           
  7815     0043                     _change_time:	
  7816                           ;psect for function _change_time
  7817                           
  7818     0043                     l4711:	
  7819                           ;incstack = 0
  7820 ;; hardware stack exceeded
  7821                           ; Regs used in _change_time: [wreg-fsr0h+status,2+status,0+btemp+1+pclath+cstack]
  7822                           
  7823                           
  7824                           ;function.c: 321:     unsigned char key;;function.c: 322:     unsigned char new_time[3];
      +                          ;function.c: 323:     unsigned char blink_pos = 0;
  7825     0043  1283               	bcf	3,5	;RP0=0, select bank0
  7826     0044  1303               	bcf	3,6	;RP1=0, select bank0
  7827     0045  01B3               	clrf	change_time@blink_pos
  7828                           
  7829                           ;function.c: 324:     unsigned char blink = 0;
  7830     0046  01AE               	clrf	change_time@blink
  7831                           
  7832                           ;function.c: 325:     unsigned int wait = 0;
  7833     0047  01A9               	clrf	change_time@wait
  7834     0048  01AA               	clrf	change_time@wait+1
  7835     0049                     l4713:
  7836                           
  7837                           ;function.c: 326:     unsigned char one_time = 1;
  7838     0049  01AB               	clrf	change_time@one_time
  7839     004A  0AAB               	incf	change_time@one_time,f
  7840                           
  7841                           ;function.c: 327:     unsigned char long_press_counter = 0;
  7842     004B  01AC               	clrf	change_time@long_press_counter
  7843     004C                     l4715:
  7844                           
  7845                           ;function.c: 329:     clcd_write(0x01, 0);
  7846     004C  01F2               	clrf	clcd_write@mode
  7847     004D  3001               	movlw	1
  7848     004E  160A  158A  27E0  120A  118A  	fcall	_clcd_write
  7849     0053                     l4717:
  7850                           
  7851                           ;function.c: 330:     _delay((unsigned long)((500)*(20000000/4000000.0)));
  7852     0053  3004               	movlw	4
  7853     0054  1283               	bcf	3,5	;RP0=0, select bank0
  7854     0055  1303               	bcf	3,6	;RP1=0, select bank0
  7855     0056  00A3               	movwf	??_change_time+1
  7856     0057  303D               	movlw	61
  7857     0058  00A2               	movwf	??_change_time
  7858     0059                     u6857:
  7859     0059  0BA2               	decfsz	??_change_time,f
  7860     005A  2859               	goto	u6857
  7861     005B  0BA3               	decfsz	??_change_time+1,f
  7862     005C  2859               	goto	u6857
  7863     005D                     l4719:
  7864                           
  7865                           ;function.c: 332:     clcd_print("Time (HH:MM:SS)", (0x80 + 0));
  7866     005D  30C0               	movlw	low (STR_43| (0+32768))
  7867     005E  00F6               	movwf	clcd_print@str
  7868     005F  3086               	movlw	high (STR_43| (0+32768))
  7869     0060  00F7               	movwf	clcd_print@str+1
  7870     0061  3080               	movlw	128
  7871     0062  00F8               	movwf	clcd_print@addr
  7872     0063  160A  118A  2187  120A  118A  	fcall	_clcd_print
  7873     0068                     l4721:
  7874                           
  7875                           ;function.c: 335:         key = detect_single_press();
  7876     0068  160A  118A  2086  120A  118A  	fcall	_detect_single_press
  7877     006D  1283               	bcf	3,5	;RP0=0, select bank0
  7878     006E  1303               	bcf	3,6	;RP1=0, select bank0
  7879     006F  00AD               	movwf	change_time@key
  7880     0070                     l4723:
  7881                           
  7882                           ;function.c: 337:         if (one_time) {
  7883     0070  082B               	movf	change_time@one_time,w
  7884     0071  1903               	btfsc	3,2
  7885     0072  2874               	goto	u5331
  7886     0073  2875               	goto	u5330
  7887     0074                     u5331:
  7888     0074  28DC               	goto	l4735
  7889     0075                     u5330:
  7890     0075                     l4725:
  7891                           
  7892                           ;function.c: 338:             one_time = 0;
  7893     0075  01AB               	clrf	change_time@one_time
  7894     0076                     l4727:
  7895                           
  7896                           ;function.c: 339:             get_time(clock_reg);
  7897     0076  30BF               	movlw	(low (_clock_reg| 0))& (0+255)
  7898     0077  160A  118A  203F  120A  118A  	fcall	_get_time
  7899     007C                     l4729:
  7900                           
  7901                           ;function.c: 341:             new_time[0] = ((clock_reg[0] >> 4) & 0x03) * 10 + (clock_r
      +                          eg[0] & 0x0F);
  7902     007C  300F               	movlw	15
  7903     007D  1683               	bsf	3,5	;RP0=1, select bank1
  7904     007E  1303               	bcf	3,6	;RP1=0, select bank1
  7905     007F  053F               	andwf	_clock_reg^(0+128),w
  7906     0080  1283               	bcf	3,5	;RP0=0, select bank0
  7907     0081  1303               	bcf	3,6	;RP1=0, select bank0
  7908     0082  00A2               	movwf	??_change_time
  7909     0083  300A               	movlw	10
  7910     0084  00F2               	movwf	___bmul@multiplicand
  7911     0085  1683               	bsf	3,5	;RP0=1, select bank1
  7912     0086  1303               	bcf	3,6	;RP1=0, select bank1
  7913     0087  083F               	movf	_clock_reg^(0+128),w
  7914     0088  1283               	bcf	3,5	;RP0=0, select bank0
  7915     0089  1303               	bcf	3,6	;RP1=0, select bank0
  7916     008A  00A3               	movwf	??_change_time+1
  7917     008B  3004               	movlw	4
  7918     008C                     u5345:
  7919     008C  1003               	clrc
  7920     008D  0CA3               	rrf	??_change_time+1,f
  7921     008E  3EFF               	addlw	-1
  7922     008F  1D03               	skipz
  7923     0090  288C               	goto	u5345
  7924     0091  0823               	movf	??_change_time+1,w
  7925     0092  3903               	andlw	3
  7926     0093  160A  158A  2778  120A  118A  	fcall	___bmul
  7927     0098  1283               	bcf	3,5	;RP0=0, select bank0
  7928     0099  1303               	bcf	3,6	;RP1=0, select bank0
  7929     009A  0722               	addwf	??_change_time,w
  7930     009B  00B0               	movwf	change_time@new_time
  7931     009C                     l4731:
  7932                           
  7933                           ;function.c: 342:             new_time[1] = ((clock_reg[1] >> 4) & 0x07) * 10 + (clock_r
      +                          eg[1] & 0x0F);
  7934     009C  300F               	movlw	15
  7935     009D  1683               	bsf	3,5	;RP0=1, select bank1
  7936     009E  1303               	bcf	3,6	;RP1=0, select bank1
  7937     009F  0540               	andwf	(_clock_reg^(0+128)+1),w
  7938     00A0  1283               	bcf	3,5	;RP0=0, select bank0
  7939     00A1  1303               	bcf	3,6	;RP1=0, select bank0
  7940     00A2  00A2               	movwf	??_change_time
  7941     00A3  300A               	movlw	10
  7942     00A4  00F2               	movwf	___bmul@multiplicand
  7943     00A5  1683               	bsf	3,5	;RP0=1, select bank1
  7944     00A6  1303               	bcf	3,6	;RP1=0, select bank1
  7945     00A7  0840               	movf	(_clock_reg^(0+128)+1),w
  7946     00A8  1283               	bcf	3,5	;RP0=0, select bank0
  7947     00A9  1303               	bcf	3,6	;RP1=0, select bank0
  7948     00AA  00A3               	movwf	??_change_time+1
  7949     00AB  3004               	movlw	4
  7950     00AC                     u5355:
  7951     00AC  1003               	clrc
  7952     00AD  0CA3               	rrf	??_change_time+1,f
  7953     00AE  3EFF               	addlw	-1
  7954     00AF  1D03               	skipz
  7955     00B0  28AC               	goto	u5355
  7956     00B1  0823               	movf	??_change_time+1,w
  7957     00B2  3907               	andlw	7
  7958     00B3  160A  158A  2778  120A  118A  	fcall	___bmul
  7959     00B8  1283               	bcf	3,5	;RP0=0, select bank0
  7960     00B9  1303               	bcf	3,6	;RP1=0, select bank0
  7961     00BA  0722               	addwf	??_change_time,w
  7962     00BB  00B1               	movwf	change_time@new_time+1
  7963     00BC                     l4733:
  7964                           
  7965                           ;function.c: 343:             new_time[2] = ((clock_reg[2] >> 4) & 0x07) * 10 + (clock_r
      +                          eg[2] & 0x0F);
  7966     00BC  300F               	movlw	15
  7967     00BD  1683               	bsf	3,5	;RP0=1, select bank1
  7968     00BE  1303               	bcf	3,6	;RP1=0, select bank1
  7969     00BF  0541               	andwf	(_clock_reg^(0+128)+2),w
  7970     00C0  1283               	bcf	3,5	;RP0=0, select bank0
  7971     00C1  1303               	bcf	3,6	;RP1=0, select bank0
  7972     00C2  00A2               	movwf	??_change_time
  7973     00C3  300A               	movlw	10
  7974     00C4  00F2               	movwf	___bmul@multiplicand
  7975     00C5  1683               	bsf	3,5	;RP0=1, select bank1
  7976     00C6  1303               	bcf	3,6	;RP1=0, select bank1
  7977     00C7  0841               	movf	(_clock_reg^(0+128)+2),w
  7978     00C8  1283               	bcf	3,5	;RP0=0, select bank0
  7979     00C9  1303               	bcf	3,6	;RP1=0, select bank0
  7980     00CA  00A3               	movwf	??_change_time+1
  7981     00CB  3004               	movlw	4
  7982     00CC                     u5365:
  7983     00CC  1003               	clrc
  7984     00CD  0CA3               	rrf	??_change_time+1,f
  7985     00CE  3EFF               	addlw	-1
  7986     00CF  1D03               	skipz
  7987     00D0  28CC               	goto	u5365
  7988     00D1  0823               	movf	??_change_time+1,w
  7989     00D2  3907               	andlw	7
  7990     00D3  160A  158A  2778  120A  118A  	fcall	___bmul
  7991     00D8  1283               	bcf	3,5	;RP0=0, select bank0
  7992     00D9  1303               	bcf	3,6	;RP1=0, select bank0
  7993     00DA  0722               	addwf	??_change_time,w
  7994     00DB  00B2               	movwf	change_time@new_time+2
  7995     00DC                     l4735:
  7996                           
  7997                           ;function.c: 347:         if (key == 0x2F) {
  7998     00DC  302F               	movlw	47
  7999     00DD  062D               	xorwf	change_time@key,w
  8000     00DE  1D03               	btfss	3,2
  8001     00DF  28E1               	goto	u5371
  8002     00E0  28E2               	goto	u5370
  8003     00E1                     u5371:
  8004     00E1  2912               	goto	l4753
  8005     00E2                     u5370:
  8006     00E2                     l4737:
  8007                           
  8008                           ;function.c: 348:             new_time[blink_pos]++;
  8009     00E2  3001               	movlw	1
  8010     00E3  00FF               	movwf	btemp+1
  8011     00E4  0833               	movf	change_time@blink_pos,w
  8012     00E5  3E30               	addlw	(low (change_time@new_time| 0))& (0+255)
  8013     00E6  0084               	movwf	4
  8014     00E7  087F               	movf	btemp+1,w
  8015     00E8  1383               	bcf	3,7	;select IRP bank0
  8016     00E9  0780               	addwf	0,f
  8017     00EA                     l4739:
  8018                           
  8019                           ;function.c: 349:             if (blink_pos == 0 && new_time[blink_pos] > 23)
  8020     00EA  0833               	movf	change_time@blink_pos,w
  8021     00EB  1D03               	btfss	3,2
  8022     00EC  28EE               	goto	u5381
  8023     00ED  28EF               	goto	u5380
  8024     00EE                     u5381:
  8025     00EE  28FD               	goto	l4745
  8026     00EF                     u5380:
  8027     00EF                     l4741:
  8028     00EF  0833               	movf	change_time@blink_pos,w
  8029     00F0  3E30               	addlw	(low (change_time@new_time| 0))& (0+255)
  8030     00F1  0084               	movwf	4
  8031     00F2  3018               	movlw	24
  8032     00F3  0200               	subwf	0,w
  8033     00F4  1C03               	skipc
  8034     00F5  28F7               	goto	u5391
  8035     00F6  28F8               	goto	u5390
  8036     00F7                     u5391:
  8037     00F7  28FD               	goto	l4745
  8038     00F8                     u5390:
  8039     00F8                     l4743:
  8040                           
  8041                           ;function.c: 350:                 new_time[blink_pos] = 0;
  8042     00F8  0833               	movf	change_time@blink_pos,w
  8043     00F9  3E30               	addlw	(low (change_time@new_time| 0))& (0+255)
  8044     00FA  0084               	movwf	4
  8045     00FB  0180               	clrf	0
  8046     00FC  292C               	goto	l4757
  8047     00FD                     l4745:
  8048     00FD  0333               	decf	change_time@blink_pos,w
  8049     00FE  1903               	btfsc	3,2
  8050     00FF  2901               	goto	u5401
  8051     0100  2902               	goto	u5400
  8052     0101                     u5401:
  8053     0101  2908               	goto	l4749
  8054     0102                     u5400:
  8055     0102                     l4747:
  8056     0102  3002               	movlw	2
  8057     0103  0633               	xorwf	change_time@blink_pos,w
  8058     0104  1D03               	btfss	3,2
  8059     0105  2907               	goto	u5411
  8060     0106  2908               	goto	u5410
  8061     0107                     u5411:
  8062     0107  292C               	goto	l4757
  8063     0108                     u5410:
  8064     0108                     l4749:
  8065     0108  0833               	movf	change_time@blink_pos,w
  8066     0109  3E30               	addlw	(low (change_time@new_time| 0))& (0+255)
  8067     010A  0084               	movwf	4
  8068     010B  303C               	movlw	60
  8069     010C  0200               	subwf	0,w
  8070     010D  1C03               	skipc
  8071     010E  2910               	goto	u5421
  8072     010F  2911               	goto	u5420
  8073     0110                     u5421:
  8074     0110  292C               	goto	l4757
  8075     0111                     u5420:
  8076     0111  28F8               	goto	l4743
  8077     0112                     l4753:
  8078     0112  301F               	movlw	31
  8079     0113  062D               	xorwf	change_time@key,w
  8080     0114  1D03               	btfss	3,2
  8081     0115  2917               	goto	u5431
  8082     0116  2918               	goto	u5430
  8083     0117                     u5431:
  8084     0117  292C               	goto	l4757
  8085     0118                     u5430:
  8086     0118                     l4755:
  8087                           
  8088                           ;function.c: 354:             blink_pos = (blink_pos + 1) % 3;
  8089     0118  3003               	movlw	3
  8090     0119  00F2               	movwf	___awmod@divisor
  8091     011A  3000               	movlw	0
  8092     011B  00F3               	movwf	___awmod@divisor+1
  8093     011C  0833               	movf	change_time@blink_pos,w
  8094     011D  3E01               	addlw	1
  8095     011E  00F4               	movwf	___awmod@dividend
  8096     011F  3000               	movlw	0
  8097     0120  1803               	skipnc
  8098     0121  3001               	movlw	1
  8099     0122  00F5               	movwf	___awmod@dividend+1
  8100     0123  160A  118A  2339  120A  118A  	fcall	___awmod
  8101     0128  0872               	movf	?___awmod,w
  8102     0129  1283               	bcf	3,5	;RP0=0, select bank0
  8103     012A  1303               	bcf	3,6	;RP1=0, select bank0
  8104     012B  00B3               	movwf	change_time@blink_pos
  8105     012C                     l4757:
  8106                           
  8107                           ;function.c: 358:         if (read_digital_keypad(0) == 0x1F) {
  8108     012C  3000               	movlw	0
  8109     012D  160A  118A  20AE  120A  118A  	fcall	_read_digital_keypad
  8110     0132  3A1F               	xorlw	31
  8111     0133  1D03               	skipz
  8112     0134  2936               	goto	u5441
  8113     0135  2937               	goto	u5440
  8114     0136                     u5441:
  8115     0136  2A40               	goto	l4789
  8116     0137                     u5440:
  8117     0137                     l4759:
  8118                           
  8119                           ;function.c: 359:             long_press_counter++;
  8120     0137  3001               	movlw	1
  8121     0138  00FF               	movwf	btemp+1
  8122     0139  087F               	movf	btemp+1,w
  8123     013A  1283               	bcf	3,5	;RP0=0, select bank0
  8124     013B  1303               	bcf	3,6	;RP1=0, select bank0
  8125     013C  07AC               	addwf	change_time@long_press_counter,f
  8126     013D                     l4761:
  8127                           
  8128                           ;function.c: 360:             _delay((unsigned long)((10)*(20000000/4000.0)));
  8129     013D  3041               	movlw	65
  8130     013E  1283               	bcf	3,5	;RP0=0, select bank0
  8131     013F  1303               	bcf	3,6	;RP1=0, select bank0
  8132     0140  00A3               	movwf	??_change_time+1
  8133     0141  30ED               	movlw	237
  8134     0142  00A2               	movwf	??_change_time
  8135     0143                     u6867:
  8136     0143  0BA2               	decfsz	??_change_time,f
  8137     0144  2943               	goto	u6867
  8138     0145  0BA3               	decfsz	??_change_time+1,f
  8139     0146  2943               	goto	u6867
  8140     0147  2948               	nop2
  8141     0148                     l4763:
  8142                           
  8143                           ;function.c: 361:             if (long_press_counter > 100) {
  8144     0148  3065               	movlw	101
  8145     0149  1283               	bcf	3,5	;RP0=0, select bank0
  8146     014A  1303               	bcf	3,6	;RP1=0, select bank0
  8147     014B  022C               	subwf	change_time@long_press_counter,w
  8148     014C  1C03               	skipc
  8149     014D  294F               	goto	u5451
  8150     014E  2950               	goto	u5450
  8151     014F                     u5451:
  8152     014F  2A43               	goto	l4791
  8153     0150                     u5450:
  8154     0150                     l4765:
  8155                           
  8156                           ;function.c: 363:                 unsigned char dummy;;function.c: 365:                 
      +                          dummy = ((new_time[0] / 10) << 4) | (new_time[0] % 10);
  8157     0150  300A               	movlw	10
  8158     0151  00F2               	movwf	___awmod@divisor
  8159     0152  3000               	movlw	0
  8160     0153  00F3               	movwf	___awmod@divisor+1
  8161     0154  0830               	movf	change_time@new_time,w
  8162     0155  00A2               	movwf	??_change_time
  8163     0156  01A3               	clrf	??_change_time+1
  8164     0157  0822               	movf	??_change_time,w
  8165     0158  00F4               	movwf	___awmod@dividend
  8166     0159  0823               	movf	??_change_time+1,w
  8167     015A  00F5               	movwf	___awmod@dividend+1
  8168     015B  160A  118A  2339  120A  118A  	fcall	___awmod
  8169     0160  0872               	movf	?___awmod,w
  8170     0161  1283               	bcf	3,5	;RP0=0, select bank0
  8171     0162  1303               	bcf	3,6	;RP1=0, select bank0
  8172     0163  00A4               	movwf	??_change_time+2
  8173     0164  0873               	movf	?___awmod+1,w
  8174     0165  00A5               	movwf	??_change_time+3
  8175     0166  300A               	movlw	10
  8176     0167  00F2               	movwf	___awdiv@divisor
  8177     0168  3000               	movlw	0
  8178     0169  00F3               	movwf	___awdiv@divisor+1
  8179     016A  0830               	movf	change_time@new_time,w
  8180     016B  00A6               	movwf	??_change_time+4
  8181     016C  01A7               	clrf	??_change_time+5
  8182     016D  0826               	movf	??_change_time+4,w
  8183     016E  00F4               	movwf	___awdiv@dividend
  8184     016F  0827               	movf	??_change_time+5,w
  8185     0170  00F5               	movwf	___awdiv@dividend+1
  8186     0171  160A  118A  2392  120A  118A  	fcall	___awdiv
  8187     0176  0872               	movf	?___awdiv,w
  8188     0177  1283               	bcf	3,5	;RP0=0, select bank0
  8189     0178  1303               	bcf	3,6	;RP1=0, select bank0
  8190     0179  00A8               	movwf	??_change_time+6
  8191     017A  3003               	movlw	3
  8192     017B                     u5465:
  8193     017B  1003               	clrc
  8194     017C  0DA8               	rlf	??_change_time+6,f
  8195     017D  3EFF               	addlw	-1
  8196     017E  1D03               	skipz
  8197     017F  297B               	goto	u5465
  8198     0180  1003               	clrc
  8199     0181  0D28               	rlf	??_change_time+6,w
  8200     0182  0424               	iorwf	??_change_time+2,w
  8201     0183  00AF               	movwf	change_time@dummy
  8202     0184                     l4767:
  8203                           
  8204                           ;function.c: 366:                 write_ds1307(0x02, dummy);
  8205     0184  082F               	movf	change_time@dummy,w
  8206     0185  00F3               	movwf	write_ds1307@data
  8207     0186  3002               	movlw	2
  8208     0187  160A  118A  2000  120A  118A  	fcall	_write_ds1307
  8209     018C                     l4769:
  8210                           
  8211                           ;function.c: 368:                 dummy = ((new_time[1] / 10) << 4) | (new_time[1] % 10)
      +                          ;
  8212     018C  300A               	movlw	10
  8213     018D  00F2               	movwf	___awmod@divisor
  8214     018E  3000               	movlw	0
  8215     018F  00F3               	movwf	___awmod@divisor+1
  8216     0190  1283               	bcf	3,5	;RP0=0, select bank0
  8217     0191  1303               	bcf	3,6	;RP1=0, select bank0
  8218     0192  0831               	movf	change_time@new_time+1,w
  8219     0193  00A2               	movwf	??_change_time
  8220     0194  01A3               	clrf	??_change_time+1
  8221     0195  0822               	movf	??_change_time,w
  8222     0196  00F4               	movwf	___awmod@dividend
  8223     0197  0823               	movf	??_change_time+1,w
  8224     0198  00F5               	movwf	___awmod@dividend+1
  8225     0199  160A  118A  2339  120A  118A  	fcall	___awmod
  8226     019E  0872               	movf	?___awmod,w
  8227     019F  1283               	bcf	3,5	;RP0=0, select bank0
  8228     01A0  1303               	bcf	3,6	;RP1=0, select bank0
  8229     01A1  00A4               	movwf	??_change_time+2
  8230     01A2  0873               	movf	?___awmod+1,w
  8231     01A3  00A5               	movwf	??_change_time+3
  8232     01A4  300A               	movlw	10
  8233     01A5  00F2               	movwf	___awdiv@divisor
  8234     01A6  3000               	movlw	0
  8235     01A7  00F3               	movwf	___awdiv@divisor+1
  8236     01A8  0831               	movf	change_time@new_time+1,w
  8237     01A9  00A6               	movwf	??_change_time+4
  8238     01AA  01A7               	clrf	??_change_time+5
  8239     01AB  0826               	movf	??_change_time+4,w
  8240     01AC  00F4               	movwf	___awdiv@dividend
  8241     01AD  0827               	movf	??_change_time+5,w
  8242     01AE  00F5               	movwf	___awdiv@dividend+1
  8243     01AF  160A  118A  2392  120A  118A  	fcall	___awdiv
  8244     01B4  0872               	movf	?___awdiv,w
  8245     01B5  1283               	bcf	3,5	;RP0=0, select bank0
  8246     01B6  1303               	bcf	3,6	;RP1=0, select bank0
  8247     01B7  00A8               	movwf	??_change_time+6
  8248     01B8  3003               	movlw	3
  8249     01B9                     u5475:
  8250     01B9  1003               	clrc
  8251     01BA  0DA8               	rlf	??_change_time+6,f
  8252     01BB  3EFF               	addlw	-1
  8253     01BC  1D03               	skipz
  8254     01BD  29B9               	goto	u5475
  8255     01BE  1003               	clrc
  8256     01BF  0D28               	rlf	??_change_time+6,w
  8257     01C0  0424               	iorwf	??_change_time+2,w
  8258     01C1  00AF               	movwf	change_time@dummy
  8259                           
  8260                           ;function.c: 369:                 write_ds1307(0x01, dummy);
  8261     01C2  082F               	movf	change_time@dummy,w
  8262     01C3  00F3               	movwf	write_ds1307@data
  8263     01C4  3001               	movlw	1
  8264     01C5  160A  118A  2000  120A  118A  	fcall	_write_ds1307
  8265     01CA                     l4771:
  8266                           
  8267                           ;function.c: 371:                 dummy = ((new_time[2] / 10) << 4) | (new_time[2] % 10)
      +                          ;
  8268     01CA  300A               	movlw	10
  8269     01CB  00F2               	movwf	___awmod@divisor
  8270     01CC  3000               	movlw	0
  8271     01CD  00F3               	movwf	___awmod@divisor+1
  8272     01CE  1283               	bcf	3,5	;RP0=0, select bank0
  8273     01CF  1303               	bcf	3,6	;RP1=0, select bank0
  8274     01D0  0832               	movf	change_time@new_time+2,w
  8275     01D1  00A2               	movwf	??_change_time
  8276     01D2  01A3               	clrf	??_change_time+1
  8277     01D3  0822               	movf	??_change_time,w
  8278     01D4  00F4               	movwf	___awmod@dividend
  8279     01D5  0823               	movf	??_change_time+1,w
  8280     01D6  00F5               	movwf	___awmod@dividend+1
  8281     01D7  160A  118A  2339  120A  118A  	fcall	___awmod
  8282     01DC  0872               	movf	?___awmod,w
  8283     01DD  1283               	bcf	3,5	;RP0=0, select bank0
  8284     01DE  1303               	bcf	3,6	;RP1=0, select bank0
  8285     01DF  00A4               	movwf	??_change_time+2
  8286     01E0  0873               	movf	?___awmod+1,w
  8287     01E1  00A5               	movwf	??_change_time+3
  8288     01E2  300A               	movlw	10
  8289     01E3  00F2               	movwf	___awdiv@divisor
  8290     01E4  3000               	movlw	0
  8291     01E5  00F3               	movwf	___awdiv@divisor+1
  8292     01E6  0832               	movf	change_time@new_time+2,w
  8293     01E7  00A6               	movwf	??_change_time+4
  8294     01E8  01A7               	clrf	??_change_time+5
  8295     01E9  0826               	movf	??_change_time+4,w
  8296     01EA  00F4               	movwf	___awdiv@dividend
  8297     01EB  0827               	movf	??_change_time+5,w
  8298     01EC  00F5               	movwf	___awdiv@dividend+1
  8299     01ED  160A  118A  2392  120A  118A  	fcall	___awdiv
  8300     01F2  0872               	movf	?___awdiv,w
  8301     01F3  1283               	bcf	3,5	;RP0=0, select bank0
  8302     01F4  1303               	bcf	3,6	;RP1=0, select bank0
  8303     01F5  00A8               	movwf	??_change_time+6
  8304     01F6  3003               	movlw	3
  8305     01F7                     u5485:
  8306     01F7  1003               	clrc
  8307     01F8  0DA8               	rlf	??_change_time+6,f
  8308     01F9  3EFF               	addlw	-1
  8309     01FA  1D03               	skipz
  8310     01FB  29F7               	goto	u5485
  8311     01FC  1003               	clrc
  8312     01FD  0D28               	rlf	??_change_time+6,w
  8313     01FE  0424               	iorwf	??_change_time+2,w
  8314     01FF  00AF               	movwf	change_time@dummy
  8315     0200                     l4773:
  8316                           
  8317                           ;function.c: 372:                 write_ds1307(0x00, dummy);
  8318     0200  082F               	movf	change_time@dummy,w
  8319     0201  00F3               	movwf	write_ds1307@data
  8320     0202  3000               	movlw	0
  8321     0203  160A  118A  2000  120A  118A  	fcall	_write_ds1307
  8322     0208                     l4775:
  8323                           
  8324                           ;function.c: 374:                 clcd_write(0x01, 0);
  8325     0208  01F2               	clrf	clcd_write@mode
  8326     0209  3001               	movlw	1
  8327     020A  160A  158A  27E0  120A  118A  	fcall	_clcd_write
  8328     020F                     l4777:
  8329                           
  8330                           ;function.c: 375:                 clcd_print("Time changed", (0x80 + 2));
  8331     020F  3043               	movlw	low (STR_44| (0+32768))
  8332     0210  00F6               	movwf	clcd_print@str
  8333     0211  3087               	movlw	high (STR_44| (0+32768))
  8334     0212  00F7               	movwf	clcd_print@str+1
  8335     0213  3082               	movlw	130
  8336     0214  00F8               	movwf	clcd_print@addr
  8337     0215  160A  118A  2187  120A  118A  	fcall	_clcd_print
  8338     021A                     l4779:
  8339                           
  8340                           ;function.c: 376:                 clcd_print("Successfully", (0xC0 + 2));
  8341     021A  3050               	movlw	low (STR_45| (0+32768))
  8342     021B  00F6               	movwf	clcd_print@str
  8343     021C  3087               	movlw	high (STR_45| (0+32768))
  8344     021D  00F7               	movwf	clcd_print@str+1
  8345     021E  30C2               	movlw	194
  8346     021F  00F8               	movwf	clcd_print@addr
  8347     0220  160A  118A  2187  120A  118A  	fcall	_clcd_print
  8348     0225                     l4781:
  8349                           
  8350                           ;function.c: 377:                 _delay((unsigned long)((1000)*(20000000/4000.0)));
  8351     0225  301A               	movlw	26
  8352     0226  1283               	bcf	3,5	;RP0=0, select bank0
  8353     0227  1303               	bcf	3,6	;RP1=0, select bank0
  8354     0228  00A4               	movwf	??_change_time+2
  8355     0229  305E               	movlw	94
  8356     022A  00A3               	movwf	??_change_time+1
  8357     022B  306D               	movlw	109
  8358     022C  00A2               	movwf	??_change_time
  8359     022D                     u6877:
  8360     022D  0BA2               	decfsz	??_change_time,f
  8361     022E  2A2D               	goto	u6877
  8362     022F  0BA3               	decfsz	??_change_time+1,f
  8363     0230  2A2D               	goto	u6877
  8364     0231  0BA4               	decfsz	??_change_time+2,f
  8365     0232  2A2D               	goto	u6877
  8366     0233  2A34               	nop2
  8367     0234                     l4783:
  8368                           
  8369                           ;function.c: 378:                 clcd_write(0x01, 0);
  8370     0234  01F2               	clrf	clcd_write@mode
  8371     0235  3001               	movlw	1
  8372     0236  160A  158A  27E0  120A  118A  	fcall	_clcd_write
  8373     023B                     l4785:
  8374                           
  8375                           ;function.c: 379:                 dash_mode = 1;
  8376     023B  1283               	bcf	3,5	;RP0=0, select bank0
  8377     023C  1303               	bcf	3,6	;RP1=0, select bank0
  8378     023D  01EC               	clrf	_dash_mode
  8379     023E  0AEC               	incf	_dash_mode,f
  8380     023F  2B46               	goto	l545
  8381     0240                     l4789:
  8382                           
  8383                           ;function.c: 383:             long_press_counter = 0;
  8384     0240  1283               	bcf	3,5	;RP0=0, select bank0
  8385     0241  1303               	bcf	3,6	;RP1=0, select bank0
  8386     0242  01AC               	clrf	change_time@long_press_counter
  8387     0243                     l4791:
  8388                           
  8389                           ;function.c: 387:         if (wait++ == 15) {
  8390     0243  3001               	movlw	1
  8391     0244  07A9               	addwf	change_time@wait,f
  8392     0245  1803               	skipnc
  8393     0246  0AAA               	incf	change_time@wait+1,f
  8394     0247  3000               	movlw	0
  8395     0248  07AA               	addwf	change_time@wait+1,f
  8396     0249  3010               	movlw	16
  8397     024A  0629               	xorwf	change_time@wait,w
  8398     024B  042A               	iorwf	change_time@wait+1,w
  8399     024C  1D03               	btfss	3,2
  8400     024D  2A4F               	goto	u5491
  8401     024E  2A50               	goto	u5490
  8402     024F                     u5491:
  8403     024F  2868               	goto	l4721
  8404     0250                     u5490:
  8405     0250                     l4793:
  8406                           
  8407                           ;function.c: 388:             wait = 0;
  8408     0250  01A9               	clrf	change_time@wait
  8409     0251  01AA               	clrf	change_time@wait+1
  8410     0252                     l4795:
  8411                           
  8412                           ;function.c: 389:             blink = !blink;
  8413     0252  082E               	movf	change_time@blink,w
  8414     0253  1903               	btfsc	3,2
  8415     0254  2A56               	goto	u5501
  8416     0255  2A58               	goto	u5500
  8417     0256                     u5501:
  8418     0256  3001               	movlw	1
  8419     0257  2A59               	goto	u5510
  8420     0258                     u5500:
  8421     0258  3000               	movlw	0
  8422     0259                     u5510:
  8423     0259  00AE               	movwf	change_time@blink
  8424     025A                     l4797:
  8425                           
  8426                           ;function.c: 392:             clcd_putch((new_time[0] / 10) + '0', (0xC0 + 0));
  8427     025A  30C0               	movlw	192
  8428     025B  00A0               	movwf	clcd_putch@addr
  8429     025C  300A               	movlw	10
  8430     025D  00F2               	movwf	___awdiv@divisor
  8431     025E  3000               	movlw	0
  8432     025F  00F3               	movwf	___awdiv@divisor+1
  8433     0260  0830               	movf	change_time@new_time,w
  8434     0261  00A2               	movwf	??_change_time
  8435     0262  01A3               	clrf	??_change_time+1
  8436     0263  0822               	movf	??_change_time,w
  8437     0264  00F4               	movwf	___awdiv@dividend
  8438     0265  0823               	movf	??_change_time+1,w
  8439     0266  00F5               	movwf	___awdiv@dividend+1
  8440     0267  160A  118A  2392  120A  118A  	fcall	___awdiv
  8441     026C  0872               	movf	?___awdiv,w
  8442     026D  3E30               	addlw	48
  8443     026E  160A  158A  2763  120A  118A  	fcall	_clcd_putch
  8444     0273                     l4799:
  8445                           
  8446                           ;function.c: 393:             clcd_putch((new_time[0] % 10) + '0', (0xC0 + 1));
  8447     0273  30C1               	movlw	193
  8448     0274  1283               	bcf	3,5	;RP0=0, select bank0
  8449     0275  1303               	bcf	3,6	;RP1=0, select bank0
  8450     0276  00A0               	movwf	clcd_putch@addr
  8451     0277  300A               	movlw	10
  8452     0278  00F2               	movwf	___awmod@divisor
  8453     0279  3000               	movlw	0
  8454     027A  00F3               	movwf	___awmod@divisor+1
  8455     027B  0830               	movf	change_time@new_time,w
  8456     027C  00A2               	movwf	??_change_time
  8457     027D  01A3               	clrf	??_change_time+1
  8458     027E  0822               	movf	??_change_time,w
  8459     027F  00F4               	movwf	___awmod@dividend
  8460     0280  0823               	movf	??_change_time+1,w
  8461     0281  00F5               	movwf	___awmod@dividend+1
  8462     0282  160A  118A  2339  120A  118A  	fcall	___awmod
  8463     0287  0872               	movf	?___awmod,w
  8464     0288  3E30               	addlw	48
  8465     0289  160A  158A  2763  120A  118A  	fcall	_clcd_putch
  8466     028E                     l4801:
  8467                           
  8468                           ;function.c: 394:             clcd_putch(':', (0xC0 + 2));
  8469     028E  30C2               	movlw	194
  8470     028F  1283               	bcf	3,5	;RP0=0, select bank0
  8471     0290  1303               	bcf	3,6	;RP1=0, select bank0
  8472     0291  00A0               	movwf	clcd_putch@addr
  8473     0292  303A               	movlw	58
  8474     0293  160A  158A  2763  120A  118A  	fcall	_clcd_putch
  8475     0298                     l4803:
  8476                           
  8477                           ;function.c: 395:             clcd_putch((new_time[1] / 10) + '0', (0xC0 + 3));
  8478     0298  30C3               	movlw	195
  8479     0299  1283               	bcf	3,5	;RP0=0, select bank0
  8480     029A  1303               	bcf	3,6	;RP1=0, select bank0
  8481     029B  00A0               	movwf	clcd_putch@addr
  8482     029C  300A               	movlw	10
  8483     029D  00F2               	movwf	___awdiv@divisor
  8484     029E  3000               	movlw	0
  8485     029F  00F3               	movwf	___awdiv@divisor+1
  8486     02A0  0831               	movf	change_time@new_time+1,w
  8487     02A1  00A2               	movwf	??_change_time
  8488     02A2  01A3               	clrf	??_change_time+1
  8489     02A3  0822               	movf	??_change_time,w
  8490     02A4  00F4               	movwf	___awdiv@dividend
  8491     02A5  0823               	movf	??_change_time+1,w
  8492     02A6  00F5               	movwf	___awdiv@dividend+1
  8493     02A7  160A  118A  2392  120A  118A  	fcall	___awdiv
  8494     02AC  0872               	movf	?___awdiv,w
  8495     02AD  3E30               	addlw	48
  8496     02AE  160A  158A  2763  120A  118A  	fcall	_clcd_putch
  8497     02B3                     l4805:
  8498                           
  8499                           ;function.c: 396:             clcd_putch((new_time[1] % 10) + '0', (0xC0 + 4));
  8500     02B3  30C4               	movlw	196
  8501     02B4  1283               	bcf	3,5	;RP0=0, select bank0
  8502     02B5  1303               	bcf	3,6	;RP1=0, select bank0
  8503     02B6  00A0               	movwf	clcd_putch@addr
  8504     02B7  300A               	movlw	10
  8505     02B8  00F2               	movwf	___awmod@divisor
  8506     02B9  3000               	movlw	0
  8507     02BA  00F3               	movwf	___awmod@divisor+1
  8508     02BB  0831               	movf	change_time@new_time+1,w
  8509     02BC  00A2               	movwf	??_change_time
  8510     02BD  01A3               	clrf	??_change_time+1
  8511     02BE  0822               	movf	??_change_time,w
  8512     02BF  00F4               	movwf	___awmod@dividend
  8513     02C0  0823               	movf	??_change_time+1,w
  8514     02C1  00F5               	movwf	___awmod@dividend+1
  8515     02C2  160A  118A  2339  120A  118A  	fcall	___awmod
  8516     02C7  0872               	movf	?___awmod,w
  8517     02C8  3E30               	addlw	48
  8518     02C9  160A  158A  2763  120A  118A  	fcall	_clcd_putch
  8519     02CE                     l4807:
  8520                           
  8521                           ;function.c: 397:             clcd_putch(':', (0xC0 + 5));
  8522     02CE  30C5               	movlw	197
  8523     02CF  1283               	bcf	3,5	;RP0=0, select bank0
  8524     02D0  1303               	bcf	3,6	;RP1=0, select bank0
  8525     02D1  00A0               	movwf	clcd_putch@addr
  8526     02D2  303A               	movlw	58
  8527     02D3  160A  158A  2763  120A  118A  	fcall	_clcd_putch
  8528     02D8                     l4809:
  8529                           
  8530                           ;function.c: 398:             clcd_putch((new_time[2] / 10) + '0', (0xC0 + 6));
  8531     02D8  30C6               	movlw	198
  8532     02D9  1283               	bcf	3,5	;RP0=0, select bank0
  8533     02DA  1303               	bcf	3,6	;RP1=0, select bank0
  8534     02DB  00A0               	movwf	clcd_putch@addr
  8535     02DC  300A               	movlw	10
  8536     02DD  00F2               	movwf	___awdiv@divisor
  8537     02DE  3000               	movlw	0
  8538     02DF  00F3               	movwf	___awdiv@divisor+1
  8539     02E0  0832               	movf	change_time@new_time+2,w
  8540     02E1  00A2               	movwf	??_change_time
  8541     02E2  01A3               	clrf	??_change_time+1
  8542     02E3  0822               	movf	??_change_time,w
  8543     02E4  00F4               	movwf	___awdiv@dividend
  8544     02E5  0823               	movf	??_change_time+1,w
  8545     02E6  00F5               	movwf	___awdiv@dividend+1
  8546     02E7  160A  118A  2392  120A  118A  	fcall	___awdiv
  8547     02EC  0872               	movf	?___awdiv,w
  8548     02ED  3E30               	addlw	48
  8549     02EE  160A  158A  2763  120A  118A  	fcall	_clcd_putch
  8550     02F3                     l4811:
  8551                           
  8552                           ;function.c: 399:             clcd_putch((new_time[2] % 10) + '0', (0xC0 + 7));
  8553     02F3  30C7               	movlw	199
  8554     02F4  1283               	bcf	3,5	;RP0=0, select bank0
  8555     02F5  1303               	bcf	3,6	;RP1=0, select bank0
  8556     02F6  00A0               	movwf	clcd_putch@addr
  8557     02F7  300A               	movlw	10
  8558     02F8  00F2               	movwf	___awmod@divisor
  8559     02F9  3000               	movlw	0
  8560     02FA  00F3               	movwf	___awmod@divisor+1
  8561     02FB  0832               	movf	change_time@new_time+2,w
  8562     02FC  00A2               	movwf	??_change_time
  8563     02FD  01A3               	clrf	??_change_time+1
  8564     02FE  0822               	movf	??_change_time,w
  8565     02FF  00F4               	movwf	___awmod@dividend
  8566     0300  0823               	movf	??_change_time+1,w
  8567     0301  00F5               	movwf	___awmod@dividend+1
  8568     0302  160A  118A  2339  120A  118A  	fcall	___awmod
  8569     0307  0872               	movf	?___awmod,w
  8570     0308  3E30               	addlw	48
  8571     0309  160A  158A  2763  120A  118A  	fcall	_clcd_putch
  8572     030E                     l4813:
  8573                           
  8574                           ;function.c: 401:             if (blink) {
  8575     030E  1283               	bcf	3,5	;RP0=0, select bank0
  8576     030F  1303               	bcf	3,6	;RP1=0, select bank0
  8577     0310  082E               	movf	change_time@blink,w
  8578     0311  1903               	btfsc	3,2
  8579     0312  2B14               	goto	u5521
  8580     0313  2B15               	goto	u5520
  8581     0314                     u5521:
  8582     0314  2868               	goto	l4721
  8583     0315                     u5520:
  8584     0315  2B3A               	goto	l4825
  8585     0316                     l4817:
  8586                           
  8587                           ;function.c: 404:                         clcd_print("  ", (0xC0 + 0));
  8588     0316  3047               	movlw	low ((STR_31+14)| (0+32768))
  8589     0317  00F6               	movwf	clcd_print@str
  8590     0318  3086               	movlw	high ((STR_31+14)| (0+32768))
  8591     0319  00F7               	movwf	clcd_print@str+1
  8592     031A  30C0               	movlw	192
  8593     031B  00F8               	movwf	clcd_print@addr
  8594     031C  160A  118A  2187  120A  118A  	fcall	_clcd_print
  8595                           
  8596                           ;function.c: 405:                         break;
  8597     0321  2868               	goto	l4721
  8598     0322                     l4819:
  8599                           
  8600                           ;function.c: 407:                         clcd_print("  ", (0xC0 + 3));
  8601     0322  3047               	movlw	low ((STR_31+14)| (0+32768))
  8602     0323  00F6               	movwf	clcd_print@str
  8603     0324  3086               	movlw	high ((STR_31+14)| (0+32768))
  8604     0325  00F7               	movwf	clcd_print@str+1
  8605     0326  30C3               	movlw	195
  8606     0327  00F8               	movwf	clcd_print@addr
  8607     0328  160A  118A  2187  120A  118A  	fcall	_clcd_print
  8608                           
  8609                           ;function.c: 408:                         break;
  8610     032D  2868               	goto	l4721
  8611     032E                     l4821:
  8612                           
  8613                           ;function.c: 410:                         clcd_print("  ", (0xC0 + 6));
  8614     032E  3047               	movlw	low ((STR_31+14)| (0+32768))
  8615     032F  00F6               	movwf	clcd_print@str
  8616     0330  3086               	movlw	high ((STR_31+14)| (0+32768))
  8617     0331  00F7               	movwf	clcd_print@str+1
  8618     0332  30C6               	movlw	198
  8619     0333  00F8               	movwf	clcd_print@addr
  8620     0334  160A  118A  2187  120A  118A  	fcall	_clcd_print
  8621                           
  8622                           ;function.c: 411:                         break;
  8623     0339  2868               	goto	l4721
  8624     033A                     l4825:
  8625     033A  0833               	movf	change_time@blink_pos,w
  8626                           
  8627                           ; Switch size 1, requested type "simple"
  8628                           ; Number of cases is 3, Range of values is 0 to 2
  8629                           ; switch strategies available:
  8630                           ; Name         Instructions Cycles
  8631                           ; simple_byte           10     6 (average)
  8632                           ; direct_byte           17     8 (fixed)
  8633                           ; jumptable            260     6 (fixed)
  8634                           ;	Chosen strategy is simple_byte
  8635     033B  3A00               	xorlw	0	; case 0
  8636     033C  1903               	skipnz
  8637     033D  2B16               	goto	l4817
  8638     033E  3A01               	xorlw	1	; case 1
  8639     033F  1903               	skipnz
  8640     0340  2B22               	goto	l4819
  8641     0341  3A03               	xorlw	3	; case 2
  8642     0342  1903               	skipnz
  8643     0343  2B2E               	goto	l4821
  8644     0344  2B45               	goto	l547
  8645     0345                     l547:	
  8646                           ;function.c: 414:         }
  8647                           
  8648     0345  2868               	goto	l4721
  8649     0346                     l545:
  8650     0346  0008               	return
  8651     0347                     __end_of_change_time:
  8652                           
  8653                           	psect	text27
  8654     1000                     __ptext27:	
  8655 ;; *************** function _write_ds1307 *****************
  8656 ;; Defined at:
  8657 ;;		line 31 in file "ds1307.c"
  8658 ;; Parameters:    Size  Location     Type
  8659 ;;  addr            1    wreg     unsigned char 
  8660 ;;  data            1    3[COMMON] unsigned char 
  8661 ;; Auto vars:     Size  Location     Type
  8662 ;;  addr            1    4[COMMON] unsigned char 
  8663 ;; Return value:  Size  Location     Type
  8664 ;;                  1    wreg      void 
  8665 ;; Registers used:
  8666 ;;		wreg, status,2, status,0, pclath, cstack
  8667 ;; Tracked objects:
  8668 ;;		On entry : 0/0
  8669 ;;		On exit  : 0/0
  8670 ;;		Unchanged: 0/0
  8671 ;; Data sizes:     COMMON   BANK0   BANK1   BANK3   BANK2
  8672 ;;      Params:         1       0       0       0       0
  8673 ;;      Locals:         1       0       0       0       0
  8674 ;;      Temps:          0       0       0       0       0
  8675 ;;      Totals:         2       0       0       0       0
  8676 ;;Total ram usage:        2 bytes
  8677 ;; Hardware stack levels used: 1
  8678 ;; Hardware stack levels required when called: 3
  8679 ;; This function calls:
  8680 ;;		_i2c_start
  8681 ;;		_i2c_stop
  8682 ;;		_i2c_write
  8683 ;; This function is called by:
  8684 ;;		_init_ds1307
  8685 ;;		_change_time
  8686 ;; This function uses a non-reentrant model
  8687 ;;
  8688                           
  8689     1000                     _write_ds1307:	
  8690                           ;psect for function _write_ds1307
  8691                           
  8692                           
  8693                           ;incstack = 0
  8694                           ; Regs used in _write_ds1307: [wreg+status,2+status,0+pclath+cstack]
  8695                           ;write_ds1307@addr stored from wreg
  8696     1000  00F4               	movwf	write_ds1307@addr
  8697     1001                     l4197:
  8698                           
  8699                           ;ds1307.c: 31: void write_ds1307(unsigned char addr, unsigned char data);ds1307.c: 32: {
      +                          ;ds1307.c: 33:     i2c_start();
  8700     1001  160A  158A  26E4  160A  118A  	fcall	_i2c_start
  8701                           
  8702                           ;ds1307.c: 34:     i2c_write(0b11010000);
  8703     1006  30D0               	movlw	208
  8704     1007  160A  158A  26FF  160A  118A  	fcall	_i2c_write
  8705                           
  8706                           ;ds1307.c: 35:     i2c_write(addr);
  8707     100C  0874               	movf	write_ds1307@addr,w
  8708     100D  160A  158A  26FF  160A  118A  	fcall	_i2c_write
  8709                           
  8710                           ;ds1307.c: 36:     i2c_write(data);
  8711     1012  0873               	movf	write_ds1307@data,w
  8712     1013  160A  158A  26FF  160A  118A  	fcall	_i2c_write
  8713                           
  8714                           ;ds1307.c: 37:     i2c_stop();
  8715     1018  160A  158A  26ED  160A  118A  	fcall	_i2c_stop
  8716     101D                     l59:
  8717     101D  0008               	return
  8718     101E                     __end_of_write_ds1307:
  8719                           
  8720                           	psect	text28
  8721     103F                     __ptext28:	
  8722 ;; *************** function _get_time *****************
  8723 ;; Defined at:
  8724 ;;		line 66 in file "ds1307.c"
  8725 ;; Parameters:    Size  Location     Type
  8726 ;;  clock_reg       1    wreg     PTR unsigned char 
  8727 ;;		 -> clock_reg(3), 
  8728 ;; Auto vars:     Size  Location     Type
  8729 ;;  clock_reg       1    6[COMMON] PTR unsigned char 
  8730 ;;		 -> clock_reg(3), 
  8731 ;; Return value:  Size  Location     Type
  8732 ;;                  1    wreg      void 
  8733 ;; Registers used:
  8734 ;;		wreg, fsr0l, fsr0h, status,2, status,0, pclath, cstack
  8735 ;; Tracked objects:
  8736 ;;		On entry : 0/0
  8737 ;;		On exit  : 0/0
  8738 ;;		Unchanged: 0/0
  8739 ;; Data sizes:     COMMON   BANK0   BANK1   BANK3   BANK2
  8740 ;;      Params:         0       0       0       0       0
  8741 ;;      Locals:         1       0       0       0       0
  8742 ;;      Temps:          0       0       0       0       0
  8743 ;;      Totals:         1       0       0       0       0
  8744 ;;Total ram usage:        1 bytes
  8745 ;; Hardware stack levels used: 1
  8746 ;; Hardware stack levels required when called: 5
  8747 ;; This function calls:
  8748 ;;		_read_ds1307
  8749 ;; This function is called by:
  8750 ;;		_update_dashboard_display
  8751 ;;		_change_time
  8752 ;; This function uses a non-reentrant model
  8753 ;;
  8754                           
  8755     103F                     _get_time:	
  8756                           ;psect for function _get_time
  8757                           
  8758                           
  8759                           ;incstack = 0
  8760                           ; Regs used in _get_time: [wreg-fsr0h+status,2+status,0+pclath+cstack]
  8761                           ;get_time@clock_reg stored from wreg
  8762     103F  00F6               	movwf	get_time@clock_reg
  8763     1040                     l4199:
  8764                           
  8765                           ;ds1307.c: 66: void get_time(unsigned char *clock_reg);ds1307.c: 67: {;ds1307.c: 68:    
      +                           clock_reg[0] = read_ds1307(0x02);
  8766     1040  0876               	movf	get_time@clock_reg,w
  8767     1041  0084               	movwf	4
  8768     1042  3002               	movlw	2
  8769     1043  160A  118A  20D8  160A  118A  	fcall	_read_ds1307
  8770     1048  1383               	bcf	3,7	;select IRP bank0
  8771     1049  0080               	movwf	0
  8772                           
  8773                           ;ds1307.c: 69:     clock_reg[1] = read_ds1307(0x01);
  8774     104A  0A76               	incf	get_time@clock_reg,w
  8775     104B  0084               	movwf	4
  8776     104C  3001               	movlw	1
  8777     104D  160A  118A  20D8  160A  118A  	fcall	_read_ds1307
  8778     1052  1383               	bcf	3,7	;select IRP bank0
  8779     1053  0080               	movwf	0
  8780                           
  8781                           ;ds1307.c: 70:     clock_reg[2] = read_ds1307(0x00);
  8782     1054  0876               	movf	get_time@clock_reg,w
  8783     1055  3E02               	addlw	2
  8784     1056  0084               	movwf	4
  8785     1057  3000               	movlw	0
  8786     1058  160A  118A  20D8  160A  118A  	fcall	_read_ds1307
  8787     105D  1383               	bcf	3,7	;select IRP bank0
  8788     105E  0080               	movwf	0
  8789     105F                     l65:
  8790     105F  0008               	return
  8791     1060                     __end_of_get_time:
  8792                           
  8793                           	psect	text29
  8794     10D8                     __ptext29:	
  8795 ;; *************** function _read_ds1307 *****************
  8796 ;; Defined at:
  8797 ;;		line 16 in file "ds1307.c"
  8798 ;; Parameters:    Size  Location     Type
  8799 ;;  addr            1    wreg     unsigned char 
  8800 ;; Auto vars:     Size  Location     Type
  8801 ;;  addr            1    4[COMMON] unsigned char 
  8802 ;;  data            1    5[COMMON] unsigned char 
  8803 ;; Return value:  Size  Location     Type
  8804 ;;                  1    wreg      unsigned char 
  8805 ;; Registers used:
  8806 ;;		wreg, status,2, status,0, pclath, cstack
  8807 ;; Tracked objects:
  8808 ;;		On entry : 0/0
  8809 ;;		On exit  : 0/0
  8810 ;;		Unchanged: 0/0
  8811 ;; Data sizes:     COMMON   BANK0   BANK1   BANK3   BANK2
  8812 ;;      Params:         0       0       0       0       0
  8813 ;;      Locals:         2       0       0       0       0
  8814 ;;      Temps:          0       0       0       0       0
  8815 ;;      Totals:         2       0       0       0       0
  8816 ;;Total ram usage:        2 bytes
  8817 ;; Hardware stack levels used: 1
  8818 ;; Hardware stack levels required when called: 4
  8819 ;; This function calls:
  8820 ;;		_i2c_read
  8821 ;;		_i2c_rep_start
  8822 ;;		_i2c_start
  8823 ;;		_i2c_stop
  8824 ;;		_i2c_write
  8825 ;; This function is called by:
  8826 ;;		_init_ds1307
  8827 ;;		_get_time
  8828 ;; This function uses a non-reentrant model
  8829 ;;
  8830                           
  8831     10D8                     _read_ds1307:	
  8832                           ;psect for function _read_ds1307
  8833                           
  8834                           
  8835                           ;incstack = 0
  8836                           ; Regs used in _read_ds1307: [wreg+status,2+status,0+pclath+cstack]
  8837                           ;read_ds1307@addr stored from wreg
  8838     10D8  00F4               	movwf	read_ds1307@addr
  8839     10D9                     l4123:
  8840                           
  8841                           ;ds1307.c: 16: unsigned char read_ds1307(unsigned char addr);ds1307.c: 17: {;ds1307.c: 1
      +                          8:     unsigned char data;;ds1307.c: 20:     i2c_start();
  8842     10D9  160A  158A  26E4  160A  118A  	fcall	_i2c_start
  8843                           
  8844                           ;ds1307.c: 21:     i2c_write(0b11010000);
  8845     10DE  30D0               	movlw	208
  8846     10DF  160A  158A  26FF  160A  118A  	fcall	_i2c_write
  8847                           
  8848                           ;ds1307.c: 22:     i2c_write(addr);
  8849     10E4  0874               	movf	read_ds1307@addr,w
  8850     10E5  160A  158A  26FF  160A  118A  	fcall	_i2c_write
  8851                           
  8852                           ;ds1307.c: 23:     i2c_rep_start();
  8853     10EA  160A  158A  270A  160A  118A  	fcall	_i2c_rep_start
  8854                           
  8855                           ;ds1307.c: 24:     i2c_write(0b11010001);
  8856     10EF  30D1               	movlw	209
  8857     10F0  160A  158A  26FF  160A  118A  	fcall	_i2c_write
  8858                           
  8859                           ;ds1307.c: 25:     data = i2c_read(0);
  8860     10F5  3000               	movlw	0
  8861     10F6  160A  118A  201E  160A  118A  	fcall	_i2c_read
  8862     10FB  00F5               	movwf	read_ds1307@data
  8863                           
  8864                           ;ds1307.c: 26:     i2c_stop();
  8865     10FC  160A  158A  26ED  160A  118A  	fcall	_i2c_stop
  8866     1101                     l4125:
  8867                           
  8868                           ;ds1307.c: 28:     return data;
  8869     1101  0875               	movf	read_ds1307@data,w
  8870     1102                     l56:
  8871     1102  0008               	return
  8872     1103                     __end_of_read_ds1307:
  8873                           
  8874                           	psect	text30
  8875     1F0A                     __ptext30:	
  8876 ;; *************** function _i2c_rep_start *****************
  8877 ;; Defined at:
  8878 ;;		line 21 in file "i2c.c"
  8879 ;; Parameters:    Size  Location     Type
  8880 ;;		None
  8881 ;; Auto vars:     Size  Location     Type
  8882 ;;		None
  8883 ;; Return value:  Size  Location     Type
  8884 ;;                  1    wreg      void 
  8885 ;; Registers used:
  8886 ;;		wreg, status,2, status,0, pclath, cstack
  8887 ;; Tracked objects:
  8888 ;;		On entry : 0/0
  8889 ;;		On exit  : 0/0
  8890 ;;		Unchanged: 0/0
  8891 ;; Data sizes:     COMMON   BANK0   BANK1   BANK3   BANK2
  8892 ;;      Params:         0       0       0       0       0
  8893 ;;      Locals:         0       0       0       0       0
  8894 ;;      Temps:          0       0       0       0       0
  8895 ;;      Totals:         0       0       0       0       0
  8896 ;;Total ram usage:        0 bytes
  8897 ;; Hardware stack levels used: 1
  8898 ;; Hardware stack levels required when called: 3
  8899 ;; This function calls:
  8900 ;;		_i2c_start
  8901 ;;		_i2c_stop
  8902 ;; This function is called by:
  8903 ;;		_read_ds1307
  8904 ;;		_read_ext_eeprom
  8905 ;; This function uses a non-reentrant model
  8906 ;;
  8907                           
  8908     1F0A                     _i2c_rep_start:	
  8909                           ;psect for function _i2c_rep_start
  8910                           
  8911     1F0A                     l4099:	
  8912                           ;incstack = 0
  8913                           ; Regs used in _i2c_rep_start: [wreg+status,2+status,0+pclath+cstack]
  8914                           
  8915                           
  8916                           ;i2c.c: 23:     i2c_stop();
  8917     1F0A  160A  158A  26ED  160A  158A  	fcall	_i2c_stop
  8918                           
  8919                           ;i2c.c: 24:     i2c_start();
  8920     1F0F  160A  158A  26E4  160A  158A  	fcall	_i2c_start
  8921     1F14                     l106:
  8922     1F14  0008               	return
  8923     1F15                     __end_of_i2c_rep_start:
  8924                           
  8925                           	psect	text31
  8926     101E                     __ptext31:	
  8927 ;; *************** function _i2c_read *****************
  8928 ;; Defined at:
  8929 ;;		line 32 in file "i2c.c"
  8930 ;; Parameters:    Size  Location     Type
  8931 ;;  ack             1    wreg     unsigned char 
  8932 ;; Auto vars:     Size  Location     Type
  8933 ;;  ack             1    2[COMMON] unsigned char 
  8934 ;;  data            1    3[COMMON] unsigned char 
  8935 ;; Return value:  Size  Location     Type
  8936 ;;                  1    wreg      unsigned char 
  8937 ;; Registers used:
  8938 ;;		wreg, status,2, status,0, pclath, cstack
  8939 ;; Tracked objects:
  8940 ;;		On entry : 0/0
  8941 ;;		On exit  : 0/0
  8942 ;;		Unchanged: 0/0
  8943 ;; Data sizes:     COMMON   BANK0   BANK1   BANK3   BANK2
  8944 ;;      Params:         0       0       0       0       0
  8945 ;;      Locals:         2       0       0       0       0
  8946 ;;      Temps:          0       0       0       0       0
  8947 ;;      Totals:         2       0       0       0       0
  8948 ;;Total ram usage:        2 bytes
  8949 ;; Hardware stack levels used: 1
  8950 ;; Hardware stack levels required when called: 2
  8951 ;; This function calls:
  8952 ;;		_i2c_wait_for_idle
  8953 ;; This function is called by:
  8954 ;;		_read_ds1307
  8955 ;;		_read_ext_eeprom
  8956 ;; This function uses a non-reentrant model
  8957 ;;
  8958                           
  8959     101E                     _i2c_read:	
  8960                           ;psect for function _i2c_read
  8961                           
  8962                           
  8963                           ;incstack = 0
  8964                           ; Regs used in _i2c_read: [wreg+status,2+status,0+pclath+cstack]
  8965                           ;i2c_read@ack stored from wreg
  8966     101E  00F2               	movwf	i2c_read@ack
  8967     101F                     l4101:
  8968                           
  8969                           ;i2c.c: 32: unsigned char i2c_read(unsigned char ack);i2c.c: 33: {;i2c.c: 34:     unsign
      +                          ed char data;;i2c.c: 35:     i2c_wait_for_idle();
  8970     101F  160A  158A  2720  160A  118A  	fcall	_i2c_wait_for_idle
  8971     1024                     l4103:
  8972                           
  8973                           ;i2c.c: 36:     RCEN = 1;
  8974     1024  1683               	bsf	3,5	;RP0=1, select bank1
  8975     1025  1303               	bcf	3,6	;RP1=0, select bank1
  8976     1026  1591               	bsf	17,3	;volatile
  8977                           
  8978                           ;i2c.c: 38:     i2c_wait_for_idle();
  8979     1027  160A  158A  2720  160A  118A  	fcall	_i2c_wait_for_idle
  8980     102C                     l4105:
  8981                           
  8982                           ;i2c.c: 39:     data = SSPBUF;
  8983     102C  1283               	bcf	3,5	;RP0=0, select bank0
  8984     102D  1303               	bcf	3,6	;RP1=0, select bank0
  8985     102E  0813               	movf	19,w	;volatile
  8986     102F  00F3               	movwf	i2c_read@data
  8987     1030                     l4107:
  8988                           
  8989                           ;i2c.c: 41:     if(ack == 1)
  8990     1030  0372               	decf	i2c_read@ack,w
  8991     1031  1D03               	btfss	3,2
  8992     1032  2834               	goto	u4541
  8993     1033  2835               	goto	u4540
  8994     1034                     u4541:
  8995     1034  2839               	goto	l112
  8996     1035                     u4540:
  8997     1035                     l4109:
  8998                           
  8999                           ;i2c.c: 42:     {;i2c.c: 43:         ACKDT = 1;
  9000     1035  1683               	bsf	3,5	;RP0=1, select bank1
  9001     1036  1303               	bcf	3,6	;RP1=0, select bank1
  9002     1037  1691               	bsf	17,5	;volatile
  9003                           
  9004                           ;i2c.c: 45:     }
  9005     1038  283C               	goto	l113
  9006     1039                     l112:	
  9007                           ;i2c.c: 46:     else {
  9008                           
  9009                           
  9010                           ;i2c.c: 47:         ACKDT = 0;
  9011     1039  1683               	bsf	3,5	;RP0=1, select bank1
  9012     103A  1303               	bcf	3,6	;RP1=0, select bank1
  9013     103B  1291               	bcf	17,5	;volatile
  9014     103C                     l113:	
  9015                           ;i2c.c: 48:     }
  9016                           
  9017                           
  9018                           ;i2c.c: 49:     ACKEN = 1;
  9019     103C  1611               	bsf	17,4	;volatile
  9020     103D                     l4111:
  9021                           
  9022                           ;i2c.c: 50:     return data;
  9023     103D  0873               	movf	i2c_read@data,w
  9024     103E                     l114:
  9025     103E  0008               	return
  9026     103F                     __end_of_i2c_read:
  9027                           
  9028                           	psect	text32
  9029     1F78                     __ptext32:	
  9030 ;; *************** function ___bmul *****************
  9031 ;; Defined at:
  9032 ;;		line 4 in file "C:\Program Files\Microchip\xc8\v2.46\pic\sources\c99\common\Umul8.c"
  9033 ;; Parameters:    Size  Location     Type
  9034 ;;  multiplier      1    wreg     unsigned char 
  9035 ;;  multiplicand    1    2[COMMON] unsigned char 
  9036 ;; Auto vars:     Size  Location     Type
  9037 ;;  multiplier      1    4[COMMON] unsigned char 
  9038 ;;  product         1    3[COMMON] unsigned char 
  9039 ;; Return value:  Size  Location     Type
  9040 ;;                  1    wreg      unsigned char 
  9041 ;; Registers used:
  9042 ;;		wreg, status,2, status,0, btemp+1
  9043 ;; Tracked objects:
  9044 ;;		On entry : 0/0
  9045 ;;		On exit  : 0/0
  9046 ;;		Unchanged: 0/0
  9047 ;; Data sizes:     COMMON   BANK0   BANK1   BANK3   BANK2
  9048 ;;      Params:         1       0       0       0       0
  9049 ;;      Locals:         2       0       0       0       0
  9050 ;;      Temps:          0       0       0       0       0
  9051 ;;      Totals:         3       0       0       0       0
  9052 ;;Total ram usage:        3 bytes
  9053 ;; Hardware stack levels used: 1
  9054 ;; Hardware stack levels required when called: 1
  9055 ;; This function calls:
  9056 ;;		Nothing
  9057 ;; This function is called by:
  9058 ;;		_store_eeprom
  9059 ;;		_display_logs
  9060 ;;		_change_time
  9061 ;; This function uses a non-reentrant model
  9062 ;;
  9063                           
  9064     1F78                     ___bmul:	
  9065                           ;psect for function ___bmul
  9066                           
  9067                           
  9068                           ;incstack = 0
  9069                           ; Regs used in ___bmul: [wreg+status,2+status,0+btemp+1]
  9070                           ;___bmul@multiplier stored from wreg
  9071     1F78  00F4               	movwf	___bmul@multiplier
  9072     1F79                     l4171:
  9073     1F79  01F3               	clrf	___bmul@product
  9074     1F7A                     l4173:
  9075     1F7A  1C74               	btfss	___bmul@multiplier,0
  9076     1F7B  2F7D               	goto	u4621
  9077     1F7C  2F7E               	goto	u4620
  9078     1F7D                     u4621:
  9079     1F7D  2F82               	goto	l4177
  9080     1F7E                     u4620:
  9081     1F7E                     l4175:
  9082     1F7E  0872               	movf	___bmul@multiplicand,w
  9083     1F7F  00FF               	movwf	btemp+1
  9084     1F80  087F               	movf	btemp+1,w
  9085     1F81  07F3               	addwf	___bmul@product,f
  9086     1F82                     l4177:
  9087     1F82  1003               	clrc
  9088     1F83  0DF2               	rlf	___bmul@multiplicand,f
  9089     1F84                     l4179:
  9090     1F84  1003               	clrc
  9091     1F85  0CF4               	rrf	___bmul@multiplier,f
  9092     1F86                     l4181:
  9093     1F86  0874               	movf	___bmul@multiplier,w
  9094     1F87  1D03               	btfss	3,2
  9095     1F88  2F8A               	goto	u4631
  9096     1F89  2F8B               	goto	u4630
  9097     1F8A                     u4631:
  9098     1F8A  2F7A               	goto	l4173
  9099     1F8B                     u4630:
  9100     1F8B                     l4183:
  9101     1F8B  0873               	movf	___bmul@product,w
  9102     1F8C                     l703:
  9103     1F8C  0008               	return
  9104     1F8D                     __end_of___bmul:
  9105                           
  9106                           	psect	text33
  9107     1339                     __ptext33:	
  9108 ;; *************** function ___awmod *****************
  9109 ;; Defined at:
  9110 ;;		line 5 in file "C:\Program Files\Microchip\xc8\v2.46\pic\sources\c99\common\awmod.c"
  9111 ;; Parameters:    Size  Location     Type
  9112 ;;  divisor         2    2[COMMON] int 
  9113 ;;  dividend        2    4[COMMON] int 
  9114 ;; Auto vars:     Size  Location     Type
  9115 ;;  sign            1    7[COMMON] unsigned char 
  9116 ;;  counter         1    6[COMMON] unsigned char 
  9117 ;; Return value:  Size  Location     Type
  9118 ;;                  2    2[COMMON] int 
  9119 ;; Registers used:
  9120 ;;		wreg, status,2, status,0, btemp+1
  9121 ;; Tracked objects:
  9122 ;;		On entry : 0/0
  9123 ;;		On exit  : 0/0
  9124 ;;		Unchanged: 0/0
  9125 ;; Data sizes:     COMMON   BANK0   BANK1   BANK3   BANK2
  9126 ;;      Params:         4       0       0       0       0
  9127 ;;      Locals:         2       0       0       0       0
  9128 ;;      Temps:          0       0       0       0       0
  9129 ;;      Totals:         6       0       0       0       0
  9130 ;;Total ram usage:        6 bytes
  9131 ;; Hardware stack levels used: 1
  9132 ;; Hardware stack levels required when called: 1
  9133 ;; This function calls:
  9134 ;;		Nothing
  9135 ;; This function is called by:
  9136 ;;		_change_time
  9137 ;; This function uses a non-reentrant model
  9138 ;;
  9139                           
  9140     1339                     ___awmod:	
  9141                           ;psect for function ___awmod
  9142                           
  9143     1339                     l4383:	
  9144                           ;incstack = 0
  9145                           ; Regs used in ___awmod: [wreg+status,2+status,0+btemp+1]
  9146                           
  9147     1339  01F7               	clrf	___awmod@sign
  9148     133A                     l4385:
  9149     133A  1FF5               	btfss	___awmod@dividend+1,7
  9150     133B  2B3D               	goto	u4921
  9151     133C  2B3E               	goto	u4920
  9152     133D                     u4921:
  9153     133D  2B45               	goto	l4391
  9154     133E                     u4920:
  9155     133E                     l4387:
  9156     133E  09F4               	comf	___awmod@dividend,f
  9157     133F  09F5               	comf	___awmod@dividend+1,f
  9158     1340  0AF4               	incf	___awmod@dividend,f
  9159     1341  1903               	skipnz
  9160     1342  0AF5               	incf	___awmod@dividend+1,f
  9161     1343                     l4389:
  9162     1343  01F7               	clrf	___awmod@sign
  9163     1344  0AF7               	incf	___awmod@sign,f
  9164     1345                     l4391:
  9165     1345  1FF3               	btfss	___awmod@divisor+1,7
  9166     1346  2B48               	goto	u4931
  9167     1347  2B49               	goto	u4930
  9168     1348                     u4931:
  9169     1348  2B4E               	goto	l4395
  9170     1349                     u4930:
  9171     1349                     l4393:
  9172     1349  09F2               	comf	___awmod@divisor,f
  9173     134A  09F3               	comf	___awmod@divisor+1,f
  9174     134B  0AF2               	incf	___awmod@divisor,f
  9175     134C  1903               	skipnz
  9176     134D  0AF3               	incf	___awmod@divisor+1,f
  9177     134E                     l4395:
  9178     134E  0872               	movf	___awmod@divisor,w
  9179     134F  0473               	iorwf	___awmod@divisor+1,w
  9180     1350  1903               	btfsc	3,2
  9181     1351  2B53               	goto	u4941
  9182     1352  2B54               	goto	u4940
  9183     1353                     u4941:
  9184     1353  2B83               	goto	l4413
  9185     1354                     u4940:
  9186     1354                     l4397:
  9187     1354  01F6               	clrf	___awmod@counter
  9188     1355  0AF6               	incf	___awmod@counter,f
  9189     1356  2B62               	goto	l4403
  9190     1357                     l4399:
  9191     1357  3001               	movlw	1
  9192     1358                     u4955:
  9193     1358  1003               	clrc
  9194     1359  0DF2               	rlf	___awmod@divisor,f
  9195     135A  0DF3               	rlf	___awmod@divisor+1,f
  9196     135B  3EFF               	addlw	-1
  9197     135C  1D03               	skipz
  9198     135D  2B58               	goto	u4955
  9199     135E                     l4401:
  9200     135E  3001               	movlw	1
  9201     135F  00FF               	movwf	btemp+1
  9202     1360  087F               	movf	btemp+1,w
  9203     1361  07F6               	addwf	___awmod@counter,f
  9204     1362                     l4403:
  9205     1362  1FF3               	btfss	___awmod@divisor+1,7
  9206     1363  2B65               	goto	u4961
  9207     1364  2B66               	goto	u4960
  9208     1365                     u4961:
  9209     1365  2B57               	goto	l4399
  9210     1366                     u4960:
  9211     1366                     l4405:
  9212     1366  0873               	movf	___awmod@divisor+1,w
  9213     1367  0275               	subwf	___awmod@dividend+1,w
  9214     1368  1D03               	skipz
  9215     1369  2B6C               	goto	u4975
  9216     136A  0872               	movf	___awmod@divisor,w
  9217     136B  0274               	subwf	___awmod@dividend,w
  9218     136C                     u4975:
  9219     136C  1C03               	skipc
  9220     136D  2B6F               	goto	u4971
  9221     136E  2B70               	goto	u4970
  9222     136F                     u4971:
  9223     136F  2B76               	goto	l4409
  9224     1370                     u4970:
  9225     1370                     l4407:
  9226     1370  0872               	movf	___awmod@divisor,w
  9227     1371  02F4               	subwf	___awmod@dividend,f
  9228     1372  0873               	movf	___awmod@divisor+1,w
  9229     1373  1C03               	skipc
  9230     1374  03F5               	decf	___awmod@dividend+1,f
  9231     1375  02F5               	subwf	___awmod@dividend+1,f
  9232     1376                     l4409:
  9233     1376  3001               	movlw	1
  9234     1377                     u4985:
  9235     1377  1003               	clrc
  9236     1378  0CF3               	rrf	___awmod@divisor+1,f
  9237     1379  0CF2               	rrf	___awmod@divisor,f
  9238     137A  3EFF               	addlw	-1
  9239     137B  1D03               	skipz
  9240     137C  2B77               	goto	u4985
  9241     137D                     l4411:
  9242     137D  3001               	movlw	1
  9243     137E  02F6               	subwf	___awmod@counter,f
  9244     137F  1D03               	btfss	3,2
  9245     1380  2B82               	goto	u4991
  9246     1381  2B83               	goto	u4990
  9247     1382                     u4991:
  9248     1382  2B66               	goto	l4405
  9249     1383                     u4990:
  9250     1383                     l4413:
  9251     1383  0877               	movf	___awmod@sign,w
  9252     1384  1903               	btfsc	3,2
  9253     1385  2B87               	goto	u5001
  9254     1386  2B88               	goto	u5000
  9255     1387                     u5001:
  9256     1387  2B8D               	goto	l4417
  9257     1388                     u5000:
  9258     1388                     l4415:
  9259     1388  09F4               	comf	___awmod@dividend,f
  9260     1389  09F5               	comf	___awmod@dividend+1,f
  9261     138A  0AF4               	incf	___awmod@dividend,f
  9262     138B  1903               	skipnz
  9263     138C  0AF5               	incf	___awmod@dividend+1,f
  9264     138D                     l4417:
  9265     138D  0875               	movf	___awmod@dividend+1,w
  9266     138E  00F3               	movwf	?___awmod+1
  9267     138F  0874               	movf	___awmod@dividend,w
  9268     1390  00F2               	movwf	?___awmod
  9269     1391                     l843:
  9270     1391  0008               	return
  9271     1392                     __end_of___awmod:
  9272                           
  9273                           	psect	text34
  9274     1392                     __ptext34:	
  9275 ;; *************** function ___awdiv *****************
  9276 ;; Defined at:
  9277 ;;		line 5 in file "C:\Program Files\Microchip\xc8\v2.46\pic\sources\c99\common\awdiv.c"
  9278 ;; Parameters:    Size  Location     Type
  9279 ;;  divisor         2    2[COMMON] int 
  9280 ;;  dividend        2    4[COMMON] int 
  9281 ;; Auto vars:     Size  Location     Type
  9282 ;;  quotient        2    8[COMMON] int 
  9283 ;;  sign            1    7[COMMON] unsigned char 
  9284 ;;  counter         1    6[COMMON] unsigned char 
  9285 ;; Return value:  Size  Location     Type
  9286 ;;                  2    2[COMMON] int 
  9287 ;; Registers used:
  9288 ;;		wreg, status,2, status,0, btemp+1
  9289 ;; Tracked objects:
  9290 ;;		On entry : 0/0
  9291 ;;		On exit  : 0/0
  9292 ;;		Unchanged: 0/0
  9293 ;; Data sizes:     COMMON   BANK0   BANK1   BANK3   BANK2
  9294 ;;      Params:         4       0       0       0       0
  9295 ;;      Locals:         4       0       0       0       0
  9296 ;;      Temps:          0       0       0       0       0
  9297 ;;      Totals:         8       0       0       0       0
  9298 ;;Total ram usage:        8 bytes
  9299 ;; Hardware stack levels used: 1
  9300 ;; Hardware stack levels required when called: 1
  9301 ;; This function calls:
  9302 ;;		Nothing
  9303 ;; This function is called by:
  9304 ;;		_change_time
  9305 ;; This function uses a non-reentrant model
  9306 ;;
  9307                           
  9308     1392                     ___awdiv:	
  9309                           ;psect for function ___awdiv
  9310                           
  9311     1392                     l4339:	
  9312                           ;incstack = 0
  9313                           ; Regs used in ___awdiv: [wreg+status,2+status,0+btemp+1]
  9314                           
  9315     1392  01F7               	clrf	___awdiv@sign
  9316     1393                     l4341:
  9317     1393  1FF3               	btfss	___awdiv@divisor+1,7
  9318     1394  2B96               	goto	u4821
  9319     1395  2B97               	goto	u4820
  9320     1396                     u4821:
  9321     1396  2B9E               	goto	l4347
  9322     1397                     u4820:
  9323     1397                     l4343:
  9324     1397  09F2               	comf	___awdiv@divisor,f
  9325     1398  09F3               	comf	___awdiv@divisor+1,f
  9326     1399  0AF2               	incf	___awdiv@divisor,f
  9327     139A  1903               	skipnz
  9328     139B  0AF3               	incf	___awdiv@divisor+1,f
  9329     139C                     l4345:
  9330     139C  01F7               	clrf	___awdiv@sign
  9331     139D  0AF7               	incf	___awdiv@sign,f
  9332     139E                     l4347:
  9333     139E  1FF5               	btfss	___awdiv@dividend+1,7
  9334     139F  2BA1               	goto	u4831
  9335     13A0  2BA2               	goto	u4830
  9336     13A1                     u4831:
  9337     13A1  2BAB               	goto	l4353
  9338     13A2                     u4830:
  9339     13A2                     l4349:
  9340     13A2  09F4               	comf	___awdiv@dividend,f
  9341     13A3  09F5               	comf	___awdiv@dividend+1,f
  9342     13A4  0AF4               	incf	___awdiv@dividend,f
  9343     13A5  1903               	skipnz
  9344     13A6  0AF5               	incf	___awdiv@dividend+1,f
  9345     13A7                     l4351:
  9346     13A7  3001               	movlw	1
  9347     13A8  00FF               	movwf	btemp+1
  9348     13A9  087F               	movf	btemp+1,w
  9349     13AA  06F7               	xorwf	___awdiv@sign,f
  9350     13AB                     l4353:
  9351     13AB  01F8               	clrf	___awdiv@quotient
  9352     13AC  01F9               	clrf	___awdiv@quotient+1
  9353     13AD                     l4355:
  9354     13AD  0872               	movf	___awdiv@divisor,w
  9355     13AE  0473               	iorwf	___awdiv@divisor+1,w
  9356     13AF  1903               	btfsc	3,2
  9357     13B0  2BB2               	goto	u4841
  9358     13B1  2BB3               	goto	u4840
  9359     13B2                     u4841:
  9360     13B2  2BEA               	goto	l4375
  9361     13B3                     u4840:
  9362     13B3                     l4357:
  9363     13B3  01F6               	clrf	___awdiv@counter
  9364     13B4  0AF6               	incf	___awdiv@counter,f
  9365     13B5  2BC1               	goto	l4363
  9366     13B6                     l4359:
  9367     13B6  3001               	movlw	1
  9368     13B7                     u4855:
  9369     13B7  1003               	clrc
  9370     13B8  0DF2               	rlf	___awdiv@divisor,f
  9371     13B9  0DF3               	rlf	___awdiv@divisor+1,f
  9372     13BA  3EFF               	addlw	-1
  9373     13BB  1D03               	skipz
  9374     13BC  2BB7               	goto	u4855
  9375     13BD                     l4361:
  9376     13BD  3001               	movlw	1
  9377     13BE  00FF               	movwf	btemp+1
  9378     13BF  087F               	movf	btemp+1,w
  9379     13C0  07F6               	addwf	___awdiv@counter,f
  9380     13C1                     l4363:
  9381     13C1  1FF3               	btfss	___awdiv@divisor+1,7
  9382     13C2  2BC4               	goto	u4861
  9383     13C3  2BC5               	goto	u4860
  9384     13C4                     u4861:
  9385     13C4  2BB6               	goto	l4359
  9386     13C5                     u4860:
  9387     13C5                     l4365:
  9388     13C5  3001               	movlw	1
  9389     13C6                     u4875:
  9390     13C6  1003               	clrc
  9391     13C7  0DF8               	rlf	___awdiv@quotient,f
  9392     13C8  0DF9               	rlf	___awdiv@quotient+1,f
  9393     13C9  3EFF               	addlw	-1
  9394     13CA  1D03               	skipz
  9395     13CB  2BC6               	goto	u4875
  9396     13CC  0873               	movf	___awdiv@divisor+1,w
  9397     13CD  0275               	subwf	___awdiv@dividend+1,w
  9398     13CE  1D03               	skipz
  9399     13CF  2BD2               	goto	u4885
  9400     13D0  0872               	movf	___awdiv@divisor,w
  9401     13D1  0274               	subwf	___awdiv@dividend,w
  9402     13D2                     u4885:
  9403     13D2  1C03               	skipc
  9404     13D3  2BD5               	goto	u4881
  9405     13D4  2BD6               	goto	u4880
  9406     13D5                     u4881:
  9407     13D5  2BDD               	goto	l4371
  9408     13D6                     u4880:
  9409     13D6                     l4367:
  9410     13D6  0872               	movf	___awdiv@divisor,w
  9411     13D7  02F4               	subwf	___awdiv@dividend,f
  9412     13D8  0873               	movf	___awdiv@divisor+1,w
  9413     13D9  1C03               	skipc
  9414     13DA  03F5               	decf	___awdiv@dividend+1,f
  9415     13DB  02F5               	subwf	___awdiv@dividend+1,f
  9416     13DC                     l4369:
  9417     13DC  1478               	bsf	___awdiv@quotient,0
  9418     13DD                     l4371:
  9419     13DD  3001               	movlw	1
  9420     13DE                     u4895:
  9421     13DE  1003               	clrc
  9422     13DF  0CF3               	rrf	___awdiv@divisor+1,f
  9423     13E0  0CF2               	rrf	___awdiv@divisor,f
  9424     13E1  3EFF               	addlw	-1
  9425     13E2  1D03               	skipz
  9426     13E3  2BDE               	goto	u4895
  9427     13E4                     l4373:
  9428     13E4  3001               	movlw	1
  9429     13E5  02F6               	subwf	___awdiv@counter,f
  9430     13E6  1D03               	btfss	3,2
  9431     13E7  2BE9               	goto	u4901
  9432     13E8  2BEA               	goto	u4900
  9433     13E9                     u4901:
  9434     13E9  2BC5               	goto	l4365
  9435     13EA                     u4900:
  9436     13EA                     l4375:
  9437     13EA  0877               	movf	___awdiv@sign,w
  9438     13EB  1903               	btfsc	3,2
  9439     13EC  2BEE               	goto	u4911
  9440     13ED  2BEF               	goto	u4910
  9441     13EE                     u4911:
  9442     13EE  2BF4               	goto	l4379
  9443     13EF                     u4910:
  9444     13EF                     l4377:
  9445     13EF  09F8               	comf	___awdiv@quotient,f
  9446     13F0  09F9               	comf	___awdiv@quotient+1,f
  9447     13F1  0AF8               	incf	___awdiv@quotient,f
  9448     13F2  1903               	skipnz
  9449     13F3  0AF9               	incf	___awdiv@quotient+1,f
  9450     13F4                     l4379:
  9451     13F4  0879               	movf	___awdiv@quotient+1,w
  9452     13F5  00F3               	movwf	?___awdiv+1
  9453     13F6  0878               	movf	___awdiv@quotient,w
  9454     13F7  00F2               	movwf	?___awdiv
  9455     13F8                     l830:
  9456     13F8  0008               	return
  9457     13F9                     __end_of___awdiv:
  9458                           
  9459                           	psect	text35
  9460     0CC3                     __ptext35:	
  9461 ;; *************** function _change_pass *****************
  9462 ;; Defined at:
  9463 ;;		line 209 in file "function.c"
  9464 ;; Parameters:    Size  Location     Type
  9465 ;;		None
  9466 ;; Auto vars:     Size  Location     Type
  9467 ;;  addr            2   21[BANK0 ] int 
  9468 ;;  new_pass        5   10[BANK0 ] unsigned char [5]
  9469 ;;  re_pass         5    5[BANK0 ] unsigned char [5]
  9470 ;;  pos             2   23[BANK0 ] unsigned int 
  9471 ;;  i               2   19[BANK0 ] unsigned int 
  9472 ;;  key             1   25[BANK0 ] unsigned char 
  9473 ;; Return value:  Size  Location     Type
  9474 ;;                  1    wreg      void 
  9475 ;; Registers used:
  9476 ;;		wreg, fsr0l, fsr0h, status,2, status,0, btemp+1, pclath, cstack
  9477 ;; Tracked objects:
  9478 ;;		On entry : 0/0
  9479 ;;		On exit  : 0/0
  9480 ;;		Unchanged: 0/0
  9481 ;; Data sizes:     COMMON   BANK0   BANK1   BANK3   BANK2
  9482 ;;      Params:         0       0       0       0       0
  9483 ;;      Locals:         0      21       0       0       0
  9484 ;;      Temps:          0       3       0       0       0
  9485 ;;      Totals:         0      24       0       0       0
  9486 ;;Total ram usage:       24 bytes
  9487 ;; Hardware stack levels used: 1
  9488 ;; Hardware stack levels required when called: 4
  9489 ;; This function calls:
  9490 ;;		_clcd_print
  9491 ;;		_clcd_putch
  9492 ;;		_clcd_write
  9493 ;;		_detect_single_press
  9494 ;;		_strcmp
  9495 ;;		_strcpy
  9496 ;;		_write_ext_eeprom
  9497 ;; This function is called by:
  9498 ;;		_enter_menu_option
  9499 ;; This function uses a non-reentrant model
  9500 ;;
  9501                           
  9502     0CC3                     _change_pass:	
  9503                           ;psect for function _change_pass
  9504                           
  9505     0CC3                     l4561:	
  9506                           ;incstack = 0
  9507                           ; Regs used in _change_pass: [wreg-fsr0h+status,2+status,0+btemp+1+pclath+cstack]
  9508                           
  9509                           
  9510                           ;function.c: 210:     char new_pass[5], re_pass[5];;function.c: 211:     unsigned int po
      +                          s = 0;
  9511     0CC3  1283               	bcf	3,5	;RP0=0, select bank0
  9512     0CC4  1303               	bcf	3,6	;RP1=0, select bank0
  9513     0CC5  01B7               	clrf	change_pass@pos
  9514     0CC6  01B8               	clrf	change_pass@pos+1
  9515     0CC7                     l4563:
  9516                           
  9517                           ;function.c: 212:     unsigned int i = 5;
  9518     0CC7  3005               	movlw	5
  9519     0CC8  00B3               	movwf	change_pass@i
  9520     0CC9  3000               	movlw	0
  9521     0CCA  00B4               	movwf	change_pass@i+1
  9522     0CCB                     l4565:
  9523                           
  9524                           ;function.c: 213:     unsigned char key;;function.c: 215:     clcd_print(" Enter Passwor
      +                          d ", (0x80 + 0));
  9525     0CCB  304A               	movlw	low (STR_30| (0+32768))
  9526     0CCC  00F6               	movwf	clcd_print@str
  9527     0CCD  3086               	movlw	high (STR_30| (0+32768))
  9528     0CCE  00F7               	movwf	clcd_print@str+1
  9529     0CCF  3080               	movlw	128
  9530     0CD0  00F8               	movwf	clcd_print@addr
  9531     0CD1  160A  118A  2187  120A  158A  	fcall	_clcd_print
  9532     0CD6                     l4567:
  9533                           
  9534                           ;function.c: 216:     clcd_print("                ", (0xC0 + 0));
  9535     0CD6  3039               	movlw	low (STR_31| (0+32768))
  9536     0CD7  00F6               	movwf	clcd_print@str
  9537     0CD8  3086               	movlw	high (STR_31| (0+32768))
  9538     0CD9  00F7               	movwf	clcd_print@str+1
  9539     0CDA  30C0               	movlw	192
  9540     0CDB  00F8               	movwf	clcd_print@addr
  9541     0CDC  160A  118A  2187  120A  158A  	fcall	_clcd_print
  9542                           
  9543                           ;function.c: 219:     while (pos < 4) {
  9544     0CE1  2D2E               	goto	l4591
  9545     0CE2                     l4569:
  9546                           
  9547                           ;function.c: 220:         key = detect_single_press();
  9548     0CE2  160A  118A  2086  120A  158A  	fcall	_detect_single_press
  9549     0CE7  1283               	bcf	3,5	;RP0=0, select bank0
  9550     0CE8  1303               	bcf	3,6	;RP1=0, select bank0
  9551     0CE9  00B9               	movwf	change_pass@key
  9552     0CEA                     l4571:
  9553                           
  9554                           ;function.c: 221:         _delay((unsigned long)((20)*(20000000/4000.0)));
  9555     0CEA  3082               	movlw	130
  9556     0CEB  1283               	bcf	3,5	;RP0=0, select bank0
  9557     0CEC  1303               	bcf	3,6	;RP1=0, select bank0
  9558     0CED  00A3               	movwf	??_change_pass+1
  9559     0CEE  30DD               	movlw	221
  9560     0CEF  00A2               	movwf	??_change_pass
  9561     0CF0                     u6887:
  9562     0CF0  0BA2               	decfsz	??_change_pass,f
  9563     0CF1  2CF0               	goto	u6887
  9564     0CF2  0BA3               	decfsz	??_change_pass+1,f
  9565     0CF3  2CF0               	goto	u6887
  9566     0CF4                     l4573:
  9567                           
  9568                           ;function.c: 222:         if (key == 0x2F || key == 0x1F) {
  9569     0CF4  302F               	movlw	47
  9570     0CF5  1283               	bcf	3,5	;RP0=0, select bank0
  9571     0CF6  1303               	bcf	3,6	;RP1=0, select bank0
  9572     0CF7  0639               	xorwf	change_pass@key,w
  9573     0CF8  1903               	btfsc	3,2
  9574     0CF9  2CFB               	goto	u5201
  9575     0CFA  2CFC               	goto	u5200
  9576     0CFB                     u5201:
  9577     0CFB  2D02               	goto	l4577
  9578     0CFC                     u5200:
  9579     0CFC                     l4575:
  9580     0CFC  301F               	movlw	31
  9581     0CFD  0639               	xorwf	change_pass@key,w
  9582     0CFE  1D03               	btfss	3,2
  9583     0CFF  2D01               	goto	u5211
  9584     0D00  2D02               	goto	u5210
  9585     0D01                     u5211:
  9586     0D01  2D2E               	goto	l4591
  9587     0D02                     u5210:
  9588     0D02                     l4577:
  9589                           
  9590                           ;function.c: 223:             new_pass[pos] = (key == 0x2F) ? '1' : '0';
  9591     0D02  302F               	movlw	47
  9592     0D03  0639               	xorwf	change_pass@key,w
  9593     0D04  1903               	btfsc	3,2
  9594     0D05  2D07               	goto	u5221
  9595     0D06  2D08               	goto	u5220
  9596     0D07                     u5221:
  9597     0D07  2D0D               	goto	l4581
  9598     0D08                     u5220:
  9599     0D08                     l4579:
  9600     0D08  3030               	movlw	48
  9601     0D09  00AF               	movwf	_change_pass$400
  9602     0D0A  3000               	movlw	0
  9603     0D0B  00B0               	movwf	_change_pass$400+1
  9604     0D0C  2D11               	goto	l4583
  9605     0D0D                     l4581:
  9606     0D0D  3031               	movlw	49
  9607     0D0E  00AF               	movwf	_change_pass$400
  9608     0D0F  3000               	movlw	0
  9609     0D10  00B0               	movwf	_change_pass$400+1
  9610     0D11                     l4583:
  9611     0D11  0837               	movf	change_pass@pos,w
  9612     0D12  3E2A               	addlw	(low (change_pass@new_pass| 0))& (0+255)
  9613     0D13  0084               	movwf	4
  9614     0D14  082F               	movf	_change_pass$400,w
  9615     0D15  1383               	bcf	3,7	;select IRP bank0
  9616     0D16  0080               	movwf	0
  9617     0D17                     l4585:
  9618                           
  9619                           ;function.c: 224:             clcd_putch('*', (0xC0 + i));
  9620     0D17  0833               	movf	change_pass@i,w
  9621     0D18  3EC0               	addlw	192
  9622     0D19  00A0               	movwf	clcd_putch@addr
  9623     0D1A  302A               	movlw	42
  9624     0D1B  160A  158A  2763  120A  158A  	fcall	_clcd_putch
  9625     0D20                     l4587:
  9626                           
  9627                           ;function.c: 225:             i++;
  9628     0D20  3001               	movlw	1
  9629     0D21  1283               	bcf	3,5	;RP0=0, select bank0
  9630     0D22  1303               	bcf	3,6	;RP1=0, select bank0
  9631     0D23  07B3               	addwf	change_pass@i,f
  9632     0D24  1803               	skipnc
  9633     0D25  0AB4               	incf	change_pass@i+1,f
  9634     0D26  3000               	movlw	0
  9635     0D27  07B4               	addwf	change_pass@i+1,f
  9636     0D28                     l4589:
  9637                           
  9638                           ;function.c: 226:             pos++;
  9639     0D28  3001               	movlw	1
  9640     0D29  07B7               	addwf	change_pass@pos,f
  9641     0D2A  1803               	skipnc
  9642     0D2B  0AB8               	incf	change_pass@pos+1,f
  9643     0D2C  3000               	movlw	0
  9644     0D2D  07B8               	addwf	change_pass@pos+1,f
  9645     0D2E                     l4591:
  9646                           
  9647                           ;function.c: 219:     while (pos < 4) {
  9648     0D2E  3000               	movlw	0
  9649     0D2F  1283               	bcf	3,5	;RP0=0, select bank0
  9650     0D30  1303               	bcf	3,6	;RP1=0, select bank0
  9651     0D31  0238               	subwf	change_pass@pos+1,w
  9652     0D32  3004               	movlw	4
  9653     0D33  1903               	skipnz
  9654     0D34  0237               	subwf	change_pass@pos,w
  9655     0D35  1C03               	skipc
  9656     0D36  2D38               	goto	u5231
  9657     0D37  2D39               	goto	u5230
  9658     0D38                     u5231:
  9659     0D38  2CE2               	goto	l4569
  9660     0D39                     u5230:
  9661     0D39                     l4593:
  9662                           
  9663                           ;function.c: 229:     new_pass[4] = '\0';
  9664     0D39  01AE               	clrf	change_pass@new_pass+4
  9665                           
  9666                           ;function.c: 231:     pos = 0;
  9667     0D3A  01B7               	clrf	change_pass@pos
  9668     0D3B  01B8               	clrf	change_pass@pos+1
  9669     0D3C                     l4595:
  9670                           
  9671                           ;function.c: 232:     i = 5;
  9672     0D3C  3005               	movlw	5
  9673     0D3D  00B3               	movwf	change_pass@i
  9674     0D3E  3000               	movlw	0
  9675     0D3F  00B4               	movwf	change_pass@i+1
  9676     0D40                     l4597:
  9677                           
  9678                           ;function.c: 234:     clcd_print("ReEnter Password", (0x80 + 0));
  9679     0D40  307D               	movlw	low (STR_32| (0+32768))
  9680     0D41  00F6               	movwf	clcd_print@str
  9681     0D42  3086               	movlw	high (STR_32| (0+32768))
  9682     0D43  00F7               	movwf	clcd_print@str+1
  9683     0D44  3080               	movlw	128
  9684     0D45  00F8               	movwf	clcd_print@addr
  9685     0D46  160A  118A  2187  120A  158A  	fcall	_clcd_print
  9686     0D4B                     l4599:
  9687                           
  9688                           ;function.c: 235:     clcd_print("                ", (0xC0 + 0));
  9689     0D4B  3039               	movlw	low (STR_31| (0+32768))
  9690     0D4C  00F6               	movwf	clcd_print@str
  9691     0D4D  3086               	movlw	high (STR_31| (0+32768))
  9692     0D4E  00F7               	movwf	clcd_print@str+1
  9693     0D4F  30C0               	movlw	192
  9694     0D50  00F8               	movwf	clcd_print@addr
  9695     0D51  160A  118A  2187  120A  158A  	fcall	_clcd_print
  9696                           
  9697                           ;function.c: 238:     while (pos < 4) {
  9698     0D56  2DA3               	goto	l4623
  9699     0D57                     l4601:
  9700                           
  9701                           ;function.c: 239:         key = detect_single_press();
  9702     0D57  160A  118A  2086  120A  158A  	fcall	_detect_single_press
  9703     0D5C  1283               	bcf	3,5	;RP0=0, select bank0
  9704     0D5D  1303               	bcf	3,6	;RP1=0, select bank0
  9705     0D5E  00B9               	movwf	change_pass@key
  9706     0D5F                     l4603:
  9707                           
  9708                           ;function.c: 240:         _delay((unsigned long)((20)*(20000000/4000.0)));
  9709     0D5F  3082               	movlw	130
  9710     0D60  1283               	bcf	3,5	;RP0=0, select bank0
  9711     0D61  1303               	bcf	3,6	;RP1=0, select bank0
  9712     0D62  00A3               	movwf	??_change_pass+1
  9713     0D63  30DD               	movlw	221
  9714     0D64  00A2               	movwf	??_change_pass
  9715     0D65                     u6897:
  9716     0D65  0BA2               	decfsz	??_change_pass,f
  9717     0D66  2D65               	goto	u6897
  9718     0D67  0BA3               	decfsz	??_change_pass+1,f
  9719     0D68  2D65               	goto	u6897
  9720     0D69                     l4605:
  9721                           
  9722                           ;function.c: 241:         if (key == 0x2F || key == 0x1F) {
  9723     0D69  302F               	movlw	47
  9724     0D6A  1283               	bcf	3,5	;RP0=0, select bank0
  9725     0D6B  1303               	bcf	3,6	;RP1=0, select bank0
  9726     0D6C  0639               	xorwf	change_pass@key,w
  9727     0D6D  1903               	btfsc	3,2
  9728     0D6E  2D70               	goto	u5241
  9729     0D6F  2D71               	goto	u5240
  9730     0D70                     u5241:
  9731     0D70  2D77               	goto	l4609
  9732     0D71                     u5240:
  9733     0D71                     l4607:
  9734     0D71  301F               	movlw	31
  9735     0D72  0639               	xorwf	change_pass@key,w
  9736     0D73  1D03               	btfss	3,2
  9737     0D74  2D76               	goto	u5251
  9738     0D75  2D77               	goto	u5250
  9739     0D76                     u5251:
  9740     0D76  2DA3               	goto	l4623
  9741     0D77                     u5250:
  9742     0D77                     l4609:
  9743                           
  9744                           ;function.c: 242:             re_pass[pos] = (key == 0x2F) ? '1' : '0';
  9745     0D77  302F               	movlw	47
  9746     0D78  0639               	xorwf	change_pass@key,w
  9747     0D79  1903               	btfsc	3,2
  9748     0D7A  2D7C               	goto	u5261
  9749     0D7B  2D7D               	goto	u5260
  9750     0D7C                     u5261:
  9751     0D7C  2D82               	goto	l4613
  9752     0D7D                     u5260:
  9753     0D7D                     l4611:
  9754     0D7D  3030               	movlw	48
  9755     0D7E  00B1               	movwf	_change_pass$403
  9756     0D7F  3000               	movlw	0
  9757     0D80  00B2               	movwf	_change_pass$403+1
  9758     0D81  2D86               	goto	l4615
  9759     0D82                     l4613:
  9760     0D82  3031               	movlw	49
  9761     0D83  00B1               	movwf	_change_pass$403
  9762     0D84  3000               	movlw	0
  9763     0D85  00B2               	movwf	_change_pass$403+1
  9764     0D86                     l4615:
  9765     0D86  0837               	movf	change_pass@pos,w
  9766     0D87  3E25               	addlw	(low (change_pass@re_pass| 0))& (0+255)
  9767     0D88  0084               	movwf	4
  9768     0D89  0831               	movf	_change_pass$403,w
  9769     0D8A  1383               	bcf	3,7	;select IRP bank0
  9770     0D8B  0080               	movwf	0
  9771     0D8C                     l4617:
  9772                           
  9773                           ;function.c: 243:             clcd_putch('*', (0xC0 + i));
  9774     0D8C  0833               	movf	change_pass@i,w
  9775     0D8D  3EC0               	addlw	192
  9776     0D8E  00A0               	movwf	clcd_putch@addr
  9777     0D8F  302A               	movlw	42
  9778     0D90  160A  158A  2763  120A  158A  	fcall	_clcd_putch
  9779     0D95                     l4619:
  9780                           
  9781                           ;function.c: 244:             i++;
  9782     0D95  3001               	movlw	1
  9783     0D96  1283               	bcf	3,5	;RP0=0, select bank0
  9784     0D97  1303               	bcf	3,6	;RP1=0, select bank0
  9785     0D98  07B3               	addwf	change_pass@i,f
  9786     0D99  1803               	skipnc
  9787     0D9A  0AB4               	incf	change_pass@i+1,f
  9788     0D9B  3000               	movlw	0
  9789     0D9C  07B4               	addwf	change_pass@i+1,f
  9790     0D9D                     l4621:
  9791                           
  9792                           ;function.c: 245:             pos++;
  9793     0D9D  3001               	movlw	1
  9794     0D9E  07B7               	addwf	change_pass@pos,f
  9795     0D9F  1803               	skipnc
  9796     0DA0  0AB8               	incf	change_pass@pos+1,f
  9797     0DA1  3000               	movlw	0
  9798     0DA2  07B8               	addwf	change_pass@pos+1,f
  9799     0DA3                     l4623:
  9800                           
  9801                           ;function.c: 238:     while (pos < 4) {
  9802     0DA3  3000               	movlw	0
  9803     0DA4  1283               	bcf	3,5	;RP0=0, select bank0
  9804     0DA5  1303               	bcf	3,6	;RP1=0, select bank0
  9805     0DA6  0238               	subwf	change_pass@pos+1,w
  9806     0DA7  3004               	movlw	4
  9807     0DA8  1903               	skipnz
  9808     0DA9  0237               	subwf	change_pass@pos,w
  9809     0DAA  1C03               	skipc
  9810     0DAB  2DAD               	goto	u5271
  9811     0DAC  2DAE               	goto	u5270
  9812     0DAD                     u5271:
  9813     0DAD  2D57               	goto	l4601
  9814     0DAE                     u5270:
  9815     0DAE                     l4625:
  9816                           
  9817                           ;function.c: 248:     re_pass[4] = '\0';
  9818     0DAE  01A9               	clrf	change_pass@re_pass+4
  9819     0DAF                     l4627:
  9820                           
  9821                           ;function.c: 251:     if (strcmp(new_pass, re_pass) == 0) {
  9822     0DAF  3025               	movlw	(low (change_pass@re_pass| 0))& (0+255)
  9823     0DB0  00F2               	movwf	strcmp@r
  9824     0DB1  302A               	movlw	(low (change_pass@new_pass| 0))& (0+255)
  9825     0DB2  160A  118A  215A  120A  158A  	fcall	_strcmp
  9826     0DB7  0872               	movf	?_strcmp,w
  9827     0DB8  0473               	iorwf	?_strcmp+1,w
  9828     0DB9  1D03               	btfss	3,2
  9829     0DBA  2DBC               	goto	u5281
  9830     0DBB  2DBD               	goto	u5280
  9831     0DBC                     u5281:
  9832     0DBC  2E0D               	goto	l4649
  9833     0DBD                     u5280:
  9834     0DBD                     l4629:
  9835                           
  9836                           ;function.c: 252:         strcpy(pass, new_pass);
  9837     0DBD  302A               	movlw	(low (change_pass@new_pass| 0))& (0+255)
  9838     0DBE  00F2               	movwf	strcpy@src
  9839     0DBF  30B7               	movlw	(low (_pass| 0))& (0+255)
  9840     0DC0  160A  158A  278D  120A  158A  	fcall	_strcpy
  9841     0DC5                     l4631:
  9842                           
  9843                           ;function.c: 253:         for (int addr = 125; addr < 129; addr++) {
  9844     0DC5  307D               	movlw	125
  9845     0DC6  1283               	bcf	3,5	;RP0=0, select bank0
  9846     0DC7  1303               	bcf	3,6	;RP1=0, select bank0
  9847     0DC8  00B5               	movwf	change_pass@addr
  9848     0DC9  3000               	movlw	0
  9849     0DCA  00B6               	movwf	change_pass@addr+1
  9850     0DCB                     l4637:
  9851                           
  9852                           ;function.c: 254:             write_ext_eeprom(addr, new_pass[addr - 125]);
  9853     0DCB  1283               	bcf	3,5	;RP0=0, select bank0
  9854     0DCC  1303               	bcf	3,6	;RP1=0, select bank0
  9855     0DCD  0835               	movf	change_pass@addr,w
  9856     0DCE  3E83               	addlw	131
  9857     0DCF  3E2A               	addlw	(low (change_pass@new_pass| 0))& (0+255)
  9858     0DD0  0084               	movwf	4
  9859     0DD1  1383               	bcf	3,7	;select IRP bank0
  9860     0DD2  0800               	movf	0,w
  9861     0DD3  00F5               	movwf	write_ext_eeprom@data
  9862     0DD4  0835               	movf	change_pass@addr,w
  9863     0DD5  160A  158A  27A3  120A  158A  	fcall	_write_ext_eeprom
  9864     0DDA                     l4639:
  9865                           
  9866                           ;function.c: 255:         }
  9867     0DDA  3001               	movlw	1
  9868     0DDB  1283               	bcf	3,5	;RP0=0, select bank0
  9869     0DDC  1303               	bcf	3,6	;RP1=0, select bank0
  9870     0DDD  07B5               	addwf	change_pass@addr,f
  9871     0DDE  1803               	skipnc
  9872     0DDF  0AB6               	incf	change_pass@addr+1,f
  9873     0DE0  3000               	movlw	0
  9874     0DE1  07B6               	addwf	change_pass@addr+1,f
  9875     0DE2                     l4641:
  9876     0DE2  0836               	movf	change_pass@addr+1,w
  9877     0DE3  3A80               	xorlw	128
  9878     0DE4  00FF               	movwf	btemp+1
  9879     0DE5  3080               	movlw	128
  9880     0DE6  027F               	subwf	btemp+1,w
  9881     0DE7  1D03               	skipz
  9882     0DE8  2DEB               	goto	u5295
  9883     0DE9  3081               	movlw	129
  9884     0DEA  0235               	subwf	change_pass@addr,w
  9885     0DEB                     u5295:
  9886     0DEB  1C03               	skipc
  9887     0DEC  2DEE               	goto	u5291
  9888     0DED  2DEF               	goto	u5290
  9889     0DEE                     u5291:
  9890     0DEE  2DCB               	goto	l4637
  9891     0DEF                     u5290:
  9892     0DEF                     l4643:
  9893                           
  9894                           ;function.c: 256:         clcd_write(0x01, 0);
  9895     0DEF  01F2               	clrf	clcd_write@mode
  9896     0DF0  3001               	movlw	1
  9897     0DF1  160A  158A  27E0  120A  158A  	fcall	_clcd_write
  9898     0DF6                     l4645:
  9899                           
  9900                           ;function.c: 257:         clcd_print("Password is", (0x80 + 2));
  9901     0DF6  306A               	movlw	low (STR_34| (0+32768))
  9902     0DF7  00F6               	movwf	clcd_print@str
  9903     0DF8  3087               	movlw	high (STR_34| (0+32768))
  9904     0DF9  00F7               	movwf	clcd_print@str+1
  9905     0DFA  3082               	movlw	130
  9906     0DFB  00F8               	movwf	clcd_print@addr
  9907     0DFC  160A  118A  2187  120A  158A  	fcall	_clcd_print
  9908     0E01                     l4647:
  9909                           
  9910                           ;function.c: 258:         clcd_print("Changed", (0xC0 + 4));
  9911     0E01  30A5               	movlw	low (STR_35| (0+32768))
  9912     0E02  00F6               	movwf	clcd_print@str
  9913     0E03  3087               	movlw	high (STR_35| (0+32768))
  9914     0E04  00F7               	movwf	clcd_print@str+1
  9915     0E05  30C4               	movlw	196
  9916     0E06  00F8               	movwf	clcd_print@addr
  9917     0E07  160A  118A  2187  120A  158A  	fcall	_clcd_print
  9918                           
  9919                           ;function.c: 259:     } else {
  9920     0E0C  2E2A               	goto	l4655
  9921     0E0D                     l4649:
  9922                           
  9923                           ;function.c: 260:         clcd_write(0x01, 0);
  9924     0E0D  01F2               	clrf	clcd_write@mode
  9925     0E0E  3001               	movlw	1
  9926     0E0F  160A  158A  27E0  120A  158A  	fcall	_clcd_write
  9927     0E14                     l4651:
  9928                           
  9929                           ;function.c: 261:         clcd_print("Password", (0x80 + 3));
  9930     0E14  3085               	movlw	low ((STR_32+8)| (0+32768))
  9931     0E15  00F6               	movwf	clcd_print@str
  9932     0E16  3086               	movlw	high ((STR_32+8)| (0+32768))
  9933     0E17  00F7               	movwf	clcd_print@str+1
  9934     0E18  3083               	movlw	131
  9935     0E19  00F8               	movwf	clcd_print@addr
  9936     0E1A  160A  118A  2187  120A  158A  	fcall	_clcd_print
  9937     0E1F                     l4653:
  9938                           
  9939                           ;function.c: 262:         clcd_print("Mismatch", (0xC0 + 3));
  9940     0E1F  308B               	movlw	low (STR_37| (0+32768))
  9941     0E20  00F6               	movwf	clcd_print@str
  9942     0E21  3087               	movlw	high (STR_37| (0+32768))
  9943     0E22  00F7               	movwf	clcd_print@str+1
  9944     0E23  30C3               	movlw	195
  9945     0E24  00F8               	movwf	clcd_print@addr
  9946     0E25  160A  118A  2187  120A  158A  	fcall	_clcd_print
  9947     0E2A                     l4655:
  9948                           
  9949                           ;function.c: 264:     _delay((unsigned long)((1000)*(20000000/4000.0)));
  9950     0E2A  301A               	movlw	26
  9951     0E2B  1283               	bcf	3,5	;RP0=0, select bank0
  9952     0E2C  1303               	bcf	3,6	;RP1=0, select bank0
  9953     0E2D  00A4               	movwf	??_change_pass+2
  9954     0E2E  305E               	movlw	94
  9955     0E2F  00A3               	movwf	??_change_pass+1
  9956     0E30  306D               	movlw	109
  9957     0E31  00A2               	movwf	??_change_pass
  9958     0E32                     u6907:
  9959     0E32  0BA2               	decfsz	??_change_pass,f
  9960     0E33  2E32               	goto	u6907
  9961     0E34  0BA3               	decfsz	??_change_pass+1,f
  9962     0E35  2E32               	goto	u6907
  9963     0E36  0BA4               	decfsz	??_change_pass+2,f
  9964     0E37  2E32               	goto	u6907
  9965     0E38  2E39               	nop2
  9966     0E39                     l4657:
  9967                           
  9968                           ;function.c: 265:     clcd_write(0x01, 0);
  9969     0E39  01F2               	clrf	clcd_write@mode
  9970     0E3A  3001               	movlw	1
  9971     0E3B  160A  158A  27E0  120A  158A  	fcall	_clcd_write
  9972     0E40                     l4659:
  9973                           
  9974                           ;function.c: 266:     dash_mode = 1;
  9975     0E40  1283               	bcf	3,5	;RP0=0, select bank0
  9976     0E41  1303               	bcf	3,6	;RP1=0, select bank0
  9977     0E42  01EC               	clrf	_dash_mode
  9978     0E43  0AEC               	incf	_dash_mode,f
  9979     0E44                     l521:
  9980     0E44  0008               	return
  9981     0E45                     __end_of_change_pass:
  9982                           
  9983                           	psect	text36
  9984     1FA3                     __ptext36:	
  9985 ;; *************** function _write_ext_eeprom *****************
  9986 ;; Defined at:
  9987 ;;		line 26 in file "external_eerprom.c"
  9988 ;; Parameters:    Size  Location     Type
  9989 ;;  addr            1    wreg     unsigned char 
  9990 ;;  data            1    5[COMMON] unsigned char 
  9991 ;; Auto vars:     Size  Location     Type
  9992 ;;  addr            1    6[COMMON] unsigned char 
  9993 ;; Return value:  Size  Location     Type
  9994 ;;                  1    wreg      void 
  9995 ;; Registers used:
  9996 ;;		wreg, status,2, status,0, pclath, cstack
  9997 ;; Tracked objects:
  9998 ;;		On entry : 0/0
  9999 ;;		On exit  : 0/0
 10000 ;;		Unchanged: 0/0
 10001 ;; Data sizes:     COMMON   BANK0   BANK1   BANK3   BANK2
 10002 ;;      Params:         1       0       0       0       0
 10003 ;;      Locals:         1       0       0       0       0
 10004 ;;      Temps:          0       0       0       0       0
 10005 ;;      Totals:         2       0       0       0       0
 10006 ;;Total ram usage:        2 bytes
 10007 ;; Hardware stack levels used: 1
 10008 ;; Hardware stack levels required when called: 3
 10009 ;; This function calls:
 10010 ;;		_i2c_start
 10011 ;;		_i2c_stop
 10012 ;;		_i2c_write
 10013 ;; This function is called by:
 10014 ;;		_store_eeprom
 10015 ;;		_change_pass
 10016 ;; This function uses a non-reentrant model
 10017 ;;
 10018                           
 10019     1FA3                     _write_ext_eeprom:	
 10020                           ;psect for function _write_ext_eeprom
 10021                           
 10022                           
 10023                           ;incstack = 0
 10024                           ; Regs used in _write_ext_eeprom: [wreg+status,2+status,0+pclath+cstack]
 10025                           ;write_ext_eeprom@addr stored from wreg
 10026     1FA3  00F6               	movwf	write_ext_eeprom@addr
 10027     1FA4                     l4163:
 10028                           
 10029                           ;external_eerprom.c: 26: void write_ext_eeprom(unsigned char addr, unsigned char data);e
      +                          xternal_eerprom.c: 27: {;external_eerprom.c: 28:     i2c_start();
 10030     1FA4  160A  158A  26E4  160A  158A  	fcall	_i2c_start
 10031                           
 10032                           ;external_eerprom.c: 29:     i2c_write(0b10100000);
 10033     1FA9  30A0               	movlw	160
 10034     1FAA  160A  158A  26FF  160A  158A  	fcall	_i2c_write
 10035                           
 10036                           ;external_eerprom.c: 30:     i2c_write(addr);
 10037     1FAF  0876               	movf	write_ext_eeprom@addr,w
 10038     1FB0  160A  158A  26FF  160A  158A  	fcall	_i2c_write
 10039                           
 10040                           ;external_eerprom.c: 31:     i2c_write(data);
 10041     1FB5  0875               	movf	write_ext_eeprom@data,w
 10042     1FB6  160A  158A  26FF  160A  158A  	fcall	_i2c_write
 10043                           
 10044                           ;external_eerprom.c: 32:     i2c_stop();
 10045     1FBB  160A  158A  26ED  160A  158A  	fcall	_i2c_stop
 10046     1FC0                     l291:
 10047     1FC0  0008               	return
 10048     1FC1                     __end_of_write_ext_eeprom:
 10049                           
 10050                           	psect	text37
 10051     1EFF                     __ptext37:	
 10052 ;; *************** function _i2c_write *****************
 10053 ;; Defined at:
 10054 ;;		line 52 in file "i2c.c"
 10055 ;; Parameters:    Size  Location     Type
 10056 ;;  data            1    wreg     unsigned char 
 10057 ;; Auto vars:     Size  Location     Type
 10058 ;;  data            1    2[COMMON] unsigned char 
 10059 ;; Return value:  Size  Location     Type
 10060 ;;                  2   40[None  ] int 
 10061 ;; Registers used:
 10062 ;;		wreg, status,2, status,0, pclath, cstack
 10063 ;; Tracked objects:
 10064 ;;		On entry : 0/0
 10065 ;;		On exit  : 0/0
 10066 ;;		Unchanged: 0/0
 10067 ;; Data sizes:     COMMON   BANK0   BANK1   BANK3   BANK2
 10068 ;;      Params:         0       0       0       0       0
 10069 ;;      Locals:         1       0       0       0       0
 10070 ;;      Temps:          0       0       0       0       0
 10071 ;;      Totals:         1       0       0       0       0
 10072 ;;Total ram usage:        1 bytes
 10073 ;; Hardware stack levels used: 1
 10074 ;; Hardware stack levels required when called: 2
 10075 ;; This function calls:
 10076 ;;		_i2c_wait_for_idle
 10077 ;; This function is called by:
 10078 ;;		_read_ds1307
 10079 ;;		_write_ds1307
 10080 ;;		_read_ext_eeprom
 10081 ;;		_write_ext_eeprom
 10082 ;; This function uses a non-reentrant model
 10083 ;;
 10084                           
 10085     1EFF                     _i2c_write:	
 10086                           ;psect for function _i2c_write
 10087                           
 10088                           
 10089                           ;incstack = 0
 10090                           ; Regs used in _i2c_write: [wreg+status,2+status,0+pclath+cstack]
 10091                           ;i2c_write@data stored from wreg
 10092     1EFF  00F2               	movwf	i2c_write@data
 10093     1F00                     l4091:
 10094                           
 10095                           ;i2c.c: 52: int i2c_write(unsigned char data);i2c.c: 53: {;i2c.c: 54:     i2c_wait_for_i
      +                          dle();
 10096     1F00  160A  158A  2720  160A  158A  	fcall	_i2c_wait_for_idle
 10097     1F05                     l4093:
 10098                           
 10099                           ;i2c.c: 55:     SSPBUF = data;
 10100     1F05  0872               	movf	i2c_write@data,w
 10101     1F06  1283               	bcf	3,5	;RP0=0, select bank0
 10102     1F07  1303               	bcf	3,6	;RP1=0, select bank0
 10103     1F08  0093               	movwf	19	;volatile
 10104     1F09                     l4095:
 10105     1F09                     l117:	
 10106                           ;i2c.c: 56:     return !ACKSTAT;;	Return value of _i2c_write is never used
 10107                           
 10108     1F09  0008               	return
 10109     1F0A                     __end_of_i2c_write:
 10110                           
 10111                           	psect	text38
 10112     1EED                     __ptext38:	
 10113 ;; *************** function _i2c_stop *****************
 10114 ;; Defined at:
 10115 ;;		line 26 in file "i2c.c"
 10116 ;; Parameters:    Size  Location     Type
 10117 ;;		None
 10118 ;; Auto vars:     Size  Location     Type
 10119 ;;		None
 10120 ;; Return value:  Size  Location     Type
 10121 ;;                  1    wreg      void 
 10122 ;; Registers used:
 10123 ;;		wreg, status,2, status,0, pclath, cstack
 10124 ;; Tracked objects:
 10125 ;;		On entry : 0/0
 10126 ;;		On exit  : 0/0
 10127 ;;		Unchanged: 0/0
 10128 ;; Data sizes:     COMMON   BANK0   BANK1   BANK3   BANK2
 10129 ;;      Params:         0       0       0       0       0
 10130 ;;      Locals:         0       0       0       0       0
 10131 ;;      Temps:          0       0       0       0       0
 10132 ;;      Totals:         0       0       0       0       0
 10133 ;;Total ram usage:        0 bytes
 10134 ;; Hardware stack levels used: 1
 10135 ;; Hardware stack levels required when called: 2
 10136 ;; This function calls:
 10137 ;;		_i2c_wait_for_idle
 10138 ;; This function is called by:
 10139 ;;		_read_ds1307
 10140 ;;		_write_ds1307
 10141 ;;		_i2c_rep_start
 10142 ;;		_read_ext_eeprom
 10143 ;;		_write_ext_eeprom
 10144 ;; This function uses a non-reentrant model
 10145 ;;
 10146                           
 10147     1EED                     _i2c_stop:	
 10148                           ;psect for function _i2c_stop
 10149                           
 10150     1EED                     l4087:	
 10151                           ;incstack = 0
 10152                           ; Regs used in _i2c_stop: [wreg+status,2+status,0+pclath+cstack]
 10153                           
 10154                           
 10155                           ;i2c.c: 28:     i2c_wait_for_idle();
 10156     1EED  160A  158A  2720  160A  158A  	fcall	_i2c_wait_for_idle
 10157     1EF2                     l4089:
 10158                           
 10159                           ;i2c.c: 29:     PEN = 1;
 10160     1EF2  1683               	bsf	3,5	;RP0=1, select bank1
 10161     1EF3  1303               	bcf	3,6	;RP1=0, select bank1
 10162     1EF4  1511               	bsf	17,2	;volatile
 10163     1EF5                     l109:
 10164     1EF5  0008               	return
 10165     1EF6                     __end_of_i2c_stop:
 10166                           
 10167                           	psect	text39
 10168     1EE4                     __ptext39:	
 10169 ;; *************** function _i2c_start *****************
 10170 ;; Defined at:
 10171 ;;		line 16 in file "i2c.c"
 10172 ;; Parameters:    Size  Location     Type
 10173 ;;		None
 10174 ;; Auto vars:     Size  Location     Type
 10175 ;;		None
 10176 ;; Return value:  Size  Location     Type
 10177 ;;                  1    wreg      void 
 10178 ;; Registers used:
 10179 ;;		wreg, status,2, status,0, pclath, cstack
 10180 ;; Tracked objects:
 10181 ;;		On entry : 0/0
 10182 ;;		On exit  : 0/0
 10183 ;;		Unchanged: 0/0
 10184 ;; Data sizes:     COMMON   BANK0   BANK1   BANK3   BANK2
 10185 ;;      Params:         0       0       0       0       0
 10186 ;;      Locals:         0       0       0       0       0
 10187 ;;      Temps:          0       0       0       0       0
 10188 ;;      Totals:         0       0       0       0       0
 10189 ;;Total ram usage:        0 bytes
 10190 ;; Hardware stack levels used: 1
 10191 ;; Hardware stack levels required when called: 2
 10192 ;; This function calls:
 10193 ;;		_i2c_wait_for_idle
 10194 ;; This function is called by:
 10195 ;;		_read_ds1307
 10196 ;;		_write_ds1307
 10197 ;;		_i2c_rep_start
 10198 ;;		_read_ext_eeprom
 10199 ;;		_write_ext_eeprom
 10200 ;; This function uses a non-reentrant model
 10201 ;;
 10202                           
 10203     1EE4                     _i2c_start:	
 10204                           ;psect for function _i2c_start
 10205                           
 10206     1EE4                     l4083:	
 10207                           ;incstack = 0
 10208                           ; Regs used in _i2c_start: [wreg+status,2+status,0+pclath+cstack]
 10209                           
 10210                           
 10211                           ;i2c.c: 18:     i2c_wait_for_idle();
 10212     1EE4  160A  158A  2720  160A  158A  	fcall	_i2c_wait_for_idle
 10213     1EE9                     l4085:
 10214                           
 10215                           ;i2c.c: 19:     SEN = 1;
 10216     1EE9  1683               	bsf	3,5	;RP0=1, select bank1
 10217     1EEA  1303               	bcf	3,6	;RP1=0, select bank1
 10218     1EEB  1411               	bsf	17,0	;volatile
 10219     1EEC                     l103:
 10220     1EEC  0008               	return
 10221     1EED                     __end_of_i2c_start:
 10222                           
 10223                           	psect	text40
 10224     1F20                     __ptext40:	
 10225 ;; *************** function _i2c_wait_for_idle *****************
 10226 ;; Defined at:
 10227 ;;		line 12 in file "i2c.c"
 10228 ;; Parameters:    Size  Location     Type
 10229 ;;		None
 10230 ;; Auto vars:     Size  Location     Type
 10231 ;;		None
 10232 ;; Return value:  Size  Location     Type
 10233 ;;                  1    wreg      void 
 10234 ;; Registers used:
 10235 ;;		wreg, status,2
 10236 ;; Tracked objects:
 10237 ;;		On entry : 0/0
 10238 ;;		On exit  : 0/0
 10239 ;;		Unchanged: 0/0
 10240 ;; Data sizes:     COMMON   BANK0   BANK1   BANK3   BANK2
 10241 ;;      Params:         0       0       0       0       0
 10242 ;;      Locals:         0       0       0       0       0
 10243 ;;      Temps:          0       0       0       0       0
 10244 ;;      Totals:         0       0       0       0       0
 10245 ;;Total ram usage:        0 bytes
 10246 ;; Hardware stack levels used: 1
 10247 ;; Hardware stack levels required when called: 1
 10248 ;; This function calls:
 10249 ;;		Nothing
 10250 ;; This function is called by:
 10251 ;;		_i2c_start
 10252 ;;		_i2c_stop
 10253 ;;		_i2c_read
 10254 ;;		_i2c_write
 10255 ;; This function uses a non-reentrant model
 10256 ;;
 10257                           
 10258     1F20                     _i2c_wait_for_idle:	
 10259                           ;psect for function _i2c_wait_for_idle
 10260                           
 10261     1F20                     l4079:	
 10262                           ;incstack = 0
 10263                           ; Regs used in _i2c_wait_for_idle: [wreg+status,2]
 10264                           
 10265     1F20                     l97:	
 10266                           ;i2c.c: 14:     while(R_nW || (SSPCON2 & 0x1F));
 10267                           
 10268     1F20  1683               	bsf	3,5	;RP0=1, select bank1
 10269     1F21  1303               	bcf	3,6	;RP1=0, select bank1
 10270     1F22  1914               	btfsc	20,2	;volatile
 10271     1F23  2F25               	goto	u4521
 10272     1F24  2F26               	goto	u4520
 10273     1F25                     u4521:
 10274     1F25  2F20               	goto	l97
 10275     1F26                     u4520:
 10276     1F26                     l4081:
 10277     1F26  0811               	movf	17,w	;volatile
 10278     1F27  391F               	andlw	31
 10279     1F28  1D03               	btfss	3,2
 10280     1F29  2F2B               	goto	u4531
 10281     1F2A  2F2C               	goto	u4530
 10282     1F2B                     u4531:
 10283     1F2B  2F20               	goto	l97
 10284     1F2C                     u4530:
 10285     1F2C                     l100:
 10286     1F2C  0008               	return
 10287     1F2D                     __end_of_i2c_wait_for_idle:
 10288                           
 10289                           	psect	text41
 10290     1F8D                     __ptext41:	
 10291 ;; *************** function _strcpy *****************
 10292 ;; Defined at:
 10293 ;;		line 3 in file "C:\Program Files\Microchip\xc8\v2.46\pic\sources\c99\common\strcpy.c"
 10294 ;; Parameters:    Size  Location     Type
 10295 ;;  dest            1    wreg     PTR unsigned char 
 10296 ;;		 -> pass(5), 
 10297 ;;  src             1    2[COMMON] PTR const unsigned char 
 10298 ;;		 -> change_pass@new_pass(5), 
 10299 ;; Auto vars:     Size  Location     Type
 10300 ;;  dest            1    4[COMMON] PTR unsigned char 
 10301 ;;		 -> pass(5), 
 10302 ;;  d               1    3[COMMON] PTR unsigned char 
 10303 ;;		 -> pass(5), 
 10304 ;; Return value:  Size  Location     Type
 10305 ;;                  1    wreg      PTR unsigned char 
 10306 ;; Registers used:
 10307 ;;		wreg, fsr0l, fsr0h, status,2, status,0, btemp+1
 10308 ;; Tracked objects:
 10309 ;;		On entry : 0/0
 10310 ;;		On exit  : 0/0
 10311 ;;		Unchanged: 0/0
 10312 ;; Data sizes:     COMMON   BANK0   BANK1   BANK3   BANK2
 10313 ;;      Params:         1       0       0       0       0
 10314 ;;      Locals:         2       0       0       0       0
 10315 ;;      Temps:          0       0       0       0       0
 10316 ;;      Totals:         3       0       0       0       0
 10317 ;;Total ram usage:        3 bytes
 10318 ;; Hardware stack levels used: 1
 10319 ;; Hardware stack levels required when called: 1
 10320 ;; This function calls:
 10321 ;;		Nothing
 10322 ;; This function is called by:
 10323 ;;		_change_pass
 10324 ;; This function uses a non-reentrant model
 10325 ;;
 10326                           
 10327     1F8D                     _strcpy:	
 10328                           ;psect for function _strcpy
 10329                           
 10330                           
 10331                           ;incstack = 0
 10332                           ; Regs used in _strcpy: [wreg-fsr0h+status,2+status,0+btemp+1]
 10333                           ;strcpy@dest stored from wreg
 10334     1F8D  00F4               	movwf	strcpy@dest
 10335     1F8E                     l4319:
 10336     1F8E  0874               	movf	strcpy@dest,w
 10337     1F8F  00F3               	movwf	strcpy@d
 10338     1F90                     l4321:
 10339     1F90  0872               	movf	strcpy@src,w
 10340     1F91  0084               	movwf	4
 10341     1F92  3001               	movlw	1
 10342     1F93  07F2               	addwf	strcpy@src,f
 10343     1F94  1383               	bcf	3,7	;select IRP bank0
 10344     1F95  0800               	movf	0,w
 10345     1F96  00FF               	movwf	btemp+1
 10346     1F97  0873               	movf	strcpy@d,w
 10347     1F98  0084               	movwf	4
 10348     1F99  3001               	movlw	1
 10349     1F9A  07F3               	addwf	strcpy@d,f
 10350     1F9B  087F               	movf	btemp+1,w
 10351     1F9C  0080               	movwf	0
 10352     1F9D  0800               	movf	0,w
 10353     1F9E  1D03               	btfss	3,2
 10354     1F9F  2FA1               	goto	u4781
 10355     1FA0  2FA2               	goto	u4780
 10356     1FA1                     u4781:
 10357     1FA1  2F90               	goto	l4321
 10358     1FA2                     u4780:
 10359     1FA2                     l1147:
 10360     1FA2  0008               	return
 10361     1FA3                     __end_of_strcpy:
 10362                           
 10363                           	psect	text42
 10364     1542                     __ptext42:	
 10365 ;; *************** function _handle_lockout *****************
 10366 ;; Defined at:
 10367 ;;		line 51 in file "main.c"
 10368 ;; Parameters:    Size  Location     Type
 10369 ;;		None
 10370 ;; Auto vars:     Size  Location     Type
 10371 ;;  ones            1    6[BANK0 ] unsigned char 
 10372 ;;  tens            1    5[BANK0 ] unsigned char 
 10373 ;;  hundreds        1    4[BANK0 ] unsigned char 
 10374 ;; Return value:  Size  Location     Type
 10375 ;;                  1    wreg      void 
 10376 ;; Registers used:
 10377 ;;		wreg, fsr0l, fsr0h, status,2, status,0, btemp+1, pclath, cstack
 10378 ;; Tracked objects:
 10379 ;;		On entry : 0/0
 10380 ;;		On exit  : 0/0
 10381 ;;		Unchanged: 0/0
 10382 ;; Data sizes:     COMMON   BANK0   BANK1   BANK3   BANK2
 10383 ;;      Params:         0       0       0       0       0
 10384 ;;      Locals:         0       3       0       0       0
 10385 ;;      Temps:          0       0       0       0       0
 10386 ;;      Totals:         0       3       0       0       0
 10387 ;;Total ram usage:        3 bytes
 10388 ;; Hardware stack levels used: 1
 10389 ;; Hardware stack levels required when called: 3
 10390 ;; This function calls:
 10391 ;;		___lwdiv
 10392 ;;		___lwmod
 10393 ;;		_clcd_print
 10394 ;;		_clcd_putch
 10395 ;;		_clcd_write
 10396 ;; This function is called by:
 10397 ;;		_main
 10398 ;; This function uses a non-reentrant model
 10399 ;;
 10400                           
 10401     1542                     _handle_lockout:	
 10402                           ;psect for function _handle_lockout
 10403                           
 10404     1542                     l5257:	
 10405                           ;incstack = 0
 10406                           ; Regs used in _handle_lockout: [wreg-fsr0h+status,2+status,0+btemp+1+pclath+cstack]
 10407                           
 10408                           
 10409                           ;main.c: 53:         clcd_print("sec...", (0xC0 + 8));;main.c: 55: 
 10410     1542  168B               	bsf	11,5	;volatile
 10411     1543                     l5259:
 10412                           
 10413                           ;main.c: 56:     block = 0;
 10414     1543  01F2               	clrf	clcd_write@mode
 10415     1544  3001               	movlw	1
 10416     1545  160A  158A  27E0  160A  118A  	fcall	_clcd_write
 10417                           
 10418                           ;main.c: 57:     TMR0IE = 0;
 10419     154A  2DC4               	goto	l5277
 10420     154B                     l5261:
 10421                           
 10422                           ;main.c: 58: };main.c: 59: 
 10423     154B  3094               	movlw	low (STR_10| (0+32768))
 10424     154C  00F6               	movwf	clcd_print@str
 10425     154D  3087               	movlw	high (STR_10| (0+32768))
 10426     154E  00F7               	movwf	clcd_print@str+1
 10427     154F  3084               	movlw	132
 10428     1550  00F8               	movwf	clcd_print@addr
 10429     1551  160A  118A  2187  160A  118A  	fcall	_clcd_print
 10430     1556                     l5263:
 10431                           
 10432                           ;main.c: 62:     init_config();
 10433     1556  3064               	movlw	100
 10434     1557  00F2               	movwf	___lwdiv@divisor
 10435     1558  3000               	movlw	0
 10436     1559  00F3               	movwf	___lwdiv@divisor+1
 10437     155A  1283               	bcf	3,5	;RP0=0, select bank0
 10438     155B  1303               	bcf	3,6	;RP1=0, select bank0
 10439     155C  0866               	movf	_block+1,w
 10440     155D  00F5               	movwf	___lwdiv@dividend+1
 10441     155E  0865               	movf	_block,w
 10442     155F  00F4               	movwf	___lwdiv@dividend
 10443     1560  160A  118A  22A0  160A  118A  	fcall	___lwdiv
 10444     1565  0872               	movf	?___lwdiv,w
 10445     1566  1283               	bcf	3,5	;RP0=0, select bank0
 10446     1567  1303               	bcf	3,6	;RP1=0, select bank0
 10447     1568  00A4               	movwf	handle_lockout@hundreds
 10448     1569                     l5265:
 10449                           
 10450                           ;main.c: 63: 
 10451     1569  300A               	movlw	10
 10452     156A  00A0               	movwf	___lwmod@divisor
 10453     156B  3000               	movlw	0
 10454     156C  00A1               	movwf	___lwmod@divisor+1
 10455     156D  300A               	movlw	10
 10456     156E  00F2               	movwf	___lwdiv@divisor
 10457     156F  3000               	movlw	0
 10458     1570  00F3               	movwf	___lwdiv@divisor+1
 10459     1571  0866               	movf	_block+1,w
 10460     1572  00F5               	movwf	___lwdiv@dividend+1
 10461     1573  0865               	movf	_block,w
 10462     1574  00F4               	movwf	___lwdiv@dividend
 10463     1575  160A  118A  22A0  160A  118A  	fcall	___lwdiv
 10464     157A  0873               	movf	?___lwdiv+1,w
 10465     157B  1283               	bcf	3,5	;RP0=0, select bank0
 10466     157C  1303               	bcf	3,6	;RP1=0, select bank0
 10467     157D  00A3               	movwf	___lwmod@dividend+1
 10468     157E  0872               	movf	?___lwdiv,w
 10469     157F  00A2               	movwf	___lwmod@dividend
 10470     1580  160A  118A  2221  160A  118A  	fcall	___lwmod
 10471     1585  1283               	bcf	3,5	;RP0=0, select bank0
 10472     1586  1303               	bcf	3,6	;RP1=0, select bank0
 10473     1587  0820               	movf	?___lwmod,w
 10474     1588  00A5               	movwf	handle_lockout@tens
 10475     1589                     l5267:
 10476                           
 10477                           ;main.c: 64:     unsigned int attempt = 3;
 10478     1589  300A               	movlw	10
 10479     158A  00A0               	movwf	___lwmod@divisor
 10480     158B  3000               	movlw	0
 10481     158C  00A1               	movwf	___lwmod@divisor+1
 10482     158D  0866               	movf	_block+1,w
 10483     158E  00A3               	movwf	___lwmod@dividend+1
 10484     158F  0865               	movf	_block,w
 10485     1590  00A2               	movwf	___lwmod@dividend
 10486     1591  160A  118A  2221  160A  118A  	fcall	___lwmod
 10487     1596  1283               	bcf	3,5	;RP0=0, select bank0
 10488     1597  1303               	bcf	3,6	;RP1=0, select bank0
 10489     1598  0820               	movf	?___lwmod,w
 10490     1599  00A6               	movwf	handle_lockout@ones
 10491     159A                     l5269:
 10492                           
 10493                           ;main.c: 67:     for (int i = 0; i < 4; i++)
 10494     159A  30C4               	movlw	196
 10495     159B  00A0               	movwf	clcd_putch@addr
 10496     159C  0824               	movf	handle_lockout@hundreds,w
 10497     159D  3E30               	addlw	48
 10498     159E  160A  158A  2763  160A  118A  	fcall	_clcd_putch
 10499     15A3                     l5271:
 10500                           
 10501                           ;main.c: 68:     {
 10502     15A3  30C5               	movlw	197
 10503     15A4  1283               	bcf	3,5	;RP0=0, select bank0
 10504     15A5  1303               	bcf	3,6	;RP1=0, select bank0
 10505     15A6  00A0               	movwf	clcd_putch@addr
 10506     15A7  0825               	movf	handle_lockout@tens,w
 10507     15A8  3E30               	addlw	48
 10508     15A9  160A  158A  2763  160A  118A  	fcall	_clcd_putch
 10509     15AE                     l5273:
 10510                           
 10511                           ;main.c: 69:         pass[i] = read_ext_eeprom(125 + i);
 10512     15AE  30C6               	movlw	198
 10513     15AF  1283               	bcf	3,5	;RP0=0, select bank0
 10514     15B0  1303               	bcf	3,6	;RP1=0, select bank0
 10515     15B1  00A0               	movwf	clcd_putch@addr
 10516     15B2  0826               	movf	handle_lockout@ones,w
 10517     15B3  3E30               	addlw	48
 10518     15B4  160A  158A  2763  160A  118A  	fcall	_clcd_putch
 10519     15B9                     l5275:
 10520                           
 10521                           ;main.c: 70:     }
 10522     15B9  30AD               	movlw	low (STR_11| (0+32768))
 10523     15BA  00F6               	movwf	clcd_print@str
 10524     15BB  3087               	movlw	high (STR_11| (0+32768))
 10525     15BC  00F7               	movwf	clcd_print@str+1
 10526     15BD  30C8               	movlw	200
 10527     15BE  00F8               	movwf	clcd_print@addr
 10528     15BF  160A  118A  2187  160A  118A  	fcall	_clcd_print
 10529     15C4                     l5277:
 10530                           
 10531                           ;main.c: 57:     TMR0IE = 0;
 10532     15C4  3000               	movlw	0
 10533     15C5  1283               	bcf	3,5	;RP0=0, select bank0
 10534     15C6  1303               	bcf	3,6	;RP1=0, select bank0
 10535     15C7  0266               	subwf	_block+1,w
 10536     15C8  3078               	movlw	120
 10537     15C9  1903               	skipnz
 10538     15CA  0265               	subwf	_block,w
 10539     15CB  1C03               	skipc
 10540     15CC  2DCE               	goto	u6411
 10541     15CD  2DCF               	goto	u6410
 10542     15CE                     u6411:
 10543     15CE  2D4B               	goto	l5261
 10544     15CF                     u6410:
 10545     15CF                     l5279:
 10546                           
 10547                           ;main.c: 73:     while (1)
 10548     15CF  01E5               	clrf	_block
 10549     15D0  01E6               	clrf	_block+1
 10550     15D1                     l5281:
 10551                           
 10552                           ;main.c: 74:     {
 10553     15D1  128B               	bcf	11,5	;volatile
 10554     15D2                     l192:
 10555     15D2  0008               	return
 10556     15D3                     __end_of_handle_lockout:
 10557                           
 10558                           	psect	text43
 10559     1221                     __ptext43:	
 10560 ;; *************** function ___lwmod *****************
 10561 ;; Defined at:
 10562 ;;		line 5 in file "C:\Program Files\Microchip\xc8\v2.46\pic\sources\c99\common\lwmod.c"
 10563 ;; Parameters:    Size  Location     Type
 10564 ;;  divisor         2    0[BANK0 ] unsigned int 
 10565 ;;  dividend        2    2[BANK0 ] unsigned int 
 10566 ;; Auto vars:     Size  Location     Type
 10567 ;;  counter         1    9[COMMON] unsigned char 
 10568 ;; Return value:  Size  Location     Type
 10569 ;;                  2    0[BANK0 ] unsigned int 
 10570 ;; Registers used:
 10571 ;;		wreg, status,2, status,0, btemp+1
 10572 ;; Tracked objects:
 10573 ;;		On entry : 0/0
 10574 ;;		On exit  : 0/0
 10575 ;;		Unchanged: 0/0
 10576 ;; Data sizes:     COMMON   BANK0   BANK1   BANK3   BANK2
 10577 ;;      Params:         0       4       0       0       0
 10578 ;;      Locals:         1       0       0       0       0
 10579 ;;      Temps:          0       0       0       0       0
 10580 ;;      Totals:         1       4       0       0       0
 10581 ;;Total ram usage:        5 bytes
 10582 ;; Hardware stack levels used: 1
 10583 ;; Hardware stack levels required when called: 1
 10584 ;; This function calls:
 10585 ;;		Nothing
 10586 ;; This function is called by:
 10587 ;;		_handle_lockout
 10588 ;;		_update_dashboard_display
 10589 ;; This function uses a non-reentrant model
 10590 ;;
 10591                           
 10592     1221                     ___lwmod:	
 10593                           ;psect for function ___lwmod
 10594                           
 10595     1221                     l5021:	
 10596                           ;incstack = 0
 10597                           ; Regs used in ___lwmod: [wreg+status,2+status,0+btemp+1]
 10598                           
 10599     1221  1283               	bcf	3,5	;RP0=0, select bank0
 10600     1222  1303               	bcf	3,6	;RP1=0, select bank0
 10601     1223  0820               	movf	___lwmod@divisor,w
 10602     1224  0421               	iorwf	___lwmod@divisor+1,w
 10603     1225  1903               	btfsc	3,2
 10604     1226  2A28               	goto	u5921
 10605     1227  2A29               	goto	u5920
 10606     1228                     u5921:
 10607     1228  2A58               	goto	l5039
 10608     1229                     u5920:
 10609     1229                     l5023:
 10610     1229  01F9               	clrf	___lwmod@counter
 10611     122A  0AF9               	incf	___lwmod@counter,f
 10612     122B  2A37               	goto	l5029
 10613     122C                     l5025:
 10614     122C  3001               	movlw	1
 10615     122D                     u5935:
 10616     122D  1003               	clrc
 10617     122E  0DA0               	rlf	___lwmod@divisor,f
 10618     122F  0DA1               	rlf	___lwmod@divisor+1,f
 10619     1230  3EFF               	addlw	-1
 10620     1231  1D03               	skipz
 10621     1232  2A2D               	goto	u5935
 10622     1233                     l5027:
 10623     1233  3001               	movlw	1
 10624     1234  00FF               	movwf	btemp+1
 10625     1235  087F               	movf	btemp+1,w
 10626     1236  07F9               	addwf	___lwmod@counter,f
 10627     1237                     l5029:
 10628     1237  1FA1               	btfss	___lwmod@divisor+1,7
 10629     1238  2A3A               	goto	u5941
 10630     1239  2A3B               	goto	u5940
 10631     123A                     u5941:
 10632     123A  2A2C               	goto	l5025
 10633     123B                     u5940:
 10634     123B                     l5031:
 10635     123B  0821               	movf	___lwmod@divisor+1,w
 10636     123C  0223               	subwf	___lwmod@dividend+1,w
 10637     123D  1D03               	skipz
 10638     123E  2A41               	goto	u5955
 10639     123F  0820               	movf	___lwmod@divisor,w
 10640     1240  0222               	subwf	___lwmod@dividend,w
 10641     1241                     u5955:
 10642     1241  1C03               	skipc
 10643     1242  2A44               	goto	u5951
 10644     1243  2A45               	goto	u5950
 10645     1244                     u5951:
 10646     1244  2A4B               	goto	l5035
 10647     1245                     u5950:
 10648     1245                     l5033:
 10649     1245  0820               	movf	___lwmod@divisor,w
 10650     1246  02A2               	subwf	___lwmod@dividend,f
 10651     1247  0821               	movf	___lwmod@divisor+1,w
 10652     1248  1C03               	skipc
 10653     1249  03A3               	decf	___lwmod@dividend+1,f
 10654     124A  02A3               	subwf	___lwmod@dividend+1,f
 10655     124B                     l5035:
 10656     124B  3001               	movlw	1
 10657     124C                     u5965:
 10658     124C  1003               	clrc
 10659     124D  0CA1               	rrf	___lwmod@divisor+1,f
 10660     124E  0CA0               	rrf	___lwmod@divisor,f
 10661     124F  3EFF               	addlw	-1
 10662     1250  1D03               	skipz
 10663     1251  2A4C               	goto	u5965
 10664     1252                     l5037:
 10665     1252  3001               	movlw	1
 10666     1253  02F9               	subwf	___lwmod@counter,f
 10667     1254  1D03               	btfss	3,2
 10668     1255  2A57               	goto	u5971
 10669     1256  2A58               	goto	u5970
 10670     1257                     u5971:
 10671     1257  2A3B               	goto	l5031
 10672     1258                     u5970:
 10673     1258                     l5039:
 10674     1258  0823               	movf	___lwmod@dividend+1,w
 10675     1259  00A1               	movwf	?___lwmod+1
 10676     125A  0822               	movf	___lwmod@dividend,w
 10677     125B  00A0               	movwf	?___lwmod
 10678     125C                     l967:
 10679     125C  0008               	return
 10680     125D                     __end_of___lwmod:
 10681                           
 10682                           	psect	text44
 10683     12A0                     __ptext44:	
 10684 ;; *************** function ___lwdiv *****************
 10685 ;; Defined at:
 10686 ;;		line 5 in file "C:\Program Files\Microchip\xc8\v2.46\pic\sources\c99\common\lwdiv.c"
 10687 ;; Parameters:    Size  Location     Type
 10688 ;;  divisor         2    2[COMMON] unsigned int 
 10689 ;;  dividend        2    4[COMMON] unsigned int 
 10690 ;; Auto vars:     Size  Location     Type
 10691 ;;  quotient        2    7[COMMON] unsigned int 
 10692 ;;  counter         1    6[COMMON] unsigned char 
 10693 ;; Return value:  Size  Location     Type
 10694 ;;                  2    2[COMMON] unsigned int 
 10695 ;; Registers used:
 10696 ;;		wreg, status,2, status,0, btemp+1
 10697 ;; Tracked objects:
 10698 ;;		On entry : 0/0
 10699 ;;		On exit  : 0/0
 10700 ;;		Unchanged: 0/0
 10701 ;; Data sizes:     COMMON   BANK0   BANK1   BANK3   BANK2
 10702 ;;      Params:         4       0       0       0       0
 10703 ;;      Locals:         3       0       0       0       0
 10704 ;;      Temps:          0       0       0       0       0
 10705 ;;      Totals:         7       0       0       0       0
 10706 ;;Total ram usage:        7 bytes
 10707 ;; Hardware stack levels used: 1
 10708 ;; Hardware stack levels required when called: 1
 10709 ;; This function calls:
 10710 ;;		Nothing
 10711 ;; This function is called by:
 10712 ;;		_handle_lockout
 10713 ;;		_update_dashboard_display
 10714 ;; This function uses a non-reentrant model
 10715 ;;
 10716                           
 10717     12A0                     ___lwdiv:	
 10718                           ;psect for function ___lwdiv
 10719                           
 10720     12A0                     l4995:	
 10721                           ;incstack = 0
 10722                           ; Regs used in ___lwdiv: [wreg+status,2+status,0+btemp+1]
 10723                           
 10724     12A0  01F7               	clrf	___lwdiv@quotient
 10725     12A1  01F8               	clrf	___lwdiv@quotient+1
 10726     12A2                     l4997:
 10727     12A2  0872               	movf	___lwdiv@divisor,w
 10728     12A3  0473               	iorwf	___lwdiv@divisor+1,w
 10729     12A4  1903               	btfsc	3,2
 10730     12A5  2AA7               	goto	u5851
 10731     12A6  2AA8               	goto	u5850
 10732     12A7                     u5851:
 10733     12A7  2ADF               	goto	l5017
 10734     12A8                     u5850:
 10735     12A8                     l4999:
 10736     12A8  01F6               	clrf	___lwdiv@counter
 10737     12A9  0AF6               	incf	___lwdiv@counter,f
 10738     12AA  2AB6               	goto	l5005
 10739     12AB                     l5001:
 10740     12AB  3001               	movlw	1
 10741     12AC                     u5865:
 10742     12AC  1003               	clrc
 10743     12AD  0DF2               	rlf	___lwdiv@divisor,f
 10744     12AE  0DF3               	rlf	___lwdiv@divisor+1,f
 10745     12AF  3EFF               	addlw	-1
 10746     12B0  1D03               	skipz
 10747     12B1  2AAC               	goto	u5865
 10748     12B2                     l5003:
 10749     12B2  3001               	movlw	1
 10750     12B3  00FF               	movwf	btemp+1
 10751     12B4  087F               	movf	btemp+1,w
 10752     12B5  07F6               	addwf	___lwdiv@counter,f
 10753     12B6                     l5005:
 10754     12B6  1FF3               	btfss	___lwdiv@divisor+1,7
 10755     12B7  2AB9               	goto	u5871
 10756     12B8  2ABA               	goto	u5870
 10757     12B9                     u5871:
 10758     12B9  2AAB               	goto	l5001
 10759     12BA                     u5870:
 10760     12BA                     l5007:
 10761     12BA  3001               	movlw	1
 10762     12BB                     u5885:
 10763     12BB  1003               	clrc
 10764     12BC  0DF7               	rlf	___lwdiv@quotient,f
 10765     12BD  0DF8               	rlf	___lwdiv@quotient+1,f
 10766     12BE  3EFF               	addlw	-1
 10767     12BF  1D03               	skipz
 10768     12C0  2ABB               	goto	u5885
 10769     12C1  0873               	movf	___lwdiv@divisor+1,w
 10770     12C2  0275               	subwf	___lwdiv@dividend+1,w
 10771     12C3  1D03               	skipz
 10772     12C4  2AC7               	goto	u5895
 10773     12C5  0872               	movf	___lwdiv@divisor,w
 10774     12C6  0274               	subwf	___lwdiv@dividend,w
 10775     12C7                     u5895:
 10776     12C7  1C03               	skipc
 10777     12C8  2ACA               	goto	u5891
 10778     12C9  2ACB               	goto	u5890
 10779     12CA                     u5891:
 10780     12CA  2AD2               	goto	l5013
 10781     12CB                     u5890:
 10782     12CB                     l5009:
 10783     12CB  0872               	movf	___lwdiv@divisor,w
 10784     12CC  02F4               	subwf	___lwdiv@dividend,f
 10785     12CD  0873               	movf	___lwdiv@divisor+1,w
 10786     12CE  1C03               	skipc
 10787     12CF  03F5               	decf	___lwdiv@dividend+1,f
 10788     12D0  02F5               	subwf	___lwdiv@dividend+1,f
 10789     12D1                     l5011:
 10790     12D1  1477               	bsf	___lwdiv@quotient,0
 10791     12D2                     l5013:
 10792     12D2  3001               	movlw	1
 10793     12D3                     u5905:
 10794     12D3  1003               	clrc
 10795     12D4  0CF3               	rrf	___lwdiv@divisor+1,f
 10796     12D5  0CF2               	rrf	___lwdiv@divisor,f
 10797     12D6  3EFF               	addlw	-1
 10798     12D7  1D03               	skipz
 10799     12D8  2AD3               	goto	u5905
 10800     12D9                     l5015:
 10801     12D9  3001               	movlw	1
 10802     12DA  02F6               	subwf	___lwdiv@counter,f
 10803     12DB  1D03               	btfss	3,2
 10804     12DC  2ADE               	goto	u5911
 10805     12DD  2ADF               	goto	u5910
 10806     12DE                     u5911:
 10807     12DE  2ABA               	goto	l5007
 10808     12DF                     u5910:
 10809     12DF                     l5017:
 10810     12DF  0878               	movf	___lwdiv@quotient+1,w
 10811     12E0  00F3               	movwf	?___lwdiv+1
 10812     12E1  0877               	movf	___lwdiv@quotient,w
 10813     12E2  00F2               	movwf	?___lwdiv
 10814     12E3                     l957:
 10815     12E3  0008               	return
 10816     12E4                     __end_of___lwdiv:
 10817                           
 10818                           	psect	text45
 10819     0915                     __ptext45:	
 10820 ;; *************** function _enter_password *****************
 10821 ;; Defined at:
 10822 ;;		line 460 in file "function.c"
 10823 ;; Parameters:    Size  Location     Type
 10824 ;;  pass            1    wreg     PTR unsigned char 
 10825 ;;		 -> pass(5), 
 10826 ;;  attempt         1    2[BANK0 ] PTR unsigned int 
 10827 ;;		 -> main@attempt(2), 
 10828 ;; Auto vars:     Size  Location     Type
 10829 ;;  pass            1   12[BANK0 ] PTR unsigned char 
 10830 ;;		 -> pass(5), 
 10831 ;;  usr_pass        5    7[BANK0 ] unsigned char [5]
 10832 ;;  pos             2   17[BANK0 ] unsigned int 
 10833 ;;  i               2   13[BANK0 ] unsigned int 
 10834 ;;  key             1   19[BANK0 ] unsigned char 
 10835 ;; Return value:  Size  Location     Type
 10836 ;;                  2    2[BANK0 ] int 
 10837 ;; Registers used:
 10838 ;;		wreg, fsr0l, fsr0h, status,2, status,0, btemp+1, pclath, cstack
 10839 ;; Tracked objects:
 10840 ;;		On entry : 0/0
 10841 ;;		On exit  : 0/0
 10842 ;;		Unchanged: 0/0
 10843 ;; Data sizes:     COMMON   BANK0   BANK1   BANK3   BANK2
 10844 ;;      Params:         0       2       0       0       0
 10845 ;;      Locals:         0      13       0       0       0
 10846 ;;      Temps:          0       3       0       0       0
 10847 ;;      Totals:         0      18       0       0       0
 10848 ;;Total ram usage:       18 bytes
 10849 ;; Hardware stack levels used: 1
 10850 ;; Hardware stack levels required when called: 3
 10851 ;; This function calls:
 10852 ;;		_clcd_print
 10853 ;;		_clcd_putch
 10854 ;;		_clcd_write
 10855 ;;		_detect_single_press
 10856 ;;		_strcmp
 10857 ;; This function is called by:
 10858 ;;		_main
 10859 ;; This function uses a non-reentrant model
 10860 ;;
 10861                           
 10862     0915                     _enter_password:	
 10863                           ;psect for function _enter_password
 10864                           
 10865                           
 10866                           ;incstack = 0
 10867                           ; Regs used in _enter_password: [wreg-fsr0h+status,2+status,0+btemp+1+pclath+cstack]
 10868                           ;enter_password@pass stored from wreg
 10869     0915  1283               	bcf	3,5	;RP0=0, select bank0
 10870     0916  1303               	bcf	3,6	;RP1=0, select bank0
 10871     0917  00AC               	movwf	enter_password@pass
 10872     0918                     l5301:
 10873                           
 10874                           ;function.c: 461:     unsigned char usr_pass[5] = {0};
 10875     0918  3027               	movlw	enter_password@usr_pass& (0+255)
 10876     0919  0084               	movwf	4
 10877     091A  3005               	movlw	5
 10878     091B  00FF               	movwf	btemp+1
 10879     091C                     u6420:
 10880     091C  1383               	bcf	3,7	;select IRP bank0
 10881     091D  0180               	clrf	0
 10882     091E  0A84               	incf	4,f
 10883     091F  0BFF               	decfsz	btemp+1,f
 10884     0920  291C               	goto	u6420
 10885     0921                     l5303:
 10886                           
 10887                           ;function.c: 462:     unsigned int pos = 0;
 10888     0921  01B1               	clrf	enter_password@pos
 10889     0922  01B2               	clrf	enter_password@pos+1
 10890     0923                     l5305:
 10891                           
 10892                           ;function.c: 463:     unsigned int i = 5;
 10893     0923  3005               	movlw	5
 10894     0924  00AD               	movwf	enter_password@i
 10895     0925  3000               	movlw	0
 10896     0926  00AE               	movwf	enter_password@i+1
 10897     0927                     l5307:
 10898                           
 10899                           ;function.c: 464:     unsigned char key;;function.c: 466:     clcd_print(" Enter Passwor
      +                          d ", (0x80 + 0));
 10900     0927  304A               	movlw	low (STR_30| (0+32768))
 10901     0928  00F6               	movwf	clcd_print@str
 10902     0929  3086               	movlw	high (STR_30| (0+32768))
 10903     092A  00F7               	movwf	clcd_print@str+1
 10904     092B  3080               	movlw	128
 10905     092C  00F8               	movwf	clcd_print@addr
 10906     092D  160A  118A  2187  120A  158A  	fcall	_clcd_print
 10907     0932                     l5309:
 10908                           
 10909                           ;function.c: 467:     clcd_print("                ", (0xC0 + 0));
 10910     0932  3039               	movlw	low (STR_31| (0+32768))
 10911     0933  00F6               	movwf	clcd_print@str
 10912     0934  3086               	movlw	high (STR_31| (0+32768))
 10913     0935  00F7               	movwf	clcd_print@str+1
 10914     0936  30C0               	movlw	192
 10915     0937  00F8               	movwf	clcd_print@addr
 10916     0938  160A  118A  2187  120A  158A  	fcall	_clcd_print
 10917                           
 10918                           ;function.c: 470:     while (pos < 4) {
 10919     093D  2987               	goto	l5333
 10920     093E                     l5311:
 10921                           
 10922                           ;function.c: 471:         key = detect_single_press();
 10923     093E  160A  118A  2086  120A  158A  	fcall	_detect_single_press
 10924     0943  1283               	bcf	3,5	;RP0=0, select bank0
 10925     0944  1303               	bcf	3,6	;RP1=0, select bank0
 10926     0945  00B3               	movwf	enter_password@key
 10927     0946                     l5313:
 10928                           
 10929                           ;function.c: 472:         _delay((unsigned long)((50)*(20000000/4000000.0)));
 10930     0946  3052               	movlw	82
 10931     0947  1283               	bcf	3,5	;RP0=0, select bank0
 10932     0948  1303               	bcf	3,6	;RP1=0, select bank0
 10933     0949  00A4               	movwf	??_enter_password
 10934     094A                     u6917:
 10935     094A  0BA4               	decfsz	??_enter_password,f
 10936     094B  294A               	goto	u6917
 10937     094C  0000               	nop
 10938     094D                     l5315:
 10939                           
 10940                           ;function.c: 473:         if (key == 0x2F || key == 0x1F) {
 10941     094D  302F               	movlw	47
 10942     094E  1283               	bcf	3,5	;RP0=0, select bank0
 10943     094F  1303               	bcf	3,6	;RP1=0, select bank0
 10944     0950  0633               	xorwf	enter_password@key,w
 10945     0951  1903               	btfsc	3,2
 10946     0952  2954               	goto	u6431
 10947     0953  2955               	goto	u6430
 10948     0954                     u6431:
 10949     0954  295B               	goto	l5319
 10950     0955                     u6430:
 10951     0955                     l5317:
 10952     0955  301F               	movlw	31
 10953     0956  0633               	xorwf	enter_password@key,w
 10954     0957  1D03               	btfss	3,2
 10955     0958  295A               	goto	u6441
 10956     0959  295B               	goto	u6440
 10957     095A                     u6441:
 10958     095A  2987               	goto	l5333
 10959     095B                     u6440:
 10960     095B                     l5319:
 10961                           
 10962                           ;function.c: 474:             usr_pass[pos] = (key == 0x2F) ? '1' : '0';
 10963     095B  302F               	movlw	47
 10964     095C  0633               	xorwf	enter_password@key,w
 10965     095D  1903               	btfsc	3,2
 10966     095E  2960               	goto	u6451
 10967     095F  2961               	goto	u6450
 10968     0960                     u6451:
 10969     0960  2966               	goto	l5323
 10970     0961                     u6450:
 10971     0961                     l5321:
 10972     0961  3030               	movlw	48
 10973     0962  00AF               	movwf	_enter_password$456
 10974     0963  3000               	movlw	0
 10975     0964  00B0               	movwf	_enter_password$456+1
 10976     0965  296A               	goto	l5325
 10977     0966                     l5323:
 10978     0966  3031               	movlw	49
 10979     0967  00AF               	movwf	_enter_password$456
 10980     0968  3000               	movlw	0
 10981     0969  00B0               	movwf	_enter_password$456+1
 10982     096A                     l5325:
 10983     096A  0831               	movf	enter_password@pos,w
 10984     096B  3E27               	addlw	(low (enter_password@usr_pass| 0))& (0+255)
 10985     096C  0084               	movwf	4
 10986     096D  082F               	movf	_enter_password$456,w
 10987     096E  1383               	bcf	3,7	;select IRP bank0
 10988     096F  0080               	movwf	0
 10989     0970                     l5327:
 10990                           
 10991                           ;function.c: 475:             clcd_putch('*', (0xC0 + i));
 10992     0970  082D               	movf	enter_password@i,w
 10993     0971  3EC0               	addlw	192
 10994     0972  00A0               	movwf	clcd_putch@addr
 10995     0973  302A               	movlw	42
 10996     0974  160A  158A  2763  120A  158A  	fcall	_clcd_putch
 10997     0979                     l5329:
 10998                           
 10999                           ;function.c: 476:             i++;
 11000     0979  3001               	movlw	1
 11001     097A  1283               	bcf	3,5	;RP0=0, select bank0
 11002     097B  1303               	bcf	3,6	;RP1=0, select bank0
 11003     097C  07AD               	addwf	enter_password@i,f
 11004     097D  1803               	skipnc
 11005     097E  0AAE               	incf	enter_password@i+1,f
 11006     097F  3000               	movlw	0
 11007     0980  07AE               	addwf	enter_password@i+1,f
 11008     0981                     l5331:
 11009                           
 11010                           ;function.c: 477:             pos++;
 11011     0981  3001               	movlw	1
 11012     0982  07B1               	addwf	enter_password@pos,f
 11013     0983  1803               	skipnc
 11014     0984  0AB2               	incf	enter_password@pos+1,f
 11015     0985  3000               	movlw	0
 11016     0986  07B2               	addwf	enter_password@pos+1,f
 11017     0987                     l5333:
 11018                           
 11019                           ;function.c: 470:     while (pos < 4) {
 11020     0987  3000               	movlw	0
 11021     0988  1283               	bcf	3,5	;RP0=0, select bank0
 11022     0989  1303               	bcf	3,6	;RP1=0, select bank0
 11023     098A  0232               	subwf	enter_password@pos+1,w
 11024     098B  3004               	movlw	4
 11025     098C  1903               	skipnz
 11026     098D  0231               	subwf	enter_password@pos,w
 11027     098E  1C03               	skipc
 11028     098F  2991               	goto	u6461
 11029     0990  2992               	goto	u6460
 11030     0991                     u6461:
 11031     0991  293E               	goto	l5311
 11032     0992                     u6460:
 11033     0992                     l5335:
 11034                           
 11035                           ;function.c: 481:     usr_pass[4] = '\0';
 11036     0992  01AB               	clrf	enter_password@usr_pass+4
 11037     0993                     l5337:
 11038                           
 11039                           ;function.c: 484:     if (strcmp(usr_pass, pass) == 0) {
 11040     0993  082C               	movf	enter_password@pass,w
 11041     0994  00F2               	movwf	strcmp@r
 11042     0995  3027               	movlw	(low (enter_password@usr_pass| 0))& (0+255)
 11043     0996  160A  118A  215A  120A  158A  	fcall	_strcmp
 11044     099B  0872               	movf	?_strcmp,w
 11045     099C  0473               	iorwf	?_strcmp+1,w
 11046     099D  1D03               	btfss	3,2
 11047     099E  29A0               	goto	u6471
 11048     099F  29A1               	goto	u6470
 11049     09A0                     u6471:
 11050     09A0  29B3               	goto	l5347
 11051     09A1                     u6470:
 11052     09A1                     l5339:
 11053                           
 11054                           ;function.c: 485:         clcd_print("Correct password", (0x80 + 0));
 11055     09A1  308E               	movlw	low (STR_54| (0+32768))
 11056     09A2  00F6               	movwf	clcd_print@str
 11057     09A3  3086               	movlw	high (STR_54| (0+32768))
 11058     09A4  00F7               	movwf	clcd_print@str+1
 11059     09A5  3080               	movlw	128
 11060     09A6  00F8               	movwf	clcd_print@addr
 11061     09A7  160A  118A  2187  120A  158A  	fcall	_clcd_print
 11062     09AC                     l5341:
 11063                           
 11064                           ;function.c: 486:         return 1;
 11065     09AC  3001               	movlw	1
 11066     09AD  1283               	bcf	3,5	;RP0=0, select bank0
 11067     09AE  1303               	bcf	3,6	;RP1=0, select bank0
 11068     09AF  00A2               	movwf	?_enter_password
 11069     09B0  3000               	movlw	0
 11070     09B1  00A3               	movwf	?_enter_password+1
 11071     09B2  2A28               	goto	l589
 11072     09B3                     l5347:
 11073                           
 11074                           ;function.c: 488:         (*attempt)--;
 11075     09B3  1283               	bcf	3,5	;RP0=0, select bank0
 11076     09B4  1303               	bcf	3,6	;RP1=0, select bank0
 11077     09B5  0822               	movf	enter_password@attempt,w
 11078     09B6  0084               	movwf	4
 11079     09B7  3001               	movlw	1
 11080     09B8  1383               	bcf	3,7	;select IRP bank0
 11081     09B9  0280               	subwf	0,f
 11082     09BA  0F84               	incfsz	4,f
 11083     09BB  3000               	movlw	0
 11084     09BC  1C03               	skipc
 11085     09BD  0380               	decf	0,f
 11086     09BE  0280               	subwf	0,f
 11087     09BF  0384               	decf	4,f
 11088     09C0                     l5349:
 11089                           
 11090                           ;function.c: 489:         clcd_print("Wrong password ", (0x80 + 0));
 11091     09C0  30B0               	movlw	low (STR_55| (0+32768))
 11092     09C1  00F6               	movwf	clcd_print@str
 11093     09C2  3086               	movlw	high (STR_55| (0+32768))
 11094     09C3  00F7               	movwf	clcd_print@str+1
 11095     09C4  3080               	movlw	128
 11096     09C5  00F8               	movwf	clcd_print@addr
 11097     09C6  160A  118A  2187  120A  158A  	fcall	_clcd_print
 11098     09CB                     l5351:
 11099                           
 11100                           ;function.c: 490:         _delay((unsigned long)((1000)*(20000000/4000.0)));
 11101     09CB  301A               	movlw	26
 11102     09CC  1283               	bcf	3,5	;RP0=0, select bank0
 11103     09CD  1303               	bcf	3,6	;RP1=0, select bank0
 11104     09CE  00A6               	movwf	??_enter_password+2
 11105     09CF  305E               	movlw	94
 11106     09D0  00A5               	movwf	??_enter_password+1
 11107     09D1  306D               	movlw	109
 11108     09D2  00A4               	movwf	??_enter_password
 11109     09D3                     u6927:
 11110     09D3  0BA4               	decfsz	??_enter_password,f
 11111     09D4  29D3               	goto	u6927
 11112     09D5  0BA5               	decfsz	??_enter_password+1,f
 11113     09D6  29D3               	goto	u6927
 11114     09D7  0BA6               	decfsz	??_enter_password+2,f
 11115     09D8  29D3               	goto	u6927
 11116     09D9  29DA               	nop2
 11117     09DA                     l5353:
 11118                           
 11119                           ;function.c: 491:         clcd_print("                ", (0x80 + 0));
 11120     09DA  3039               	movlw	low (STR_31| (0+32768))
 11121     09DB  00F6               	movwf	clcd_print@str
 11122     09DC  3086               	movlw	high (STR_31| (0+32768))
 11123     09DD  00F7               	movwf	clcd_print@str+1
 11124     09DE  3080               	movlw	128
 11125     09DF  00F8               	movwf	clcd_print@addr
 11126     09E0  160A  118A  2187  120A  158A  	fcall	_clcd_print
 11127     09E5                     l5355:
 11128                           
 11129                           ;function.c: 492:         if (*attempt > 0) {
 11130     09E5  1283               	bcf	3,5	;RP0=0, select bank0
 11131     09E6  1303               	bcf	3,6	;RP1=0, select bank0
 11132     09E7  0822               	movf	enter_password@attempt,w
 11133     09E8  0084               	movwf	4
 11134     09E9  1383               	bcf	3,7	;select IRP bank0
 11135     09EA  0800               	movf	0,w
 11136     09EB  00A4               	movwf	??_enter_password
 11137     09EC  0A84               	incf	4,f
 11138     09ED  0800               	movf	0,w
 11139     09EE  00A5               	movwf	??_enter_password+1
 11140     09EF  0824               	movf	??_enter_password,w
 11141     09F0  0425               	iorwf	??_enter_password+1,w
 11142     09F1  1903               	btfsc	3,2
 11143     09F2  29F4               	goto	u6481
 11144     09F3  29F5               	goto	u6480
 11145     09F4                     u6481:
 11146     09F4  2A24               	goto	l5365
 11147     09F5                     u6480:
 11148     09F5                     l5357:
 11149                           
 11150                           ;function.c: 493:             clcd_write(0x01, 0);
 11151     09F5  01F2               	clrf	clcd_write@mode
 11152     09F6  3001               	movlw	1
 11153     09F7  160A  158A  27E0  120A  158A  	fcall	_clcd_write
 11154     09FC                     l5359:
 11155                           
 11156                           ;function.c: 495:             clcd_putch(*attempt + '0', (0x80 + 0));
 11157     09FC  3080               	movlw	128
 11158     09FD  1283               	bcf	3,5	;RP0=0, select bank0
 11159     09FE  1303               	bcf	3,6	;RP1=0, select bank0
 11160     09FF  00A0               	movwf	clcd_putch@addr
 11161     0A00  0822               	movf	enter_password@attempt,w
 11162     0A01  0084               	movwf	4
 11163     0A02  1383               	bcf	3,7	;select IRP bank0
 11164     0A03  0800               	movf	0,w
 11165     0A04  3E30               	addlw	48
 11166     0A05  160A  158A  2763  120A  158A  	fcall	_clcd_putch
 11167     0A0A                     l5361:
 11168                           
 11169                           ;function.c: 496:             clcd_print(" attempts left", (0x80 + 1));
 11170     0A0A  30E0               	movlw	low (STR_57| (0+32768))
 11171     0A0B  00F6               	movwf	clcd_print@str
 11172     0A0C  3086               	movlw	high (STR_57| (0+32768))
 11173     0A0D  00F7               	movwf	clcd_print@str+1
 11174     0A0E  3081               	movlw	129
 11175     0A0F  00F8               	movwf	clcd_print@addr
 11176     0A10  160A  118A  2187  120A  158A  	fcall	_clcd_print
 11177     0A15                     l5363:
 11178                           
 11179                           ;function.c: 497:             _delay((unsigned long)((1000)*(20000000/4000.0)));
 11180     0A15  301A               	movlw	26
 11181     0A16  1283               	bcf	3,5	;RP0=0, select bank0
 11182     0A17  1303               	bcf	3,6	;RP1=0, select bank0
 11183     0A18  00A6               	movwf	??_enter_password+2
 11184     0A19  305E               	movlw	94
 11185     0A1A  00A5               	movwf	??_enter_password+1
 11186     0A1B  306D               	movlw	109
 11187     0A1C  00A4               	movwf	??_enter_password
 11188     0A1D                     u6937:
 11189     0A1D  0BA4               	decfsz	??_enter_password,f
 11190     0A1E  2A1D               	goto	u6937
 11191     0A1F  0BA5               	decfsz	??_enter_password+1,f
 11192     0A20  2A1D               	goto	u6937
 11193     0A21  0BA6               	decfsz	??_enter_password+2,f
 11194     0A22  2A1D               	goto	u6937
 11195     0A23  2A24               	nop2
 11196     0A24                     l5365:
 11197                           
 11198                           ;function.c: 499:         return 0;
 11199     0A24  1283               	bcf	3,5	;RP0=0, select bank0
 11200     0A25  1303               	bcf	3,6	;RP1=0, select bank0
 11201     0A26  01A2               	clrf	?_enter_password
 11202     0A27  01A3               	clrf	?_enter_password+1
 11203     0A28                     l589:
 11204     0A28  0008               	return
 11205     0A29                     __end_of_enter_password:
 11206                           
 11207                           	psect	text46
 11208     115A                     __ptext46:	
 11209 ;; *************** function _strcmp *****************
 11210 ;; Defined at:
 11211 ;;		line 3 in file "C:\Program Files\Microchip\xc8\v2.46\pic\sources\c99\common\strcmp.c"
 11212 ;; Parameters:    Size  Location     Type
 11213 ;;  l               1    wreg     PTR const unsigned char 
 11214 ;;		 -> enter_password@usr_pass(5), change_pass@new_pass(5), 
 11215 ;;  r               1    2[COMMON] PTR const unsigned char 
 11216 ;;		 -> change_pass@re_pass(5), pass(5), 
 11217 ;; Auto vars:     Size  Location     Type
 11218 ;;  l               1    6[COMMON] PTR const unsigned char 
 11219 ;;		 -> enter_password@usr_pass(5), change_pass@new_pass(5), 
 11220 ;; Return value:  Size  Location     Type
 11221 ;;                  2    2[COMMON] int 
 11222 ;; Registers used:
 11223 ;;		wreg, fsr0l, fsr0h, status,2, status,0, btemp+1
 11224 ;; Tracked objects:
 11225 ;;		On entry : 0/0
 11226 ;;		On exit  : 0/0
 11227 ;;		Unchanged: 0/0
 11228 ;; Data sizes:     COMMON   BANK0   BANK1   BANK3   BANK2
 11229 ;;      Params:         2       0       0       0       0
 11230 ;;      Locals:         1       0       0       0       0
 11231 ;;      Temps:          2       0       0       0       0
 11232 ;;      Totals:         5       0       0       0       0
 11233 ;;Total ram usage:        5 bytes
 11234 ;; Hardware stack levels used: 1
 11235 ;; Hardware stack levels required when called: 1
 11236 ;; This function calls:
 11237 ;;		Nothing
 11238 ;; This function is called by:
 11239 ;;		_change_pass
 11240 ;;		_enter_password
 11241 ;; This function uses a non-reentrant model
 11242 ;;
 11243                           
 11244     115A                     _strcmp:	
 11245                           ;psect for function _strcmp
 11246                           
 11247                           
 11248                           ;incstack = 0
 11249                           ; Regs used in _strcmp: [wreg-fsr0h+status,2+status,0+btemp+1]
 11250                           ;strcmp@l stored from wreg
 11251     115A  00F6               	movwf	strcmp@l
 11252     115B                     l4305:
 11253     115B  2964               	goto	l4311
 11254     115C                     l4307:
 11255     115C  3001               	movlw	1
 11256     115D  00FF               	movwf	btemp+1
 11257     115E  087F               	movf	btemp+1,w
 11258     115F  07F6               	addwf	strcmp@l,f
 11259     1160                     l4309:
 11260     1160  3001               	movlw	1
 11261     1161  00FF               	movwf	btemp+1
 11262     1162  087F               	movf	btemp+1,w
 11263     1163  07F2               	addwf	strcmp@r,f
 11264     1164                     l4311:
 11265     1164  0872               	movf	strcmp@r,w
 11266     1165  0084               	movwf	4
 11267     1166  1383               	bcf	3,7	;select IRP bank0
 11268     1167  0800               	movf	0,w
 11269     1168  00F4               	movwf	??_strcmp
 11270     1169  0876               	movf	strcmp@l,w
 11271     116A  0084               	movwf	4
 11272     116B  0800               	movf	0,w
 11273     116C  0674               	xorwf	??_strcmp,w
 11274     116D  1D03               	skipz
 11275     116E  2970               	goto	u4761
 11276     116F  2971               	goto	u4760
 11277     1170                     u4761:
 11278     1170  2978               	goto	l4315
 11279     1171                     u4760:
 11280     1171                     l4313:
 11281     1171  0876               	movf	strcmp@l,w
 11282     1172  0084               	movwf	4
 11283     1173  0800               	movf	0,w
 11284     1174  1D03               	btfss	3,2
 11285     1175  2977               	goto	u4771
 11286     1176  2978               	goto	u4770
 11287     1177                     u4771:
 11288     1177  295C               	goto	l4307
 11289     1178                     u4770:
 11290     1178                     l4315:
 11291     1178  0872               	movf	strcmp@r,w
 11292     1179  0084               	movwf	4
 11293     117A  0800               	movf	0,w
 11294     117B  00F4               	movwf	??_strcmp
 11295     117C  0876               	movf	strcmp@l,w
 11296     117D  0084               	movwf	4
 11297     117E  0800               	movf	0,w
 11298     117F  00F5               	movwf	??_strcmp+1
 11299     1180  0874               	movf	??_strcmp,w
 11300     1181  0275               	subwf	??_strcmp+1,w
 11301     1182  00F2               	movwf	?_strcmp
 11302     1183  01F3               	clrf	?_strcmp+1
 11303     1184  1C03               	skipc
 11304     1185  03F3               	decf	?_strcmp+1,f
 11305     1186                     l1141:
 11306     1186  0008               	return
 11307     1187                     __end_of_strcmp:
 11308                           
 11309                           	psect	text47
 11310     1086                     __ptext47:	
 11311 ;; *************** function _detect_single_press *****************
 11312 ;; Defined at:
 11313 ;;		line 7 in file "function.c"
 11314 ;; Parameters:    Size  Location     Type
 11315 ;;		None
 11316 ;; Auto vars:     Size  Location     Type
 11317 ;;  key             1    7[COMMON] unsigned char 
 11318 ;; Return value:  Size  Location     Type
 11319 ;;                  1    wreg      unsigned char 
 11320 ;; Registers used:
 11321 ;;		wreg, status,2, status,0, pclath, cstack
 11322 ;; Tracked objects:
 11323 ;;		On entry : 0/0
 11324 ;;		On exit  : 0/0
 11325 ;;		Unchanged: 0/0
 11326 ;; Data sizes:     COMMON   BANK0   BANK1   BANK3   BANK2
 11327 ;;      Params:         0       0       0       0       0
 11328 ;;      Locals:         1       0       0       0       0
 11329 ;;      Temps:          3       0       0       0       0
 11330 ;;      Totals:         4       0       0       0       0
 11331 ;;Total ram usage:        4 bytes
 11332 ;; Hardware stack levels used: 1
 11333 ;; Hardware stack levels required when called: 2
 11334 ;; This function calls:
 11335 ;;		_read_digital_keypad
 11336 ;; This function is called by:
 11337 ;;		_main
 11338 ;;		_handle_menu_navigation
 11339 ;;		_display_logs
 11340 ;;		_change_pass
 11341 ;;		_change_time
 11342 ;;		_enter_password
 11343 ;; This function uses a non-reentrant model
 11344 ;;
 11345                           
 11346     1086                     _detect_single_press:	
 11347                           ;psect for function _detect_single_press
 11348                           
 11349     1086                     l4209:	
 11350                           ;incstack = 0
 11351                           ; Regs used in _detect_single_press: [wreg+status,2+status,0+pclath+cstack]
 11352                           
 11353                           
 11354                           ;function.c: 8:     static unsigned char prev_key = 0x3F;;function.c: 9:     _delay((uns
      +                          igned long)((50)*(20000000/4000.0)));
 11355     1086  3002               	movlw	2
 11356     1087  00F6               	movwf	??_detect_single_press+2
 11357     1088  3045               	movlw	69
 11358     1089  00F5               	movwf	??_detect_single_press+1
 11359     108A  30A9               	movlw	169
 11360     108B  00F4               	movwf	??_detect_single_press
 11361     108C                     u6947:
 11362     108C  0BF4               	decfsz	??_detect_single_press,f
 11363     108D  288C               	goto	u6947
 11364     108E  0BF5               	decfsz	??_detect_single_press+1,f
 11365     108F  288C               	goto	u6947
 11366     1090  0BF6               	decfsz	??_detect_single_press+2,f
 11367     1091  288C               	goto	u6947
 11368     1092  2893               	nop2
 11369     1093                     l4211:
 11370                           
 11371                           ;function.c: 10:     unsigned char key = read_digital_keypad(1);
 11372     1093  3001               	movlw	1
 11373     1094  160A  118A  20AE  160A  118A  	fcall	_read_digital_keypad
 11374     1099  00F7               	movwf	detect_single_press@key
 11375     109A                     l4213:
 11376                           
 11377                           ;function.c: 12:     if (key != 0x3F && prev_key == 0x3F) {
 11378     109A  303F               	movlw	63
 11379     109B  0677               	xorwf	detect_single_press@key,w
 11380     109C  1903               	btfsc	3,2
 11381     109D  289F               	goto	u4661
 11382     109E  28A0               	goto	u4660
 11383     109F                     u4661:
 11384     109F  28AA               	goto	l4221
 11385     10A0                     u4660:
 11386     10A0                     l4215:
 11387     10A0  303F               	movlw	63
 11388     10A1  067A               	xorwf	detect_single_press@prev_key,w
 11389     10A2  1D03               	btfss	3,2
 11390     10A3  28A5               	goto	u4671
 11391     10A4  28A6               	goto	u4670
 11392     10A5                     u4671:
 11393     10A5  28AA               	goto	l4221
 11394     10A6                     u4670:
 11395     10A6                     l4217:
 11396                           
 11397                           ;function.c: 13:         prev_key = key;
 11398     10A6  0877               	movf	detect_single_press@key,w
 11399     10A7  00FA               	movwf	detect_single_press@prev_key
 11400                           
 11401                           ;function.c: 14:         return key;
 11402     10A8  0877               	movf	detect_single_press@key,w
 11403     10A9  28AD               	goto	l425
 11404     10AA                     l4221:
 11405                           
 11406                           ;function.c: 16:     prev_key = key;
 11407     10AA  0877               	movf	detect_single_press@key,w
 11408     10AB  00FA               	movwf	detect_single_press@prev_key
 11409                           
 11410                           ;function.c: 17:     return 0x3F;
 11411     10AC  303F               	movlw	63
 11412     10AD                     l425:
 11413     10AD  0008               	return
 11414     10AE                     __end_of_detect_single_press:
 11415                           
 11416                           	psect	text48
 11417     10AE                     __ptext48:	
 11418 ;; *************** function _read_digital_keypad *****************
 11419 ;; Defined at:
 11420 ;;		line 10 in file "digital_keypad.c"
 11421 ;; Parameters:    Size  Location     Type
 11422 ;;  mode            1    wreg     unsigned char 
 11423 ;; Auto vars:     Size  Location     Type
 11424 ;;  mode            1    3[COMMON] unsigned char 
 11425 ;; Return value:  Size  Location     Type
 11426 ;;                  1    wreg      unsigned char 
 11427 ;; Registers used:
 11428 ;;		wreg, status,2, status,0
 11429 ;; Tracked objects:
 11430 ;;		On entry : 0/0
 11431 ;;		On exit  : 0/0
 11432 ;;		Unchanged: 0/0
 11433 ;; Data sizes:     COMMON   BANK0   BANK1   BANK3   BANK2
 11434 ;;      Params:         0       0       0       0       0
 11435 ;;      Locals:         1       0       0       0       0
 11436 ;;      Temps:          1       0       0       0       0
 11437 ;;      Totals:         2       0       0       0       0
 11438 ;;Total ram usage:        2 bytes
 11439 ;; Hardware stack levels used: 1
 11440 ;; Hardware stack levels required when called: 1
 11441 ;; This function calls:
 11442 ;;		Nothing
 11443 ;; This function is called by:
 11444 ;;		_detect_single_press
 11445 ;;		_handle_menu_navigation
 11446 ;;		_display_logs
 11447 ;;		_change_time
 11448 ;; This function uses a non-reentrant model
 11449 ;;
 11450                           
 11451     10AE                     _read_digital_keypad:	
 11452                           ;psect for function _read_digital_keypad
 11453                           
 11454                           
 11455                           ;incstack = 0
 11456                           ; Regs used in _read_digital_keypad: [wreg+status,2+status,0]
 11457                           ;read_digital_keypad@mode stored from wreg
 11458     10AE  00F3               	movwf	read_digital_keypad@mode
 11459     10AF                     l4135:
 11460                           
 11461                           ;digital_keypad.c: 10: unsigned char read_digital_keypad(unsigned char mode);digital_key
      +                          pad.c: 11: {;digital_keypad.c: 12:     static unsigned char once = 1;;digital_keypad.c: 
      +                          14:     if (mode == 0)
 11462     10AF  0873               	movf	read_digital_keypad@mode,w
 11463     10B0  1D03               	btfss	3,2
 11464     10B1  28B3               	goto	u4571
 11465     10B2  28B4               	goto	u4570
 11466     10B3                     u4571:
 11467     10B3  28B9               	goto	l4143
 11468     10B4                     u4570:
 11469     10B4                     l4137:
 11470                           
 11471                           ;digital_keypad.c: 15:     {;digital_keypad.c: 16:         return PORTB & 0x3F;
 11472     10B4  1283               	bcf	3,5	;RP0=0, select bank0
 11473     10B5  1303               	bcf	3,6	;RP1=0, select bank0
 11474     10B6  0806               	movf	6,w	;volatile
 11475     10B7  393F               	andlw	63
 11476     10B8  28D7               	goto	l259
 11477     10B9                     l4143:
 11478                           
 11479                           ;digital_keypad.c: 19:     {;digital_keypad.c: 20:         if (((PORTB & 0x3F) != 0x3F) 
      +                          && once)
 11480     10B9  303F               	movlw	63
 11481     10BA  1283               	bcf	3,5	;RP0=0, select bank0
 11482     10BB  1303               	bcf	3,6	;RP1=0, select bank0
 11483     10BC  0506               	andwf	6,w	;volatile
 11484     10BD  00F2               	movwf	??_read_digital_keypad
 11485     10BE  303F               	movlw	63
 11486     10BF  0672               	xorwf	??_read_digital_keypad,w
 11487     10C0  1903               	btfsc	3,2
 11488     10C1  28C3               	goto	u4581
 11489     10C2  28C4               	goto	u4580
 11490     10C3                     u4581:
 11491     10C3  28CB               	goto	l4155
 11492     10C4                     u4580:
 11493     10C4                     l4145:
 11494     10C4  087B               	movf	read_digital_keypad@once,w
 11495     10C5  1903               	btfsc	3,2
 11496     10C6  28C8               	goto	u4591
 11497     10C7  28C9               	goto	u4590
 11498     10C8                     u4591:
 11499     10C8  28CB               	goto	l4155
 11500     10C9                     u4590:
 11501     10C9                     l4147:
 11502                           
 11503                           ;digital_keypad.c: 21:         {;digital_keypad.c: 22:             once = 0;
 11504     10C9  01FB               	clrf	read_digital_keypad@once
 11505     10CA  28B4               	goto	l4137
 11506     10CB                     l4155:
 11507     10CB  303F               	movlw	63
 11508     10CC  0506               	andwf	6,w	;volatile
 11509     10CD  00F2               	movwf	??_read_digital_keypad
 11510     10CE  303F               	movlw	63
 11511     10CF  0672               	xorwf	??_read_digital_keypad,w
 11512     10D0  1D03               	btfss	3,2
 11513     10D1  28D3               	goto	u4601
 11514     10D2  28D4               	goto	u4600
 11515     10D3                     u4601:
 11516     10D3  28D6               	goto	l4159
 11517     10D4                     u4600:
 11518     10D4                     l4157:
 11519                           
 11520                           ;digital_keypad.c: 27:         {;digital_keypad.c: 28:             once = 1;
 11521     10D4  01FB               	clrf	read_digital_keypad@once
 11522     10D5  0AFB               	incf	read_digital_keypad@once,f
 11523     10D6                     l4159:
 11524                           
 11525                           ;digital_keypad.c: 32:     return 0x3F;
 11526     10D6  303F               	movlw	63
 11527     10D7                     l259:
 11528     10D7  0008               	return
 11529     10D8                     __end_of_read_digital_keypad:
 11530                           
 11531                           	psect	text49
 11532     1F63                     __ptext49:	
 11533 ;; *************** function _clcd_putch *****************
 11534 ;; Defined at:
 11535 ;;		line 52 in file "clcd.c"
 11536 ;; Parameters:    Size  Location     Type
 11537 ;;  data            1    wreg     const unsigned char 
 11538 ;;  addr            1    0[BANK0 ] unsigned char 
 11539 ;; Auto vars:     Size  Location     Type
 11540 ;;  data            1    1[BANK0 ] const unsigned char 
 11541 ;; Return value:  Size  Location     Type
 11542 ;;                  1    wreg      void 
 11543 ;; Registers used:
 11544 ;;		wreg, status,2, status,0, pclath, cstack
 11545 ;; Tracked objects:
 11546 ;;		On entry : 0/0
 11547 ;;		On exit  : 0/0
 11548 ;;		Unchanged: 0/0
 11549 ;; Data sizes:     COMMON   BANK0   BANK1   BANK3   BANK2
 11550 ;;      Params:         0       1       0       0       0
 11551 ;;      Locals:         0       1       0       0       0
 11552 ;;      Temps:          0       0       0       0       0
 11553 ;;      Totals:         0       2       0       0       0
 11554 ;;Total ram usage:        2 bytes
 11555 ;; Hardware stack levels used: 1
 11556 ;; Hardware stack levels required when called: 2
 11557 ;; This function calls:
 11558 ;;		_clcd_write
 11559 ;; This function is called by:
 11560 ;;		_handle_lockout
 11561 ;;		_display_logs
 11562 ;;		_change_pass
 11563 ;;		_change_time
 11564 ;;		_enter_password
 11565 ;; This function uses a non-reentrant model
 11566 ;;
 11567                           
 11568     1F63                     _clcd_putch:	
 11569                           ;psect for function _clcd_putch
 11570                           
 11571                           
 11572                           ;incstack = 0
 11573                           ; Regs used in _clcd_putch: [wreg+status,2+status,0+pclath+cstack]
 11574                           ;clcd_putch@data stored from wreg
 11575     1F63  1283               	bcf	3,5	;RP0=0, select bank0
 11576     1F64  1303               	bcf	3,6	;RP1=0, select bank0
 11577     1F65  00A1               	movwf	clcd_putch@data
 11578     1F66                     l4187:
 11579                           
 11580                           ;clcd.c: 52: void clcd_putch(const char data,unsigned char addr);clcd.c: 53: {;clcd.c: 5
      +                          4:     clcd_write(addr, 0);
 11581     1F66  01F2               	clrf	clcd_write@mode
 11582     1F67  0820               	movf	clcd_putch@addr,w
 11583     1F68  160A  158A  27E0  160A  158A  	fcall	_clcd_write
 11584                           
 11585                           ;clcd.c: 55:     clcd_write(data, 1);
 11586     1F6D  01F2               	clrf	clcd_write@mode
 11587     1F6E  0AF2               	incf	clcd_write@mode,f
 11588     1F6F  1283               	bcf	3,5	;RP0=0, select bank0
 11589     1F70  1303               	bcf	3,6	;RP1=0, select bank0
 11590     1F71  0821               	movf	clcd_putch@data,w
 11591     1F72  160A  158A  27E0  160A  158A  	fcall	_clcd_write
 11592     1F77                     l26:
 11593     1F77  0008               	return
 11594     1F78                     __end_of_clcd_putch:
 11595                           
 11596                           	psect	text50
 11597     1187                     __ptext50:	
 11598 ;; *************** function _clcd_print *****************
 11599 ;; Defined at:
 11600 ;;		line 59 in file "clcd.c"
 11601 ;; Parameters:    Size  Location     Type
 11602 ;;  str             2    6[COMMON] PTR const unsigned char 
 11603 ;;		 -> STR_57(15), STR_56(17), STR_55(16), STR_54(17), 
 11604 ;;		 -> STR_53(17), STR_52(17), STR_51(13), STR_50(16), 
 11605 ;;		 -> STR_49(14), STR_48(3), STR_47(3), STR_46(3), 
 11606 ;;		 -> STR_45(13), STR_44(13), STR_43(16), STR_37(9), 
 11607 ;;		 -> STR_36(9), STR_35(8), STR_34(12), STR_33(17), 
 11608 ;;		 -> STR_32(17), STR_31(17), STR_30(17), STR_29(11), 
 11609 ;;		 -> STR_28(10), STR_27(17), STR_26(2), STR_25(2), 
 11610 ;;		 -> STR_24(2), STR_23(2), STR_22(14), STR_21(14), 
 11611 ;;		 -> STR_20(14), STR_19(14), STR_18(14), STR_17(14), 
 11612 ;;		 -> STR_16(14), STR_15(14), STR_14(17), speed(3), 
 11613 ;;		 -> STR_13(14), STR_12(14), STR_11(7), STR_10(9), 
 11614 ;;		 -> STR_8(3), STR_7(3), STR_6(3), STR_5(3), 
 11615 ;;		 -> STR_4(3), STR_3(3), STR_2(3), STR_1(3), 
 11616 ;;		 -> time(9), 
 11617 ;;  addr            1    8[COMMON] unsigned char 
 11618 ;; Auto vars:     Size  Location     Type
 11619 ;;		None
 11620 ;; Return value:  Size  Location     Type
 11621 ;;                  1    wreg      void 
 11622 ;; Registers used:
 11623 ;;		wreg, fsr0l, fsr0h, status,2, status,0, btemp+1, pclath, cstack
 11624 ;; Tracked objects:
 11625 ;;		On entry : 0/0
 11626 ;;		On exit  : 0/0
 11627 ;;		Unchanged: 0/0
 11628 ;; Data sizes:     COMMON   BANK0   BANK1   BANK3   BANK2
 11629 ;;      Params:         3       0       0       0       0
 11630 ;;      Locals:         0       0       0       0       0
 11631 ;;      Temps:          0       0       0       0       0
 11632 ;;      Totals:         3       0       0       0       0
 11633 ;;Total ram usage:        3 bytes
 11634 ;; Hardware stack levels used: 1
 11635 ;; Hardware stack levels required when called: 2
 11636 ;; This function calls:
 11637 ;;		_clcd_write
 11638 ;; This function is called by:
 11639 ;;		_display_time
 11640 ;;		_handle_lockout
 11641 ;;		_main
 11642 ;;		_update_dashboard_display
 11643 ;;		_handle_menu_navigation
 11644 ;;		_display_logs
 11645 ;;		_change_pass
 11646 ;;		_change_time
 11647 ;;		_enter_menu_option
 11648 ;;		_enter_password
 11649 ;; This function uses a non-reentrant model
 11650 ;;
 11651                           
 11652     1187                     _clcd_print:	
 11653                           ;psect for function _clcd_print
 11654                           
 11655     1187                     l4189:	
 11656                           ;incstack = 0
 11657                           ; Regs used in _clcd_print: [wreg-fsr0h+status,2+status,0+btemp+1+pclath+cstack]
 11658                           
 11659                           
 11660                           ;clcd.c: 59: void clcd_print(const char *str, unsigned char addr);clcd.c: 60: {;clcd.c: 
      +                          61:     clcd_write(addr, 0);
 11661     1187  01F2               	clrf	clcd_write@mode
 11662     1188  0878               	movf	clcd_print@addr,w
 11663     1189  160A  158A  27E0  160A  118A  	fcall	_clcd_write
 11664                           
 11665                           ;clcd.c: 63:     while(*str != '\0')
 11666     118E  29A5               	goto	l4195
 11667     118F                     l4191:
 11668                           
 11669                           ;clcd.c: 64:     {;clcd.c: 65:         clcd_write(*str, 1);
 11670     118F  01F2               	clrf	clcd_write@mode
 11671     1190  0AF2               	incf	clcd_write@mode,f
 11672     1191  0877               	movf	clcd_print@str+1,w
 11673     1192  00FF               	movwf	btemp+1
 11674     1193  0876               	movf	clcd_print@str,w
 11675     1194  0084               	movwf	4
 11676     1195  120A  118A  25EE  160A  118A  	fcall	stringtab
 11677     119A  160A  158A  27E0  160A  118A  	fcall	_clcd_write
 11678     119F                     l4193:
 11679                           
 11680                           ;clcd.c: 66:         str++;
 11681     119F  3001               	movlw	1
 11682     11A0  07F6               	addwf	clcd_print@str,f
 11683     11A1  1803               	skipnc
 11684     11A2  0AF7               	incf	clcd_print@str+1,f
 11685     11A3  3000               	movlw	0
 11686     11A4  07F7               	addwf	clcd_print@str+1,f
 11687     11A5                     l4195:
 11688                           
 11689                           ;clcd.c: 63:     while(*str != '\0')
 11690     11A5  0877               	movf	clcd_print@str+1,w
 11691     11A6  1283               	bcf	3,5	;RP0=0, select bank0
 11692     11A7  1303               	bcf	3,6	;RP1=0, select bank0
 11693     11A8  00FF               	movwf	btemp+1
 11694     11A9  0876               	movf	clcd_print@str,w
 11695     11AA  0084               	movwf	4
 11696     11AB  120A  118A  25EE  160A  118A  	fcall	stringtab
 11697     11B0  3A00               	xorlw	0
 11698     11B1  1D03               	skipz
 11699     11B2  29B4               	goto	u4641
 11700     11B3  29B5               	goto	u4640
 11701     11B4                     u4641:
 11702     11B4  298F               	goto	l4191
 11703     11B5                     u4640:
 11704     11B5                     l32:
 11705     11B5  0008               	return
 11706     11B6                     __end_of_clcd_print:
 11707                           
 11708                           	psect	text51
 11709     1FE0                     __ptext51:	
 11710 ;; *************** function _clcd_write *****************
 11711 ;; Defined at:
 11712 ;;		line 4 in file "clcd.c"
 11713 ;; Parameters:    Size  Location     Type
 11714 ;;  byte            1    wreg     unsigned char 
 11715 ;;  mode            1    2[COMMON] unsigned char 
 11716 ;; Auto vars:     Size  Location     Type
 11717 ;;  byte            1    5[COMMON] unsigned char 
 11718 ;; Return value:  Size  Location     Type
 11719 ;;                  1    wreg      void 
 11720 ;; Registers used:
 11721 ;;		wreg
 11722 ;; Tracked objects:
 11723 ;;		On entry : 0/0
 11724 ;;		On exit  : 0/0
 11725 ;;		Unchanged: 0/0
 11726 ;; Data sizes:     COMMON   BANK0   BANK1   BANK3   BANK2
 11727 ;;      Params:         1       0       0       0       0
 11728 ;;      Locals:         1       0       0       0       0
 11729 ;;      Temps:          2       0       0       0       0
 11730 ;;      Totals:         4       0       0       0       0
 11731 ;;Total ram usage:        4 bytes
 11732 ;; Hardware stack levels used: 1
 11733 ;; Hardware stack levels required when called: 1
 11734 ;; This function calls:
 11735 ;;		Nothing
 11736 ;; This function is called by:
 11737 ;;		_init_display_controller
 11738 ;;		_clcd_putch
 11739 ;;		_clcd_print
 11740 ;;		_handle_lockout
 11741 ;;		_main
 11742 ;;		_handle_menu_navigation
 11743 ;;		_display_logs
 11744 ;;		_change_pass
 11745 ;;		_change_time
 11746 ;;		_enter_menu_option
 11747 ;;		_enter_password
 11748 ;; This function uses a non-reentrant model
 11749 ;;
 11750                           
 11751     1FE0                     _clcd_write:	
 11752                           ;psect for function _clcd_write
 11753                           
 11754                           
 11755                           ;incstack = 0
 11756                           ; Regs used in _clcd_write: [wreg]
 11757                           ;clcd_write@byte stored from wreg
 11758     1FE0  00F5               	movwf	clcd_write@byte
 11759     1FE1                     l4115:
 11760                           
 11761                           ;clcd.c: 4:  void clcd_write(unsigned char byte, unsigned char mode);clcd.c: 5: {;clcd.c
      +                          : 6:     RE2 = mode;
 11762     1FE1  1872               	btfsc	clcd_write@mode,0
 11763     1FE2  2FE4               	goto	u4551
 11764     1FE3  2FE8               	goto	u4550
 11765     1FE4                     u4551:
 11766     1FE4  1283               	bcf	3,5	;RP0=0, select bank0
 11767     1FE5  1303               	bcf	3,6	;RP1=0, select bank0
 11768     1FE6  1509               	bsf	9,2	;volatile
 11769     1FE7  2FEB               	goto	u4564
 11770     1FE8                     u4550:
 11771     1FE8  1283               	bcf	3,5	;RP0=0, select bank0
 11772     1FE9  1303               	bcf	3,6	;RP1=0, select bank0
 11773     1FEA  1109               	bcf	9,2	;volatile
 11774     1FEB                     u4564:
 11775     1FEB                     l4117:
 11776                           
 11777                           ;clcd.c: 7:     PORTD = byte;
 11778     1FEB  0875               	movf	clcd_write@byte,w
 11779     1FEC  0088               	movwf	8	;volatile
 11780     1FED                     l4119:
 11781                           
 11782                           ;clcd.c: 8:     RE1 = 1;
 11783     1FED  1489               	bsf	9,1	;volatile
 11784                           
 11785                           ;clcd.c: 9:     _delay((unsigned long)((100)*(20000000/4000000.0)));
 11786     1FEE  30A6               	movlw	166
 11787     1FEF  00F3               	movwf	??_clcd_write
 11788     1FF0                     u6957:
 11789     1FF0  0BF3               	decfsz	??_clcd_write,f
 11790     1FF1  2FF0               	goto	u6957
 11791     1FF2  0000               	nop
 11792     1FF3                     l4121:
 11793                           
 11794                           ;clcd.c: 10:     RE1 = 0;
 11795     1FF3  1283               	bcf	3,5	;RP0=0, select bank0
 11796     1FF4  1303               	bcf	3,6	;RP1=0, select bank0
 11797     1FF5  1089               	bcf	9,1	;volatile
 11798                           
 11799                           ;clcd.c: 12:     _delay((unsigned long)((4100)*(20000000/4000000.0)));
 11800     1FF6  301B               	movlw	27
 11801     1FF7  00F4               	movwf	??_clcd_write+1
 11802     1FF8  309E               	movlw	158
 11803     1FF9  00F3               	movwf	??_clcd_write
 11804     1FFA                     u6967:
 11805     1FFA  0BF3               	decfsz	??_clcd_write,f
 11806     1FFB  2FFA               	goto	u6967
 11807     1FFC  0BF4               	decfsz	??_clcd_write+1,f
 11808     1FFD  2FFA               	goto	u6967
 11809     1FFE  0000               	nop
 11810     1FFF                     l17:
 11811     1FFF  0008               	return
 11812     2000                     __end_of_clcd_write:
 11813                           
 11814                           	psect	text52
 11815     112E                     __ptext52:	
 11816 ;; *************** function _isr *****************
 11817 ;; Defined at:
 11818 ;;		line 5 in file "isr.c"
 11819 ;; Parameters:    Size  Location     Type
 11820 ;;		None
 11821 ;; Auto vars:     Size  Location     Type
 11822 ;;		None
 11823 ;; Return value:  Size  Location     Type
 11824 ;;                  2  318[None  ] int 
 11825 ;; Registers used:
 11826 ;;		wreg, status,2, status,0
 11827 ;; Tracked objects:
 11828 ;;		On entry : 0/0
 11829 ;;		On exit  : 0/0
 11830 ;;		Unchanged: 0/0
 11831 ;; Data sizes:     COMMON   BANK0   BANK1   BANK3   BANK2
 11832 ;;      Params:         0       0       0       0       0
 11833 ;;      Locals:         0       0       0       0       0
 11834 ;;      Temps:          2       0       0       0       0
 11835 ;;      Totals:         2       0       0       0       0
 11836 ;;Total ram usage:        2 bytes
 11837 ;; Hardware stack levels used: 1
 11838 ;; This function calls:
 11839 ;;		Nothing
 11840 ;; This function is called by:
 11841 ;;		Interrupt level 1
 11842 ;; This function uses a non-reentrant model
 11843 ;;
 11844                           
 11845     112E                     _isr:	
 11846                           ;psect for function _isr
 11847                           
 11848     112E                     i1l4069:
 11849                           
 11850                           ;isr.c: 6:     static unsigned int count = 0;;isr.c: 7:     if (TMR0IF)
 11851     112E  1D0B               	btfss	11,2	;volatile
 11852     112F  2931               	goto	u450_21
 11853     1130  2932               	goto	u450_20
 11854     1131                     u450_21:
 11855     1131  2953               	goto	i1l323
 11856     1132                     u450_20:
 11857     1132                     i1l4071:
 11858                           
 11859                           ;isr.c: 8:     {;isr.c: 9:         TMR0 = TMR0 + 8;
 11860     1132  1283               	bcf	3,5	;RP0=0, select bank0
 11861     1133  1303               	bcf	3,6	;RP1=0, select bank0
 11862     1134  0801               	movf	1,w	;volatile
 11863     1135  3E08               	addlw	8
 11864     1136  0081               	movwf	1	;volatile
 11865                           
 11866                           ;isr.c: 10:         if (++count == 20000)
 11867     1137  3001               	movlw	1
 11868     1138  1683               	bsf	3,5	;RP0=1, select bank1
 11869     1139  1303               	bcf	3,6	;RP1=0, select bank1
 11870     113A  07A9               	addwf	isr@count^(0+128),f
 11871     113B  1803               	skipnc
 11872     113C  0AAA               	incf	(isr@count+1)^(0+128),f
 11873     113D  3000               	movlw	0
 11874     113E  07AA               	addwf	(isr@count+1)^(0+128),f
 11875     113F  3020               	movlw	32
 11876     1140  0629               	xorwf	isr@count^(0+128),w
 11877     1141  304E               	movlw	78
 11878     1142  1903               	skipnz
 11879     1143  062A               	xorwf	(isr@count+1)^(0+128),w
 11880     1144  1D03               	btfss	3,2
 11881     1145  2947               	goto	u451_21
 11882     1146  2948               	goto	u451_20
 11883     1147                     u451_21:
 11884     1147  2952               	goto	i1l4077
 11885     1148                     u451_20:
 11886     1148                     i1l4073:
 11887                           
 11888                           ;isr.c: 11:         {;isr.c: 12:             count = 0;
 11889     1148  01A9               	clrf	isr@count^(0+128)
 11890     1149  01AA               	clrf	(isr@count+1)^(0+128)
 11891     114A                     i1l4075:
 11892                           
 11893                           ;isr.c: 13:             block++;
 11894     114A  3001               	movlw	1
 11895     114B  1283               	bcf	3,5	;RP0=0, select bank0
 11896     114C  1303               	bcf	3,6	;RP1=0, select bank0
 11897     114D  07E5               	addwf	_block,f
 11898     114E  1803               	skipnc
 11899     114F  0AE6               	incf	_block+1,f
 11900     1150  3000               	movlw	0
 11901     1151  07E6               	addwf	_block+1,f
 11902     1152                     i1l4077:
 11903                           
 11904                           ;isr.c: 15:         TMR0IF = 0;
 11905     1152  110B               	bcf	11,2	;volatile
 11906     1153                     i1l323:
 11907     1153  0871               	movf	??_isr+1,w
 11908     1154  008A               	movwf	10
 11909     1155  0E70               	swapf	??_isr,w
 11910     1156  0083               	movwf	3
 11911     1157  0EFE               	swapf	btemp,f
 11912     1158  0E7E               	swapf	btemp,w
 11913     1159  0009               	retfie
 11914     115A                     __end_of_isr:
 11915     007E                     btemp	set	126	;btemp
 11916     007E                     wtemp0	set	126
 11917                           
 11918                           	psect	intentry
 11919     0004                     __pintentry:	
 11920                           ;incstack = 0
 11921 ;; hardware stack exceeded
 11922                           ; Regs used in _isr: [wreg+status,2+status,0]
 11923                           
 11924     0004                     interrupt_function:
 11925     007E                     saved_w	set	btemp
 11926     0004  00FE               	movwf	btemp
 11927     0005  0E03               	swapf	3,w
 11928     0006  00F0               	movwf	??_isr
 11929     0007  080A               	movf	10,w
 11930     0008  00F1               	movwf	??_isr+1
 11931     0009  160A  118A  292E   	ljmp	_isr
 11932                           
 11933                           	psect	config
 11934                           
 11935                           ;Config register CONFIG @ 0x2007
 11936                           ;	Oscillator Selection bits
 11937                           ;	FOSC = 0x3, unprogrammed default
 11938                           ;	Watchdog Timer Enable bit
 11939                           ;	WDTE = OFF, WDT disabled
 11940                           ;	Power-up Timer Enable bit
 11941                           ;	PWRTE = 0x1, unprogrammed default
 11942                           ;	Brown-out Reset Enable bit
 11943                           ;	BOREN = 0x1, unprogrammed default
 11944                           ;	Low-Voltage (Single-Supply) In-Circuit Serial Programming Enable bit
 11945                           ;	LVP = 0x1, unprogrammed default
 11946                           ;	Data EEPROM Memory Code Protection bit
 11947                           ;	CPD = 0x1, unprogrammed default
 11948                           ;	Flash Program Memory Write Enable bits
 11949                           ;	WRT = 0x3, unprogrammed default
 11950                           ;	In-Circuit Debugger Mode bit
 11951                           ;	DEBUG = 0x1, unprogrammed default
 11952                           ;	Flash Program Memory Code Protection bit
 11953                           ;	CP = 0x1, unprogrammed default
 11954     2007                     	org	8199
 11955     2007  3FFB               	dw	16379

Data Sizes:
    Strings     462
    Constant    0
    Data        19
    BSS         43
    Persistent  0
    Stack       0

Auto Spaces:
    Space          Size  Autos    Used
    COMMON           14     10      12
    BANK0            80     67      77
    BANK1            80      8      58
    BANK3            96      0       0
    BANK2            96      0       0

Pointer List with Targets:

    clcd_print@str	PTR const unsigned char  size(2) Largest target is 17
		 -> speed(BANK1[3]), STR_1(CODE[3]), STR_10(CODE[9]), STR_11(CODE[7]), 
		 -> STR_12(CODE[14]), STR_13(CODE[14]), STR_14(CODE[17]), STR_15(CODE[14]), 
		 -> STR_16(CODE[14]), STR_17(CODE[14]), STR_18(CODE[14]), STR_19(CODE[14]), 
		 -> STR_2(CODE[3]), STR_20(CODE[14]), STR_21(CODE[14]), STR_22(CODE[14]), 
		 -> STR_23(CODE[2]), STR_24(CODE[2]), STR_25(CODE[2]), STR_26(CODE[2]), 
		 -> STR_27(CODE[17]), STR_28(CODE[10]), STR_29(CODE[11]), STR_3(CODE[3]), 
		 -> STR_30(CODE[17]), STR_31(CODE[17]), STR_32(CODE[17]), STR_33(CODE[17]), 
		 -> STR_34(CODE[12]), STR_35(CODE[8]), STR_36(CODE[9]), STR_37(CODE[9]), 
		 -> STR_4(CODE[3]), STR_43(CODE[16]), STR_44(CODE[13]), STR_45(CODE[13]), 
		 -> STR_46(CODE[3]), STR_47(CODE[3]), STR_48(CODE[3]), STR_49(CODE[14]), 
		 -> STR_5(CODE[3]), STR_50(CODE[16]), STR_51(CODE[13]), STR_52(CODE[17]), 
		 -> STR_53(CODE[17]), STR_54(CODE[17]), STR_55(CODE[16]), STR_56(CODE[17]), 
		 -> STR_57(CODE[15]), STR_6(CODE[3]), STR_7(CODE[3]), STR_8(CODE[3]), 
		 -> time(BANK1[9]), 

    display_time@clock_reg	PTR unsigned char  size(1) Largest target is 3
		 -> clock_reg(BANK1[3]), 

    enter_password@attempt	PTR unsigned int  size(1) Largest target is 2
		 -> main@attempt(BANK1[2]), 

    enter_password@pass	PTR unsigned char  size(1) Largest target is 5
		 -> pass(BANK1[5]), 

    event	PTR unsigned char [8] size(2) Largest target is 3
		 -> STR_1(CODE[3]), STR_2(CODE[3]), STR_3(CODE[3]), STR_4(CODE[3]), 
		 -> STR_5(CODE[3]), STR_6(CODE[3]), STR_7(CODE[3]), STR_8(CODE[3]), 

    get_time@clock_reg	PTR unsigned char  size(1) Largest target is 3
		 -> clock_reg(BANK1[3]), 

    handle_menu_navigation@down_press	PTR unsigned char  size(1) Largest target is 1
		 -> main@down_press(BANK1[1]), 

    handle_menu_navigation@long_press_counter	PTR unsigned int  size(1) Largest target is 2
		 -> main@long_press_counter(BANK1[2]), 

    puts@s	PTR const unsigned char  size(2) Largest target is 32
		 -> download_log@gear(BANK0[3]), download_log@speed(BANK0[3]), download_log@time(BANK0[9]), STR_38(CODE[32]), 
		 -> STR_39(CODE[8]), STR_40(CODE[4]), STR_41(CODE[6]), STR_42(CODE[25]), 
		 -> STR_9(CODE[17]), 

    sp__strcpy	PTR unsigned char  size(1) Largest target is 5
		 -> pass(BANK1[5]), 

    sp__strncpy	PTR unsigned char  size(1) Largest target is 9
		 -> download_log@gear(BANK0[3]), download_log@speed(BANK0[3]), download_log@time(BANK0[9]), 

    strcmp@l	PTR const unsigned char  size(1) Largest target is 5
		 -> change_pass@new_pass(BANK0[5]), enter_password@usr_pass(BANK0[5]), 

    strcmp@r	PTR const unsigned char  size(1) Largest target is 5
		 -> change_pass@re_pass(BANK0[5]), pass(BANK1[5]), 

    strcpy@d	PTR unsigned char  size(1) Largest target is 5
		 -> pass(BANK1[5]), 

    strcpy@dest	PTR unsigned char  size(1) Largest target is 5
		 -> pass(BANK1[5]), 

    strcpy@src	PTR const unsigned char  size(1) Largest target is 5
		 -> change_pass@new_pass(BANK0[5]), 

    strncpy@cp	PTR unsigned char  size(1) Largest target is 9
		 -> download_log@gear(BANK0[3]), download_log@speed(BANK0[3]), download_log@time(BANK0[9]), 

    strncpy@d	PTR unsigned char  size(1) Largest target is 9
		 -> download_log@gear(BANK0[3]), download_log@speed(BANK0[3]), download_log@time(BANK0[9]), 

    strncpy@s	PTR const unsigned char  size(1) Largest target is 13
		 -> download_log@eeprom_data(BANK0[13]), 


Critical Paths under _main in COMMON

    _update_dashboard_display->___fltol
    _update_dashboard_display->___lwmod
    _update_dashboard_display->_display_time
    _display_time->_clcd_print
    ___xxtofl->_read_adc
    ___fltol->_read_adc
    ___fldiv->_read_adc
    _init_uart->___lldiv
    _init_i2c->___lldiv
    _init_ds1307->_read_ds1307
    _init_clcd->_init_display_controller
    _init_display_controller->_clcd_write
    _download_log->_strncpy
    _puts->_putchar
    _store_eeprom->_write_ext_eeprom
    _read_ext_eeprom->_i2c_read
    _change_time->___awdiv
    _write_ds1307->_i2c_write
    _get_time->_read_ds1307
    _read_ds1307->_i2c_read
    _write_ext_eeprom->___bmul
    _handle_lockout->___lwmod
    ___lwmod->___lwdiv
    _detect_single_press->_read_digital_keypad
    _clcd_putch->___awdiv
    _clcd_print->_clcd_write

Critical Paths under _isr in COMMON

    None.

Critical Paths under _main in BANK0

    _main->_handle_menu_navigation
    _update_dashboard_display->___fltol
    ___fltol->___fldiv
    ___fldiv->___xxtofl
    _init_config->_init_i2c
    _init_config->_init_uart
    _init_uart->___lldiv
    _init_i2c->___lldiv
    _handle_menu_navigation->_enter_menu_option
    _enter_menu_option->_display_logs
    _display_logs->_store_eeprom
    _change_time->_clcd_putch
    _change_pass->_clcd_putch
    _handle_lockout->___lwmod
    _enter_password->_clcd_putch

Critical Paths under _isr in BANK0

    None.

Critical Paths under _main in BANK1

    None.

Critical Paths under _isr in BANK1

    None.

Critical Paths under _main in BANK3

    None.

Critical Paths under _isr in BANK3

    None.

Critical Paths under _main in BANK2

    None.

Critical Paths under _isr in BANK2

    None.

Call Graph Tables:

 ---------------------------------------------------------------------------------
 (Depth) Function   	        Calls       Base Space   Used Autos Params    Refs
 ---------------------------------------------------------------------------------
 (0) _main                                                10    10      0  179224
                                             65 BANK0      2     2      0
                                              0 BANK1      8     8      0
                         _clcd_print
                         _clcd_write
                _detect_single_press
                     _enter_password
                     _handle_lockout
             _handle_menu_navigation
                        _init_config
                    _read_ext_eeprom
                       _store_eeprom
           _update_dashboard_display
 ---------------------------------------------------------------------------------
 (1) _update_dashboard_display                             6     6      0   26643
                                             48 BANK0      6     6      0
                            ___fldiv
                            ___fltol
                            ___lwdiv
                            ___lwmod
                           ___xxtofl
                         _clcd_print
                       _display_time
                           _get_time
                           _read_adc
 ---------------------------------------------------------------------------------
 (2) _read_adc                                             6     4      2      65
                                              2 COMMON     6     4      2
 ---------------------------------------------------------------------------------
 (2) _display_time                                         2     2      0   10910
                                              9 COMMON     1     1      0
                                              0 BANK0      1     1      0
                         _clcd_print
 ---------------------------------------------------------------------------------
 (2) ___xxtofl                                            14    10      4     566
                                              0 BANK0     14    10      4
                           _read_adc (ARG)
 ---------------------------------------------------------------------------------
 (2) ___fltol                                             10     6      4     427
                                              8 COMMON     2     2      0
                                             40 BANK0      8     4      4
                            ___fldiv (ARG)
                           ___xxtofl (ARG)
                           _read_adc (ARG)
 ---------------------------------------------------------------------------------
 (2) ___fldiv                                             26    18      8    1863
                                             14 BANK0     26    18      8
                           ___xxtofl (ARG)
                           _read_adc (ARG)
 ---------------------------------------------------------------------------------
 (1) _init_config                                          0     0      0    5344
                           _init_adc
                          _init_clcd
                _init_digital_keypad
                        _init_ds1307
                           _init_i2c
                        _init_timer0
                          _init_uart
                               _puts
 ---------------------------------------------------------------------------------
 (2) _init_uart                                            8     4      4     722
                                              6 BANK0      8     4      4
                            ___lldiv
 ---------------------------------------------------------------------------------
 (2) _init_timer0                                          0     0      0       0
 ---------------------------------------------------------------------------------
 (2) _init_i2c                                             8     4      4     722
                                              6 BANK0      8     4      4
                            ___lldiv
 ---------------------------------------------------------------------------------
 (3) ___lldiv                                             14     6      8     601
                                              2 COMMON     8     0      8
                                              0 BANK0      6     6      0
 ---------------------------------------------------------------------------------
 (2) _init_ds1307                                          1     1      0     682
                                              6 COMMON     1     1      0
                        _read_ds1307
                       _write_ds1307
 ---------------------------------------------------------------------------------
 (2) _init_digital_keypad                                  0     0      0       0
 ---------------------------------------------------------------------------------
 (2) _init_clcd                                            0     0      0    2312
            _init_display_controller
 ---------------------------------------------------------------------------------
 (3) _init_display_controller                              2     2      0    2312
                                              6 COMMON     2     2      0
                         _clcd_write
 ---------------------------------------------------------------------------------
 (2) _init_adc                                             0     0      0       0
 ---------------------------------------------------------------------------------
 (1) _handle_menu_navigation                               5     4      1   93895
                                             63 BANK0      2     1      1
                         _clcd_print
                         _clcd_write
                _detect_single_press
                  _enter_menu_option
                _read_digital_keypad
 ---------------------------------------------------------------------------------
 (2) _enter_menu_option                                    4     4      0   80140
                                             59 BANK0      4     4      0
                        _change_pass
                        _change_time
                         _clcd_print
                         _clcd_write
                       _display_logs
                       _download_log
 ---------------------------------------------------------------------------------
 (3) _download_log                                        33    33      0    2735
                                              0 BANK0     33    33      0
                            _putchar
                               _puts
                    _read_ext_eeprom
                            _strncpy
 ---------------------------------------------------------------------------------
 (4) _strncpy                                              5     2      3     850
                                              2 COMMON     5     2      3
 ---------------------------------------------------------------------------------
 (2) _puts                                                 2     0      2     906
                                              3 COMMON     2     0      2
                            _putchar
 ---------------------------------------------------------------------------------
 (3) _putchar                                              1     1      0      31
                                              2 COMMON     1     1      0
 ---------------------------------------------------------------------------------
 (3) _display_logs                                        30    30      0   21658
                                             30 BANK0     29    29      0
                             ___bmul
                         _clcd_print
                         _clcd_putch
                         _clcd_write
                _detect_single_press
                _read_digital_keypad
                    _read_ext_eeprom
                       _store_eeprom
 ---------------------------------------------------------------------------------
 (1) _store_eeprom                                        30    30      0    2357
                                              0 BANK0     30    30      0
                             ___bmul
                    _read_ext_eeprom
                   _write_ext_eeprom
 ---------------------------------------------------------------------------------
 (2) _read_ext_eeprom                                      2     2      0     161
                                              4 COMMON     2     2      0
                           _i2c_read
                      _i2c_rep_start
                          _i2c_start
                           _i2c_stop
                          _i2c_write
 ---------------------------------------------------------------------------------
 (3) _change_time                                         18    18      0   23353
                                              2 BANK0     18    18      0
                            ___awdiv
                            ___awmod
                             ___bmul
                         _clcd_print
                         _clcd_putch
                         _clcd_write
                _detect_single_press
                           _get_time
                _read_digital_keypad
                       _write_ds1307
 ---------------------------------------------------------------------------------
 (3) _write_ds1307                                         2     1      1     453
                                              3 COMMON     2     1      1
                          _i2c_start
                           _i2c_stop
                          _i2c_write
 ---------------------------------------------------------------------------------
 (2) _get_time                                             1     1      0     326
                                              6 COMMON     1     1      0
                        _read_ds1307
 ---------------------------------------------------------------------------------
 (3) _read_ds1307                                          2     2      0     161
                                              4 COMMON     2     2      0
                           _i2c_read
                      _i2c_rep_start
                          _i2c_start
                           _i2c_stop
                          _i2c_write
 ---------------------------------------------------------------------------------
 (4) _i2c_rep_start                                        0     0      0       0
                          _i2c_start
                           _i2c_stop
 ---------------------------------------------------------------------------------
 (4) _i2c_read                                             2     2      0      65
                                              2 COMMON     2     2      0
                  _i2c_wait_for_idle
 ---------------------------------------------------------------------------------
 (2) ___bmul                                               3     2      1     766
                                              2 COMMON     3     2      1
 ---------------------------------------------------------------------------------
 (4) ___awmod                                              6     2      4    1693
                                              2 COMMON     6     2      4
 ---------------------------------------------------------------------------------
 (4) ___awdiv                                              8     4      4    1525
                                              2 COMMON     8     4      4
 ---------------------------------------------------------------------------------
 (3) _change_pass                                         24    24      0   19146
                                              2 BANK0     24    24      0
                         _clcd_print
                         _clcd_putch
                         _clcd_write
                _detect_single_press
                             _strcmp
                             _strcpy
                   _write_ext_eeprom
 ---------------------------------------------------------------------------------
 (2) _write_ext_eeprom                                     2     1      1     363
                                              5 COMMON     2     1      1
                             ___bmul (ARG)
                          _i2c_start
                           _i2c_stop
                          _i2c_write
 ---------------------------------------------------------------------------------
 (4) _i2c_write                                            1     1      0      31
                                              2 COMMON     1     1      0
                  _i2c_wait_for_idle
 ---------------------------------------------------------------------------------
 (4) _i2c_stop                                             0     0      0       0
                  _i2c_wait_for_idle
 ---------------------------------------------------------------------------------
 (4) _i2c_start                                            0     0      0       0
                  _i2c_wait_for_idle
 ---------------------------------------------------------------------------------
 (5) _i2c_wait_for_idle                                    0     0      0       0
 ---------------------------------------------------------------------------------
 (4) _strcpy                                               3     2      1     229
                                              2 COMMON     3     2      1
 ---------------------------------------------------------------------------------
 (1) _handle_lockout                                       3     3      0   18919
                                              4 BANK0      3     3      0
                            ___lwdiv
                            ___lwmod
                         _clcd_print
                         _clcd_putch
                         _clcd_write
 ---------------------------------------------------------------------------------
 (2) ___lwmod                                              5     1      4     952
                                              9 COMMON     1     1      0
                                              0 BANK0      4     0      4
                            ___lwdiv (ARG)
 ---------------------------------------------------------------------------------
 (2) ___lwdiv                                              7     3      4     781
                                              2 COMMON     7     3      4
 ---------------------------------------------------------------------------------
 (1) _enter_password                                      18    16      2   18260
                                              2 BANK0     18    16      2
                         _clcd_print
                         _clcd_putch
                         _clcd_write
                _detect_single_press
                             _strcmp
 ---------------------------------------------------------------------------------
 (4) _strcmp                                               5     3      2     413
                                              2 COMMON     5     3      2
 ---------------------------------------------------------------------------------
 (4) _detect_single_press                                  4     4      0     158
                                              4 COMMON     4     4      0
                _read_digital_keypad
 ---------------------------------------------------------------------------------
 (2) _read_digital_keypad                                  2     2      0      31
                                              2 COMMON     2     2      0
 ---------------------------------------------------------------------------------
 (4) _clcd_putch                                           2     1      1    4084
                                              0 BANK0      2     1      1
                            ___awdiv (ARG)
                            ___awmod (ARG)
                         _clcd_write
 ---------------------------------------------------------------------------------
 (3) _clcd_print                                           3     0      3   10688
                                              6 COMMON     3     0      3
                         _clcd_write
 ---------------------------------------------------------------------------------
 (4) _clcd_write                                           4     3      1    2312
                                              2 COMMON     4     3      1
 ---------------------------------------------------------------------------------
 Estimated maximum stack depth 5
 ---------------------------------------------------------------------------------
 (Depth) Function   	        Calls       Base Space   Used Autos Params    Refs
 ---------------------------------------------------------------------------------
 (9) _isr                                                  2     2      0       0
                                              0 COMMON     2     2      0
 ---------------------------------------------------------------------------------
 Estimated maximum stack depth 9
 ---------------------------------------------------------------------------------

 Call Graph Graphs:

 _main (ROOT)
   _clcd_print
     _clcd_write
   _clcd_write
   _detect_single_press
     _read_digital_keypad
   _enter_password
     _clcd_print
     _clcd_putch
       ___awdiv (ARG)
       ___awmod (ARG)
       _clcd_write (ARG)
     _clcd_write
     _detect_single_press
     _strcmp
   _handle_lockout
     ___lwdiv
     ___lwmod
       ___lwdiv (ARG)
     _clcd_print
     _clcd_putch
     _clcd_write
   _handle_menu_navigation
     _clcd_print
     _clcd_write
     _detect_single_press
     _enter_menu_option
       _change_pass
         _clcd_print
         _clcd_putch
         _clcd_write
         _detect_single_press
         _strcmp
         _strcpy
         _write_ext_eeprom
           ___bmul (ARG)
           _i2c_start (ARG)
             _i2c_wait_for_idle
           _i2c_stop (ARG)
             _i2c_wait_for_idle
           _i2c_write (ARG)
             _i2c_wait_for_idle
       _change_time
         ___awdiv
         ___awmod
         ___bmul
         _clcd_print
         _clcd_putch
         _clcd_write
         _detect_single_press
         _get_time
           _read_ds1307
             _i2c_read
               _i2c_wait_for_idle
             _i2c_rep_start
               _i2c_start
               _i2c_stop
             _i2c_start
             _i2c_stop
             _i2c_write
         _read_digital_keypad
         _write_ds1307
           _i2c_start
           _i2c_stop
           _i2c_write
       _clcd_print
       _clcd_write
       _display_logs
         ___bmul
         _clcd_print
         _clcd_putch
         _clcd_write
         _detect_single_press
         _read_digital_keypad
         _read_ext_eeprom
           _i2c_read
           _i2c_rep_start
           _i2c_start
           _i2c_stop
           _i2c_write
         _store_eeprom
           ___bmul
           _read_ext_eeprom
           _write_ext_eeprom
       _download_log
         _putchar
         _puts
           _putchar
         _read_ext_eeprom
         _strncpy
     _read_digital_keypad
   _init_config
     _init_adc
     _init_clcd
       _init_display_controller
         _clcd_write
     _init_digital_keypad
     _init_ds1307
       _read_ds1307
       _write_ds1307
     _init_i2c
       ___lldiv
     _init_timer0
     _init_uart
       ___lldiv
     _puts
   _read_ext_eeprom
   _store_eeprom
   _update_dashboard_display
     ___fldiv
       ___xxtofl (ARG)
         _read_adc (ARG)
       _read_adc (ARG)
     ___fltol
       ___fldiv (ARG)
       ___xxtofl (ARG)
       _read_adc (ARG)
     ___lwdiv
     ___lwmod
     ___xxtofl
     _clcd_print
     _display_time
       _clcd_print
     _get_time
     _read_adc

 _isr (ROOT)

 Address spaces:
Name               Size   Autos  Total    Cost      Usage
BANK3               60      0       0       9        0.0%
BITBANK3            60      0       0       8        0.0%
SFR3                 0      0       0       4        0.0%
BITSFR3              0      0       0       4        0.0%
BANK2               60      0       0      11        0.0%
BITBANK2            60      0       0      10        0.0%
SFR2                 0      0       0       5        0.0%
BITSFR2              0      0       0       5        0.0%
BANK1               50      8      3A       7       72.5%
BITBANK1            50      0       0       6        0.0%
SFR1                 0      0       0       2        0.0%
BITSFR1              0      0       0       2        0.0%
BANK0               50     43      4D       5       96.2%
BITBANK0            50      0       0       4        0.0%
SFR0                 0      0       0       1        0.0%
BITSFR0              0      0       0       1        0.0%
COMMON               E      A       C       1       85.7%
BITCOMMON            E      0       0       0        0.0%
CODE                 0      0       0       0        0.0%
DATA                 0      0      93      12        0.0%
ABS                  0      0      93       3        0.0%
NULL                 0      0       0       0        0.0%
STACK                0      0       0       2        0.0%
EEDATA             100      0       0       0        0.0%


Microchip Technology PIC Macro Assembler V2.46 build 20240104201356 
Symbol Table                                                                                   Thu Oct 24 23:53:13 2024

                            ___fldiv@aexp 0047                              ___fldiv@bexp 0046  
                                       _i 0067                                         pc 0002  
handle_menu_navigation@long_press_counter 005F                              ___fldiv@sign 003F  
                          ___bmul@product 0073                            clcd_print@addr 0078  
                                      l20 1338                                        l23 080B  
                                      l32 11B5                                        l17 1FFF  
                                      l26 1F77                                        l53 1F4F  
                                      l62 14C9                                        l56 1102  
                                      l65 105F                                        l59 101D  
                                      l94 07FF                                        l97 1F20  
                                      _GO 00FA                              ___awdiv@sign 0077  
                                      fsr 0004                                       l100 1F2C  
                                     l103 1EEC                                       l112 1039  
                                     l113 103C                                       l114 103E  
                                     l106 1F14                                       l202 089D  
                                     l109 1EF5                                       l117 1F09  
                                     l240 1EDB                                       l243 1FD1  
                                     l308 0B67                                       l332 1EFE  
                                     l253 1ED4                                       l246 1FDF  
                                     l192 15D2                                       l425 10AD  
                                     l521 0E44                                       l361 1F1F  
                                     l530 05ED                                       l186 129F  
                                     l259 10D7                                       l291 1FC0  
                                     l428 17FF                                       l461 0CC2  
                                     l349 11E5                                       l358 1F16  
                                     l703 1F8C                                       l367 1085  
                                     l455 0C8C                                       l288 112D  
                                     l545 0346                                       l713 1460  
                                     l490 0FFE                                       l547 0345  
                                     l483 0F99                                       l563 168B  
                                     l573 168B                                       l830 13F8  
                                     l494 0FFF                                       l843 1391  
                                     l589 0A28                                       l871 1541  
                                     l881 1541                                       l957 12E3  
                                     l878 152C                                       l967 125C  
                                     _GIE 005F                                       _RE1 0049  
                                     _RE2 004A                             ?_display_logs 0070  
                                     _PEN 048A                                       _SEN 0488  
                                     _PSA 040B                             ?_display_time 0070  
                                     _isr 112E                            clcd_putch@addr 0020  
                                     fsr0 0004                            clcd_putch@data 0021  
                                     indf 0000                              ___awmod@sign 0077  
                  detect_single_press@key 0077                              ___fltol@exp1 0079  
                                    l1120 1745                                      l1050 048F  
                                    l1034 039D                                      l1131 170F  
                                    l1036 0515                                      l1132 171B  
                                    l1141 1186                                      l1118 16B0  
                                    l1056 0501                                      l1147 1FA2  
                                    l1157 1220                     ??_read_digital_keypad 0072  
                                    l4101 101F                                      l4111 103D  
                                    l4103 1024                                      l4121 1FF3  
                                    l5001 12AB                                      l4105 102C  
                                    l4201 1060                                      l4115 1FE1  
                                    l4211 1093                                      l5011 12D1  
                                    l5003 12B2                                      l4107 1030  
                                    l4123 10D9                                      l4131 112C  
                                    l4203 1061                                      l4117 1FEB  
                                    l4221 10AA                                      l4213 109A  
                                    l5013 12D2                                      l5005 12B6  
                                    l5021 1221                                      l4109 1035  
                                    l4125 1101                                      l4301 0B56  
                                    l4205 106F                                      l5101 03E6  
                                    l4119 1FED                                      l4143 10B9  
                                    l4135 10AF                                      l4215 10A0  
                                    l4311 1164                                      l5015 12D9  
                                    l5007 12BA                                      l5031 123B  
                                    l5023 1229                                      l4303 0B61  
                                    l4231 0A39                                      l4207 1075  
                                    l5111 040F                                      l5103 03EE  
                                    l4145 10C4                                      l4137 10B4  
                                    l4217 10A6                                      l4209 1086  
                                    l4313 1171                                      l4305 115B  
                                    l5009 12CB                                      l5017 12DF  
                                    l5033 1245                                      l5025 122C  
                                    l4321 1F90                                      l4081 1F26  
                                    l4401 135E                                      l4129 1104  
                                    l4241 0A4B                                      l4225 0A29  
                                    l5121 0430                                      l5113 0413  
                                    l5105 03F6                                      l5201 16C1  
                                    l4147 10C9                                      l4155 10CB  
                                    l4315 1178                                      l4307 115C  
                                    l5035 124B                                      l5027 1233  
                                    l4083 1EE4                                      l4091 1F00  
                                    l4163 1FA4                                      l4411 137D  
                                    l4403 1362                                      l4171 1F79  
                                    l4243 0A63                                      l4235 0A47  
                                    l4227 0A31                                      l4331 1203  
                                    l4323 11E7                                      l5131 0452  
                                    l5123 043E                                      l5115 0414  
                                    l5107 03F8                                      l5051 0355  
                                    l5043 0347                                      l5211 16DC  
                                    l5203 16C4                                      l4157 10D4  
                                    l4309 1160                                      l5301 0918  
                                    l5037 1252                                      l5029 1237  
                                    l4085 1EE9                                      l4093 1F05  
                                    l4341 1393                                      l4405 1366  
                                    l4413 1383                                      l4181 1F86  
                                    l4173 1F7A                                      l4253 0A7C  
                                    l4245 0A6B                                      l4229 0A33  
                                    l4501 0F1F                                      l4165 1F16  
                                    l4333 120A                                      l4325 11EA  
                                    l4421 12E4                                      l5133 045B  
                                    l5141 046F                                      l5109 03FD  
                                    l5117 041D                                      l5125 0442  
                                    l5053 035A                                      l5061 036A  
                                    l5045 034C                                      l5221 1709  
                                    l5213 16EA                                      l5205 16C8  
                                    l4191 118F                                      l4159 10D6  
                                    l5311 093E                                      l5303 0921  
                                    l5039 1258                                      l4319 1F8E  
                                    l4079 1F20                                      l4087 1EED  
                                    l4095 1F09                                      l4351 13A7  
                                    l4343 1397                                      l4415 1388  
                                    l4407 1370                                      l4183 1F8B  
                                    l4175 1F7E                                      l4271 0AC4  
                                    l4255 0A94                                      l4247 0A78  
                                    l4263 0AB2                                      l4511 0F45  
                                    l4503 0F24                                      l4167 1F1C  
                                    l4335 120E                                      l4327 11F0  
                                    l4431 1317                                      l4423 12EC  
                                    l5143 0473                                      l5135 045F  
                                    l5127 0448                                      l5119 042F  
                                    l5071 0380                                      l5063 0372  
                                    l5055 035F                                      l5047 0350  
                                    l5231 173C                                      l5223 1713  
                                    l5215 16F3                                      l5207 16D1  
                                    l4193 119F                                      l5321 0961  
                                    l5313 0946                                      l5305 0923  
                                    l4089 1EF2                                      l4601 0D57  
                                    l4361 13BD                                      l4353 13AB  
                                    l4345 139C                                      l4417 138D  
                                    l4409 1376                                      l4177 1F82  
                                    l4273 0ACA                                      l4257 0A9C  
                                    l4521 0F6C                                      l4513 0F55  
                                    l4505 0F2A                                      l4441 0E4C  
                                    l4169 1F1E                                      l4337 1212  
                                    l5401 0BD8                                      l4433 131C  
                                    l4425 12F3                                      l5241 1267  
                                    l5161 04C4                                      l5153 0494  
                                    l5145 0474                                      l5137 0460  
                                    l5129 0450                                      l5073 0385  
                                    l5081 0395                                      l5065 0377  
                                    l5057 0367                                      l5049 0354  
                                    l5233 173D                                      l5225 171D  
                                    l5217 16FA                                      l5209 16D8  
                                    l4195 11A5                                      l4187 1F66  
                                    l5331 0981                                      l5323 0966  
                                    l5315 094D                                      l5307 0927  
                                    l4611 0D7D                                      l4603 0D5F  
                                    l4371 13DD                                      l4363 13C1  
                                    l4355 13AD                                      l4347 139E  
                                    l4339 1392                                      l4179 1F84  
                                    l4099 1F0A                                      l4283 0B0D  
                                    l4275 0AD7                                      l4259 0AA9  
                                    l4531 0F86                                      l4523 0F72  
                                    l4515 0F57                                      l4507 0F35  
                                    l4443 0E54                                      l5411 0BFF  
                                    l5403 0BDF                                      l4435 132C  
                                    l4427 1303                                      l5251 1286  
                                    l5243 1276                                      l5171 04F8  
                                    l5155 0499                                      l5163 04CA  
                                    l5147 0478                                      l5139 0469  
                                    l5083 03A5                                      l5091 03BE  
                                    l5075 038A                                      l5067 037B  
                                    l5059 0368                                      l5227 1733  
                                    l5219 1705                                      l4189 1187  
                                    l5341 09AC                                      l5325 096A  
                                    l5317 0955                                      l5333 0987  
                                    l5309 0932                                      l5261 154B  
                                    l4621 0D9D                                      l4613 0D82  
                                    l4605 0D69                                      l4373 13E4  
                                    l4365 13C5                                      l4357 13B3  
                                    l4349 13A2                                      l4197 1001  
                                    l4285 0B1B                                      l4277 0B0B  
                                    l4269 0AB7                                      l4541 0FA4  
                                    l4533 0F8C                                      l4525 0F78  
                                    l4509 0F3B                                      l4517 0F62  
                                    l4453 0E6E                                      l4445 0E5F  
                                    l4701 05B7                                      l5421 0C18  
                                    l5413 0C07                                      l5405 0BEA  
                                    l4437 1333                                      l4429 130D  
                                    l5253 1287                                      l5245 127B  
                                    l5237 125D                                      l5181 050F  
                                    l5173 0500                                      l5165 04D7  
                                    l5157 04A7                                      l5149 048C  
                                    l5093 03C3                                      l5085 03B1  
                                    l5077 0392                                      l5069 037F  
                                    l5229 1738                                      l5501 08C1  
                                    l5351 09CB                                      l5335 0992  
                                    l5327 0970                                      l5319 095B  
                                    l5271 15A3                                      l5263 1556  
                                    l4631 0DC5                                      l4615 0D86  
                                    l4607 0D71                                      l4623 0DA3  
                                    l4367 13D6                                      l4359 13B6  
                                    l4375 13EA                                      l4391 1345  
                                    l4383 1339                                      l4199 1040  
                                    l4711 0043                                      l4295 0B32  
                                    l4287 0B21                                      l4551 0FDE  
                                    l4543 0FB5                                      l4535 0F92  
                                    l4527 0F7F                                      l4519 0F68  
                                    l4471 0EB9                                      l4455 0E7C  
                                    l4447 0E6A                                      l4439 0E45  
                                    l4703 05CC                                      l5431 0C6D  
                                    l5423 0C2F                                      l5415 0C0A  
                                    l5407 0BF1                                      l5255 1296  
                                    l5247 1280                                      l5239 1262  
                                    l5175 0505                                      l5167 04E5  
                                    l5159 04AB                                      l5087 03B5  
                                    l5079 0393                                      l5191 1694  
                                    l5503 08CC                                      l5511 08EB  
                                    l5361 0A0A                                      l5353 09DA  
                                    l5337 0993                                      l5329 0979  
                                    l5281 15D1                                      l5273 15AE  
                                    l5265 1569                                      l5257 1542  
                                    l4641 0DE2                                      l4625 0DAE  
                                    l4617 0D8C                                      l4609 0D77  
                                    l4561 0CC3                                      l4377 13EF  
                                    l4369 13DC                                      l4393 1349  
                                    l4385 133A                                      l4801 028E  
                                    l4721 0068                                      l4713 0049  
                                    l4297 0B41                                      l4289 0B2E  
                                    l4553 0FED                                      l4545 0FBD  
                                    l4481 0ED5                                      l4465 0E95  
                                    l4457 0E84                                      l4705 05D2  
                                    l5433 0C75                                      l5425 0C37  
                                    l5417 0C0B                                      l5409 0BF6  
                                    l5249 1285                                      l5177 0509  
                                    l5169 04F4                                      l5097 03CC  
                                    l5193 1698                                      l5521 0905  
                                    l5505 08D7                                      l5441 080C  
                                    l5363 0A15                                      l5355 09E5  
                                    l5339 09A1                                      l5347 09B3  
                                    l5275 15B9                                      l5267 1589  
                                    l5259 1543                                      l4651 0E14  
                                    l4643 0DEF                                      l4627 0DAF  
                                    l4619 0D95                                      l4571 0CEA  
                                    l4563 0CC7                                      l4379 13F4  
                                    l4395 134E                                      l4387 133E  
                                    l4811 02F3                                      l4803 0298  
                                    l4731 009C                                      l4723 0070  
                                    l4715 004C                                      l4299 0B49  
                                    l4555 0FF4                                      l4539 0F99  
                                    l4491 0EF6                                      l4483 0EE2  
                                    l4467 0EA4                                      l4459 0E91  
                                    l4547 0FC2                                      l4707 05D8  
                                    l5427 0C4E                                      l5435 0C8C  
                                    l5419 0C0F                                      l5371 0B70  
                                    l5179 050B                                      l5099 03DE  
                                    l5195 16A8                                      l5291 1772  
                                    l5283 1746                                      l5515 08F2  
                                    l5507 08E1                                      l5523 0909  
                                    l5443 0811                                      l5357 09F5  
                                    l5365 0A24                                      l5349 09C0  
                                    l5269 159A                                      l5277 15C4  
                                    l4653 0E1F                                      l4645 0DF6  
                                    l4637 0DCB                                      l4629 0DBD  
                                    l4581 0D0D                                      l4573 0CF4  
                                    l4565 0CCB                                      l4397 1354  
                                    l4389 1343                                      l4821 032E  
                                    l4813 030E                                      l4805 02B3  
                                    l4741 00EF                                      l4733 00BC  
                                    l4725 0075                                      l4717 0053  
                                    l4557 0FF8                                      l4549 0FC8  
                                    l4493 0EFE                                      l4477 0EBD  
                                    l4469 0EAC                                      l4709 05E4  
                                    l4661 0516                                      l5437 0C95  
                                    l5429 0C56                                      l5381 0B8F  
                                    l5373 0B70                                      l5197 16B8  
                                    l5189 168F                                      l4901 1FD0  
                                    l5293 17BA                                      l5285 1751  
                                    l5517 08FA                                      l5509 08E8  
                                    l5461 083F                                      l5445 0817  
                                    l5359 09FC                                      l5279 15CF  
                                    l4655 0E2A                                      l4647 0E01  
                                    l4639 0DDA                                      l4583 0D11  
                                    l4575 0CFC                                      l4591 0D2E  
                                    l4567 0CD6                                      l4399 1357  
                                    l4807 02CE                                      l4743 00F8  
                                    l4727 0076                                      l4735 00DC  
                                    l4719 005D                                      l4495 0F0B  
                                    l4479 0ECD                                      l4671 0527  
                                    l4663 051B                                      l4911 15E7  
                                    l5439 0CAC                                      l5391 0BB9  
                                    l5383 0B9A                                      l5375 0B7B  
                                    l4831 140E                                      l4903 1FD5  
                                    l5295 17DD                                      l5287 1757  
                                    l5519 08FF                                      l5471 085C  
                                    l5463 0842                                      l5455 081C  
                                    l5447 0818                                      l4657 0E39  
                                    l4649 0E0D                                      l4593 0D39  
                                    l4585 0D17                                      l4577 0D02  
                                    l4569 0CE2                                      l4817 0316  
                                    l4825 033A                                      l4809 02D8  
                                    l4761 013D                                      l4745 00FD  
                                    l4737 00E2                                      l4753 0112  
                                    l4729 007C                                      l4497 0F13  
                                    l4489 0EE6                                      l4681 0559  
                                    l4673 0535                                      l4665 0525  
                                    l4921 1605                                      l4913 15EE  
                                    l5393 0BBC                                      l5385 0BA6  
                                    l5377 0B7F                                      l5369 0B6B  
                                    l4841 143A                                      l4833 1417  
                                    l5297 17F3                                      l5289 175D  
                                    l5473 0862                                      l5465 0849  
                                    l5457 082A                                      l5449 081A  
                                    l4659 0E40                                      l4595 0D3C  
                                    l4587 0D20                                      l4579 0D08  
                                    l4819 0322                                      l4771 01CA  
                                    l4763 0148                                      l4755 0118  
                                    l4747 0102                                      l4739 00EA  
                                    l4499 0F19                                      l4691 058A  
                                    l4683 0568                                      l4675 053D  
                                    l4931 162E                                      l4923 1609  
                                    l4915 15F4                                      l4907 15D6  
                                    l5387 0BB0                                      l5395 0BC0  
                                    l5379 0B88                                      l4843 1448  
                                    l4835 141B                                      l4827 13F9  
                                    l5299 17F4                                      l5491 0893  
                                    l5483 087E                                      l5475 0868  
                                    l5467 084E                                      l5459 0832  
                                    l4597 0D40                                      l4589 0D28  
                                    l4781 0225                                      l4773 0200  
                                    l4765 0150                                      l4749 0108  
                                    l4757 012C                                      l4693 0593  
                                    l4685 056B                                      l4677 054A  
                                    l4941 1656                                      l4933 1634  
                                    l4925 1614                                      l4917 15F9  
                                    l4909 15DD                                      l5397 0BCB  
                                    l5389 0BB5                                      l4853 0801  
                                    l4861 1F3D                                      l4845 1449  
                                    l4837 141F                                      l4829 140B  
                                    l5493 0899                                      l5485 0884  
                                    l5477 086E                                      l5469 0856  
                                    l4599 0D4B                                      l4783 0234  
                                    l4775 0208                                      l4767 0184  
                                    l4791 0243                                      l4759 0137  
                                    l4695 059C                                      l4687 057A  
                                    l4679 054D                                      l4951 1679  
                                    l4943 1665                                      l4935 163B  
                                    l4927 1623                                      l4919 15FF  
                                    l5399 0BCF                                      l4855 0804  
                                    l4863 1F44                                      l4847 1452  
                                    l4839 1428                                      l4871 1481  
                                    l5495 089E                                      l5487 088C  
                                    l5479 0877                                      l4793 0250  
                                    l4785 023B                                      l4777 020F  
                                    l4769 018C                                      l4697 05A5  
                                    l4689 0583                                      l4953 167F  
                                    l4937 1640                                      l4929 1628  
                                    l4857 0805                                      l4865 1F47  
                                    l4849 1458                                      l4881 07CE  
                                    l4873 1493                                      l5497 08B0  
                                    _ADFM 04FF                                      l4795 0252  
                                    l4779 021A                                      l4699 05AE  
                                    l4955 1685                                      l4939 164B  
                                    l4947 166D                                      l4859 0806  
                                    l4883 07D1                                      l4891 1EF6  
                                    l4971 14FC                                      l4963 14DE  
                                    l4875 149D                                      l4867 1464  
                                    l5499 08B7                                      ?_isr 0070  
                                    l4797 025A                                      l4789 0240  
                                    l4949 1673                                      l4885 07FC  
                                    l4893 1EFA                                      l4981 1511  
                                    l4973 1500                                      l4965 14F1  
                                    l4957 14CA                                      l4877 14BD  
                                    l4869 147F                                      l4799 0273  
                                    l4887 1ED5                                      l4895 11B6  
                                    l4991 1531                                      l4983 151A  
                                    l4967 14F2                                      l4959 14D5  
                                    l4879 14BE                                      l4889 1ECF  
                                    l4897 11BA                                      l4993 1536  
                                    l4969 14FA                                      l4995 12A0  
                                    l4979 1508                                      l4899 1FC2  
                                    l4997 12A2                                      l4989 1521  
                                    l4999 12A8                                      _ADON 00F8  
                                    STR_1 07C6                                      STR_2 07C3  
                                    STR_3 07B7                                      STR_4 07BA  
                                    STR_5 07BD                                      STR_6 07C0  
                                    STR_7 07C9                                      STR_8 07B4  
                                    STR_9 069F                               main@attempt 00D7  
                                    _CREN 00C4                                      _T0CS 040D  
                                    u5000 1388                                      u5001 1387  
                                    u5010 0E54                                      u5011 0E53  
                                    u5100 0F55                                      u5020 0E91  
                                    u5101 0F54                                      u5021 0E90  
                                    u5110 0F68                                      u5030 0EB9  
                                    u5111 0F67                                      u5031 0EB8  
                                    u5200 0CFC                                      u5120 0F78  
                                    u5040 0EE2                                      u6000 035F  
                                    u5201 0CFB                                      u5121 0F77  
                                    u5105 0F51                                      u5041 0EE1  
                                    u5025 0E8D                                      u6001 035E  
                                    u5210 0D02                                      u5130 0F7F  
                                    u5050 0F0B                                      u6010 037F  
                                    u5211 0D01                                      u5131 0F7E  
                                    u5051 0F0A                                      u5035 0EB5  
                                    u6011 037E                                      u5220 0D08  
                                    u5140 0F8C                                      u5060 0F19  
                                    u5300 054A                                      u6020 0385  
                                    u5221 0D07                                      u5141 0F8B  
                                    u5061 0F18                                      u5045 0EDE  
                                    u5301 0549                                      u6021 0384  
                                    u5230 0D39                                      u5150 0F92  
                                    u5070 0F1F                                      u5310 0583  
                                    u6110 042F                                      u6030 038A  
                                    u5231 0D38                                      u5151 0F91  
                                    u5071 0F1E                                      u5055 0F07  
                                    u5311 0582                                      u6111 042E  
                                    u6031 0389                                      u4600 10D4  
                                    u4520 1F26                                      u5240 0D71  
                                    u5400 0102                                      u5160 0FA4  
                                    u5080 0F3B                                      u5320 05E4  
                                    u6200 0493                                      u6120 0448  
                                    u6040 03A5                                      u4601 10D3  
                                    u4521 1F25                                      u5241 0D70  
                                    u5401 0101                                      u5161 0FA3  
                                    u5081 0F3A                                      u5321 05E3  
                                    u5305 0546                                      u6201 0492  
                                    u6121 0447                                      u6105 0416  
                                    u6041 03A4                                      u4530 1F2C  
                                    u5250 0D77                                      u5410 0108  
                                    u5330 0075                                      u5170 0FB5  
                                    u5090 0F45                                      u4610 1F1C  
                                    u6210 0499                                      u6130 0450  
                                    u6050 03C3                                      u4531 1F2B  
                                    u5251 0D76                                      u5411 0107  
                                    u5331 0074                                      u5171 0FB4  
                                    u5091 0F44                                      u4611 1F1B  
                                    u6211 0498                                      u6131 044F  
                                    u6115 042B                                      u6051 03C2  
                                    _PEIE 005E                                      u5260 0D7D  
                                    u4620 1F7E                                      u4540 1035  
                                    u5500 0258                                      u5420 0111  
                                    u4700 0A78                                      u5180 0FC8  
                                    u6220 04AB                                      u6060 03FD  
                                    u5261 0D7C                                      u4621 1F7D  
                                    u4541 1034                                      u5501 0256  
                                    u5421 0110                                      u4701 0A77  
                                    u5181 0FC7                                      u5325 05E0  
                                    u6221 04AA                                      u6061 03FC  
                                    u4550 1FE8                                      u5270 0DAE  
                                    u4630 1F8B                                      u5510 0259  
                                    u5430 0118                                      u4710 0AA9  
                                    u5190 0FFD                                      u6230 04BA  
                                    u6150 045F                                      u6310 16D7  
                                    u4551 1FE4                                      u5271 0DAD  
                                    u4631 1F8A                                      u5431 0117  
                                    u4711 0AA8                                      u5191 0FFC  
                                    u5095 0F41                                      u6151 045E  
                                    u6311 16D6                                      u4640 11B5  
                                    u5280 0DBD                                      u5520 0315  
                                    u5440 0137                                      u4720 0AD7  
                                    u4800 1209                                      u6240 04D7  
                                    u6400 173C                                      u4641 11B4  
                                    u5281 0DBC                                      u5521 0314  
                                    u5441 0136                                      u5345 008C  
                                    u4721 0AD6                                      u4705 0A74  
                                    u4801 1208                                      u6241 04D6  
                                    u6145 0454                                      u6401 173B  
                                    u6305 16C9                                      u4570 10B4  
                                    u6410 15CF                                      u5290 0DEF  
                                    u5450 0150                                      u5370 00E2  
                                    u4730 0B2E                                      u4650 1085  
                                    u4810 1220                                      u5530 140B  
                                    u6250 04F4                                      u6170 0473  
                                    u6090 0413                                      u6330 16F9  
                                    u4571 10B3                                      u6411 15CE  
                                    u5291 0DEE                                      u5451 014F  
                                    u5371 00E1                                      u5355 00AC  
                                    u4731 0B2D                                      u4715 0AA5  
                                    u4651 1084                                      u4811 121F  
                                    u5531 140A                                      u6251 04F3  
                                    u6235 04B5                                      u6171 0472  
                                    u6091 0412                                      u6075 03FF  
                                    u6331 16F8                                      u4564 1FEB  
                                    u4580 10C4                                      u4660 10A0  
                                    u6420 091C                                      u4900 13EA  
                                    u4820 1397                                      u5380 00EF  
                                    u4740 0B56                                      u5700 162E  
                                    u6500 0B8F                                      u6260 0509  
                                    u6180 0478                                      _RCEN 048B  
                                    _RCIF 0065                                      u4581 10C3  
                                    u4661 109F                                      u4901 13E9  
                                    u4821 1396                                      u5381 00EE  
                                    u5365 00CC                                      u4741 0B55  
                                    u4725 0AD3                                      u5701 162D  
                                    u6501 0B8E                                      u6261 0508  
                                    u6245 04D3                                      u6181 0477  
                                    u6165 0462                                      u6085 0408  
                                    u6325 16EB                                      u5605 146A  
                                    u4590 10C9                                      u4670 10A6  
                                    u6430 0955                                      u4910 13EF  
                                    u4830 13A2                                      u5390 00F8  
                                    u4750 0B61                                      u5710 1634  
                                    u6510 0B9A                                      u5550 141F  
                                    u5630 07DF                                      u6190 048C  
                                    u6350 1709                                      u6270 1694  
                                    u4591 10C8                                      u4671 10A5  
                                    u6431 0954                                      u5295 0DEB  
                                    u4911 13EE                                      u4831 13A1  
                                    u5391 00F7                                      u4751 0B60  
                                    u4735 0B2A                                      u5711 1633  
                                    u6511 0B99                                      u5551 141E  
                                    u6255 04F0                                      u6191 048B  
                                    u6351 1708                                      u6271 1693  
                                    u5615 1488                                      u4760 1171  
                                    u6440 095B                                      u4840 13B3  
                                    u4920 133E                                      u4680 0A31  
                                    u5720 1673                                      u6600 0C75  
                                    u6520 0BB0                                      u5640 11C8  
                                    u5800 1519                                      u6360 170F  
                                    u6280 1698                                      u4761 1170  
                                    u6441 095A                                      u4841 13B2  
                                    u4921 133D                                      u5465 017B  
                                    u4745 0B52                                      u4681 0A30  
                                    u5721 1672                                      u6601 0C74  
                                    u6521 0BAF                                      u5545 1410  
                                    u5801 1518                                      u6361 170E  
                                    u6345 16FE                                      u6281 1697  
                                    u5625 14A7                                      u4770 1178  
                                    u6450 0961                                      u4930 1349  
                                    u5490 0250                                      u4690 0A46  
                                    u5730 1679                                      u6610 0C95  
                                    u6530 0BCB                                      u5570 143A  
                                    u5810 1520                                      u6370 1713  
                                    u6290 16B8                                      u4771 1177  
                                    u6451 0960                                      u4931 1348  
                                    u5491 024F                                      u5475 01B9  
                                    u4691 0A45                                      u5731 1678  
                                    u6611 0C94                                      u6531 0BCA  
                                    u5571 1439                                      u5635 07DA  
                                    u5811 151F                                      u6371 1712  
                                    u6291 16B7                                      u6460 0992  
                                    u4780 1FA2                                      u4860 13C5  
                                    u4940 1354                                      u5740 1685  
                                    u6540 0BDF                                      u6380 1728  
                                    u5660 1FD5                                      u6700 08B0  
                                    u6620 083F                                      u6461 0991  
                                    u4781 1FA1                                      u4861 13C4  
                                    u4941 1353                                      u5485 01F7  
                                    u5741 1684                                      u6541 0BDE  
                                    u5565 1421                                      u5645 11C3  
                                    u5661 1FD4                                      u6701 08AF  
                                    u6621 083E                                      u6470 09A1  
                                    u5910 12DF                                      u4790 1202  
                                    u5670 15EE                                      u6550 0BEA  
                                    u5590 1458                                      u5830 1531  
                                    u5750 14D5                                      u6390 1738  
                                    u6710 08E8                                      u6630 0849  
                                    u6471 09A0                                      u5911 12DE  
                                    u4855 13B7                                      u4695 0A42  
                                    u4791 1201                                      u5671 15ED  
                                    u6551 0BE9                                      u5591 1457  
                                    u5575 1436                                      u5831 1530  
                                    u5751 14D4                                      u6391 1737  
                                    u5655 1FC5                                      u6711 08E7  
                                    u6631 0848                                      u6480 09F5  
                                    u5920 1229                                      u4880 13D6  
                                    u4960 1366                                      u5680 15F9  
                                    u6560 0C07                                      u5840 1536  
                                    u5760 14EC                                      u6720 08F1  
                                    u6640 085C                                      u6481 09F4  
                                    u5905 12D3                                      u5921 1228  
                                    u4881 13D5                                      u4961 1365  
                                    u5681 15F8                                      u6561 0C06  
                                    u5585 144A                                      u5841 1535  
                                    u5825 1523                                      u6385 1723  
                                    u6721 08F0                                      u6641 085B  
                                    u6625 083B                                      u5850 12A8  
                                    u4970 1370                                      u5690 15FF  
                                    u6570 0C18                                      u6490 0B7B  
                                    u5770 1500                                      u6730 08FA  
                                    u6650 086E                                      u5851 12A7  
                                    u4875 13C6                                      u4971 136F  
                                    u4955 1358                                      u5691 15FE  
                                    u6571 0C17                                      u6491 0B7A  
                                    u5771 14FF                                      u6731 08F9  
                                    u6651 086D                                      u5940 123B  
                                    u6580 0C37                                      u5780 1507  
                                    u6740 0911                                      u6660 0877  
                                    u5941 123A                                      u4885 13D2  
                                    u6581 0C36                                      u5781 1506  
                                    u5765 14E7                                      u6741 0910  
                                    u6661 0876                                      u5870 12BA  
                                    u5950 1245                                      u4990 1383  
                                    u6590 0C56                                      u6670 0884  
                                    u5871 12B9                                      u5951 1244  
                                    u5935 122D                                      u4895 13DE  
                                    u4991 1382                                      u4975 136C  
                                    u6591 0C55                                      u6807 1335  
                                    u6671 0883                                      u6680 088C  
                                    u5865 12AC                                      u4985 1377  
                                    u6817 15E3                                      u6681 088B  
                                    u5890 12CB                                      u5970 1258  
                                    u6690 0899                                      u5891 12CA  
                                    u5971 1257                                      u5955 1241  
                                    u6907 0E32                                      u6827 161C  
                                    u5795 1509                                      u6691 0898  
                                    u5980 0354                                      u6917 094A  
                                    u5885 12BB                                      u5965 124C  
                                    u6837 165E                                      u5981 0353  
                                    u6757 08BD                                      u5990 035A  
                                    u6927 09D3                                      u5895 12C7  
                                    u6847 0FE6                                      u6767 12E8  
                                    u5991 0359                                      u6937 0A1D  
                                    u6857 0059                                      u6777 12F7  
                                    u6947 108C                                      u6867 0143  
                                    u6787 1319                                      u6957 1FF0  
                                    u6877 022D                                      u6797 1327  
                                    u6967 1FFA                                      u6887 0CF0  
                                    u6897 0D65                                      _TMR0 0001  
                                    _SPEN 00C7                                      _TXIF 0064  
                                    _R_nW 04A2                                      _main 080C  
                                    _pass 00B7                                      _time 00AE  
                                    btemp 007E                                      _puts 1060  
                                    start 000C                           ___fldiv@new_exp 0040  
                       ___bmul@multiplier 0074                            clcd_write@byte 0075  
                          clcd_write@mode 0072                  ??_handle_menu_navigation 007A  
                           _i2c_rep_start 1F0A                 ?_update_dashboard_display 0070  
             enter_menu_option@down_press 005E                                     ??_isr 0070  
                            ?_init_ds1307 0070                     enter_password@attempt 0022  
                           ___fltol@sign1 0078                            ??_display_logs 003E  
                                   ?_main 0070                              ?_read_ds1307 0070  
                                   _ACKEN 048C                                     _ACKDT 048D  
                          ??_display_time 0079                           __end_of___fldiv 0516  
                         __end_of___awdiv 13F9                                     STR_10 0794  
                                   STR_11 07AD                                     STR_12 0727  
                                   STR_20 0719                                     STR_21 0719  
                                   STR_13 0735                                     STR_22 06EF  
                                   STR_14 065B                                     STR_30 064A  
                                   STR_15 0727                                     STR_23 07CC  
                                   STR_31 0639                                     STR_24 0648  
                                   STR_40 0646                                     STR_16 0735  
                                   STR_32 067D                                     STR_41 0644  
                                   STR_33 0639                                     STR_17 0735  
                                   STR_25 07CC                                     STR_26 0648  
                                   STR_34 076A                                     STR_18 070B  
                                   STR_50 06D0                                     STR_42 0620  
                                   STR_19 070B                                     STR_35 07A5  
                                   STR_51 075D                                     STR_43 06C0  
                                   STR_27 066C                                     STR_52 064A  
                                   STR_36 0685                                     STR_28 0781  
                                   STR_44 0743                           __end_of___awmod 1392  
                                   STR_53 0639                                     STR_37 078B  
                                   STR_29 0776                                     STR_45 0750  
                                   STR_46 0647                                     STR_54 068E  
                                   STR_38 0600                                     STR_47 0647  
                                   STR_39 079D                                     STR_55 06B0  
                                   STR_48 0647                                     STR_56 0639  
                                   STR_49 06FD                                     STR_57 06E0  
                         __end_of___fltol 1542                                     ?_puts 0073  
                         __end_of___lldiv 1461                               i2c_read@ack 0072  
                         ___awdiv@divisor 0072                           __end_of___lwdiv 12E4  
                                   i1l323 1153                           __end_of___lwmod 125D  
                            ?_init_config 0070                           ___awdiv@counter 0076  
                                   _RCREG 001A                           _change_pass$400 002F  
                         _change_pass$403 0031                                     _SPBRG 0099  
                                   _PORTB 0006                                     _PORTD 0008  
                                   _SSPM3 00A3                                     _TRISB 0086  
                                   _TRISD 0088                                     _SSPEN 00A5  
                                   _TXREG 0019             change_time@long_press_counter 002C  
                            ?_init_timer0 0070                                     _nDONE 00FA  
                                   _block 0065                                     _event 00C2  
                                   _speed 00BC                                     main@i 00D5  
                      _enter_password$456 002F                                     pclath 000A  
                                   puts@s 0073                           __end_of_putchar 1F20  
                                   status 0003                                     wtemp0 007E  
                         __end_of_strncpy 1221                          init_ds1307@dummy 0076  
                 store_eeprom@eeprom_data 0025                           __initialization 000F  
                          ?_i2c_rep_start 0070                              _store_eeprom 0A29  
                            __end_of_main 0915                              __end_of_puts 1086  
                        __end_of_i2c_read 103F                          __end_of_i2c_stop 1EF6  
                       ??_read_ext_eeprom 0074                             ?_download_log 0070  
                                  ??_main 0061                                    ??_puts 0075  
                    write_ext_eeprom@addr 0076                      write_ext_eeprom@data 0075  
                                  _ADCON0 001F           update_dashboard_display@adc_val 0054  
                                  _ADRESH 001E                                    _ADRESL 009E  
                        ___awdiv@dividend 0074                          _write_ext_eeprom 1FA3  
                            i2c_read@data 0073                                    i1l4071 1132  
                                  i1l4073 1148                                    i1l4075 114A  
                                  i1l4077 1152                                    i1l4069 112E  
                                  u450_20 1132                                    u450_21 1131  
                            _write_ds1307 1000                                    u451_20 1148  
                                  u451_21 1147                                    _TMR0IE 005D  
                                  _TMR0IF 005A                                    _SSPADD 0093  
                                  _TRISE1 0449                                    _TRISE2 044A  
                                  _SSPBUF 0013                          __end_of___xxtofl 1746  
             __end_of_init_digital_keypad 1ED5                    enter_password@usr_pass 0027  
                        __end_of_get_time 1060                                    ___bmul 1F78  
                 _init_display_controller 12E4                                 ??___fldiv 0036  
                               ??___awdiv 0076                                 ??___awmod 0076  
                               ??___fltol 004C                                 ??___lldiv 0020  
                               ??___lwdiv 0076                                 ??___lwmod 0079  
                        __end_of_init_i2c 0800                          __end_of_init_adc 1EDC  
                        __end_of_read_adc 1FE0                            ??_download_log 0077  
                        ___awdiv@quotient 0078                           ___awmod@divisor 0072  
                                  _prekey 006B                           ___awmod@counter 0076  
                                  _strcmp 115A                                    _strcpy 1F8D  
                            __pdataCOMMON 007A                                    saved_w 007E  
                           display_logs@j 0050                                 ??_putchar 0072  
                               ??_strncpy 0075                              ___xxtofl@arg 002A  
                            ___xxtofl@exp 0029                              ___xxtofl@val 0020  
                 __end_of__initialization 003F                      __end_of_display_logs 1000  
                    __end_of_display_time 14CA                                ___fltol@f1 0048  
                         ??_i2c_rep_start 0072                       ___bmul@multiplicand 0072  
                          __pcstackCOMMON 0070                              __pidataBANK0 0003  
                            __pidataBANK1 1F2D                           change_pass@addr 0035  
                      change_pass@re_pass 0025                         __end_of_i2c_start 1EED  
                       __end_of_i2c_write 1F0A                    _handle_menu_navigation 0B68  
                       _i2c_wait_for_idle 1F20                           change_time@wait 0029  
                      ?_i2c_wait_for_idle 0070                                __pbssBANK0 0063  
                              __pbssBANK1 00A0                                 ?_i2c_read 0070  
                               ?_i2c_stop 0070                            _enter_password 0915  
               ??_init_display_controller 0076                                _clcd_print 1187  
                     ??_i2c_wait_for_idle 0072                                _clcd_putch 1F63  
                              _clcd_write 1FE0                                _clear_flag 00AB  
                              __pmaintext 080C                           read_ds1307@addr 0074  
                         read_ds1307@data 0075                                   ?___bmul 0072  
                              __pintentry 0004                                   _ACKSTAT 048E  
                                 ?_strcmp 0072                                   ?_strcpy 0072  
                     _detect_single_press 1086                           enter_password@i 002D  
             __end_of_read_digital_keypad 10D8                                 ?___xxtofl 0020  
               __end_of_i2c_wait_for_idle 1F2D                              init_i2c@baud 0026  
                          main@down_press 00D9                                   _SSPCON2 0091  
                               ?_get_time 0070                                __stringtab 05EE  
                  __end_of_enter_password 0A29                                ??_i2c_read 0072  
                              ??_i2c_stop 0072                                 ?_init_i2c 0026  
                    __end_of_download_log 05EE                                 ?_init_adc 0070  
                               ?_read_adc 0072                      ?_detect_single_press 0070  
                         _read_ext_eeprom 1103                                   ___fldiv 0347  
                                 ___awdiv 1392                                   ___awmod 1339  
                                 ___fltol 14CA                                   ___lldiv 13F9  
                __end_of_write_ext_eeprom 1FC1                                   ___lwdiv 12A0  
                                 ___lwmod 1221                   download_log@eeprom_data 0020  
                                 __ptext1 1746                                   __ptext2 1FC1  
                                 __ptext3 1461                                   __ptext4 168C  
                                 __ptext5 14CA                                   __ptext6 0347  
                                 __ptext7 125D                                   __ptext8 11B6  
                                 __ptext9 1EF6           __end_of_init_display_controller 1339  
                       __end_of_init_clcd 080C                                ??___xxtofl 0024  
                       __end_of_init_uart 11E6                          ___awmod@dividend 0074  
                           ??_change_pass 0022                             ??_change_time 0022  
                                 _putchar 1F15                                   main@key 00D4  
                                 clrloop0 1EDD                                ??_get_time 0076  
                                 _strncpy 11E6                         enter_password@key 0033  
                       enter_password@pos 0031                      end_of_initialization 003F  
                         ?_enter_password 0022                                ??_init_i2c 002A  
                              ??_init_adc 0072                                ??_read_adc 0074  
                   ??_detect_single_press 0074                  _update_dashboard_display 1746  
                             ?_clcd_print 0076                               ?_clcd_putch 0020  
                         ___lldiv@divisor 0072                               ?_clcd_write 0072  
                         ___lldiv@counter 0025                              __pstringtext 0600  
                        store_eeprom@addr 0031                                   strcmp@l 0076  
                                 strcmp@r 0072                                   strcpy@d 0073  
                         read_adc@channel 0075                              _display_logs 0E45  
                            _display_time 1461                    handle_lockout@hundreds 0024  
                           i2c_write@data 0072                             ___xxtofl@sign 0028  
                             ___fldiv@grs 0042                               ___fldiv@rem 003B  
                       _enter_menu_option 15D3                             clcd_print@str 0076  
                 __end_of_read_ext_eeprom 112E                        ?_enter_menu_option 0070  
                     __end_of_change_pass 0E45                       __end_of_change_time 0347  
                     ??_enter_menu_option 005B                            __end_of___bmul 1F8D  
        handle_menu_navigation@down_press 0060                             __pidataCOMMON 1ECD  
          display_logs@long_press_counter 004D                   ?_handle_menu_navigation 005F  
                          __end_of_strcmp 1187                            __end_of_strcpy 1FA3  
                     start_initialization 000F                 __end_of_enter_menu_option 168C  
                               _i2c_start 1EE4                            _handle_lockout 1542  
                             __end_of_isr 115A                                 _i2c_write 1EFF  
                     change_pass@new_pass 002A                               putchar@data 0072  
                   __end_of_i2c_rep_start 1F15                                  ??___bmul 0073  
                              init_fetch0 1F50                          change_time@blink 002E  
                           ??_init_ds1307 0076                               __pdataBANK0 006C  
                             __pdataBANK1 00C2                          change_time@dummy 002F  
                           ??_read_ds1307 0074            __end_of_handle_menu_navigation 0CC3  
                            _download_log 0516                                  ??_strcmp 0074  
                                ??_strcpy 0073                             ??_init_config 007A  
                               ___fldiv@a 002E                                 ___fldiv@b 0032  
                  __end_of_handle_lockout 15D3                             ??_init_timer0 0072  
                               ___latbits 0002                               _change_pass 0CC3  
                           __pcstackBANK0 0020                             __pcstackBANK1 00D2  
                             _change_time 0043                                ?_i2c_start 0070  
                              ?_i2c_write 0070                            change_pass@key 0039  
                          change_pass@pos 0037                          ?_read_ext_eeprom 0070  
                          change_time@key 002D                              change_pass@i 0033  
                               _dash_mode 006C                          ___lwdiv@dividend 0074  
                           ?_store_eeprom 0070                                  ?___fldiv 002E  
                                ?___awdiv 0072                                  ?___awmod 0072  
                                ?___fltol 0048                                  ?___lldiv 0072  
                                ?___lwdiv 0072                                 _clock_reg 00BF  
                                ?___lwmod 0020                         ?_write_ext_eeprom 0075  
                               __pstrings 05EE                        ??_write_ext_eeprom 0076  
                     __end_of_init_ds1307 1F50                           ?_handle_lockout 0070  
                     read_adc@adc_reg_val 0076                          ??_enter_password 0024  
                     __end_of_read_ds1307 1103                          ___lwdiv@quotient 0077  
                                ?_putchar 0070                                 _init_clcd 0801  
              ??_update_dashboard_display 0050                       __end_of_init_config 12A0  
                               _init_uart 11B6                                  ?_strncpy 0072  
                           ?_write_ds1307 0073                       __end_of_init_timer0 1EFF  
       handle_menu_navigation@sw5_pressed 006A                  ?_init_display_controller 0070  
                       interrupt_function 0004         handle_menu_navigation@sw6_pressed 0069  
                  main@long_press_counter 00D2                                 clear_ram0 1EDC  
                            ??_clcd_print 0079                              ??_clcd_putch 007A  
                            ??_clcd_write 0073                            ??_store_eeprom 0020  
                     enter_password@F1301 00A0                             download_log@j 003F  
                    change_time@blink_pos 0033                               __stringbase 0600  
             detect_single_press@prev_key 007A                         display_logs@j_387 0052  
                       display_logs@j_388 0054                         display_logs@j_389 0056  
                       display_logs@index 0059                               ??_i2c_start 0072  
                      __end_of_clcd_print 11B6                               ??_i2c_write 0072  
                      __end_of_clcd_putch 1F78                        __end_of_clcd_write 2000  
                              ?_init_clcd 0070                                ?_init_uart 0026  
             __end_of_detect_single_press 10AE                            ??_write_ds1307 0074  
                     _init_digital_keypad 1ECF                                  _i2c_read 101E  
                                _i2c_stop 1EED                         get_time@clock_reg 0076  
                           store_eeprom@j 0034                      ?_init_digital_keypad 0070  
                             _init_ds1307 1F3D                        __end_of__stringtab 0600  
                             _read_ds1307 10D8                               _init_config 125D  
                                ___xxtofl 168C                               _init_timer0 1EF6  
                         ___lwdiv@divisor 0072                           ___lwdiv@counter 0076  
                                __ptext10 07CE                                  __ptext11 13F9  
                                __ptext20 11E6                                  __ptext12 1F3D  
                                __ptext21 1060                                  __ptext13 1ECF  
                                __ptext30 1F0A                                  __ptext22 1F15  
                                __ptext14 0801                                  __ptext31 101E  
                                __ptext23 0E45                                  __ptext15 12E4  
                                __ptext40 1F20                                  __ptext32 1F78  
                                __ptext24 0A29                                  __ptext16 1ED5  
                                __ptext41 1F8D                                  __ptext33 1339  
                                __ptext25 1103                                  __ptext17 0B68  
                                __ptext50 1187                                  __ptext42 1542  
                                __ptext34 1392                                  __ptext26 0043  
                                __ptext18 15D3                                  __ptext51 1FE0  
                                __ptext43 1221                                  __ptext35 0CC3  
                                __ptext27 1000                                  __ptext19 0516  
                                __ptext52 112E                                  __ptext44 12A0  
                                __ptext36 1FA3                                  __ptext28 103F  
                                __ptext45 0915                                  __ptext37 1EFF  
                                __ptext29 10D8                                  __ptext46 115A  
                                __ptext38 1EED                                  __ptext47 1086  
                                __ptext39 1EE4                                  __ptext48 10AE  
                                __ptext49 1F63                                  _get_time 103F  
                      handle_lockout@ones 0026                        handle_lockout@tens 0025  
                             _log_counter 0063                                strcpy@dest 0074  
                                _init_i2c 07CE                       read_ext_eeprom@addr 0074  
                     read_ext_eeprom@data 0075                                  _init_adc 1ED5  
                                _read_adc 1FC1                   read_digital_keypad@mode 0073  
                 read_digital_keypad@once 007B                     display_time@clock_reg 0020  
                   ??_init_digital_keypad 0072                          display_logs@addr 004F  
                   download_log@log_index 003D                        enter_password@pass 002C  
                            ?_change_pass 0070                                  isr@count 00A9  
                     change_time@new_time 0030                              ?_change_time 0070  
                 display_logs@eeprom_data 0041                      __end_of_store_eeprom 0B68  
                     change_time@one_time 002B                                  init_ram0 1F54  
        __end_of_update_dashboard_display 1800                               ??_init_clcd 0078  
                             ??_init_uart 002A                                  intlevel1 0000  
                           init_uart@baud 0026                          ___lwmod@dividend 0022  
                        ___lldiv@dividend 0076                                 strcpy@src 0072  
                               stringcode 05F8                                 strncpy@cp 0076  
                         display_logs@key 0058                      __end_of_write_ds1307 101E  
                     _read_digital_keypad 10AE                          ??_handle_lockout 007A  
                       store_eeprom@j_270 003A                         store_eeprom@j_271 003C  
                       store_eeprom@j_267 0036                         store_eeprom@j_269 0038  
                       store_eeprom@index 0032                          ___lldiv@quotient 0021  
                         ___lwmod@divisor 0020                           ___lwmod@counter 0079  
                                stringtab 05EE                                  strncpy@d 0075  
                                strncpy@n 0073                                  strncpy@s 0072  
                    ?_read_digital_keypad 0070                          write_ds1307@addr 0074  
                            _testing_flag 00AD                          write_ds1307@data 0073  
         handle_menu_navigation@sw5_timer 00A7           handle_menu_navigation@sw6_timer 00A5  
                        download_log@addr 003C                         download_log@speed 0039  
                        download_log@gear 0036                          download_log@time 002D  
